
lab3-extra-test.elf:     file format elf64-littleriscv


Disassembly of section .text:

0000000080000000 <_binary_lab3_extra_test_bin_start>:
    80000000:	00000093          	li	x1,0
    80000004:	00000113          	li	x2,0
    80000008:	00000193          	li	x3,0
    8000000c:	023161bb          	remw	x3,x2,x3
    80000010:	400082b7          	lui	x5,0x40008
    80000014:	005282b3          	add	x5,x5,x5
    80000018:	f832b423          	sd	x3,-120(x5) # 40007f88 <_binary_lab3_extra_test_bin_size+0x3ffdf454>
    8000001c:	022060bb          	remw	x1,x0,x2
    80000020:	400080b7          	lui	x1,0x40008
    80000024:	001080b3          	add	x1,x1,x1
    80000028:	f830b023          	sd	x3,-128(x1) # 40007f80 <_binary_lab3_extra_test_bin_size+0x3ffdf44c>
    8000002c:	400080b7          	lui	x1,0x40008
    80000030:	001080b3          	add	x1,x1,x1
    80000034:	f8108523          	sb	x1,-118(x1) # 40007f8a <_binary_lab3_extra_test_bin_size+0x3ffdf456>
    80000038:	00112d33          	slt	x26,x2,x1
    8000003c:	1952f113          	andi	x2,x5,405
    80000040:	0230d1b3          	divu	x3,x1,x3
    80000044:	f8355297          	auipc	x5,0xf8355
    80000048:	41707113          	andi	x2,x0,1047
    8000004c:	02709013          	slli	x0,x1,0x27
    80000050:	0261f6bb          	remuw	x13,x3,x6
    80000054:	23dc00b7          	lui	x1,0x23dc0
    80000058:	0030d0b3          	srl	x1,x1,x3
    8000005c:	dd8db317          	auipc	x6,0xdd8db
    80000060:	023180b3          	mul	x1,x3,x3
    80000064:	f1d7b017          	auipc	x0,0xf1d7b
    80000068:	bcc1e193          	ori	x3,x3,-1076
    8000006c:	0031513b          	srlw	x2,x2,x3
    80000070:	e21b00b7          	lui	x1,0xe21b0
    80000074:	0011f1b3          	and	x3,x3,x1
    80000078:	006a809b          	addiw	x1,x21,6
    8000007c:	0010a1b3          	slt	x3,x1,x1
    80000080:	37d520b7          	lui	x1,0x37d52
    80000084:	2a30b213          	sltiu	x4,x1,675
    80000088:	8541f093          	andi	x1,x3,-1964
    8000008c:	021250b3          	divu	x1,x4,x1
    80000090:	4160d11b          	sraiw	x2,x1,0x16
    80000094:	0212f2b3          	remu	x5,x5,x1
    80000098:	4041519b          	sraiw	x3,x2,0x4
    8000009c:	00000097          	auipc	x1,0x0
    800000a0:	21c081e7          	jalr	x3,540(x1) # 800002b8 <_binary_lab3_extra_test_bin_start+0x2b8>
    800000a4:	a7f48137          	lui	x2,0xa7f48
    800000a8:	0020a0b3          	slt	x1,x1,x2
    800000ac:	0235c0b3          	div	x1,x11,x3
    800000b0:	ad10e213          	ori	x4,x1,-1327
    800000b4:	022180b3          	mul	x1,x3,x2
    800000b8:	0271d133          	divu	x2,x3,x7
    800000bc:	006251b3          	srl	x3,x4,x6
    800000c0:	4d8440b7          	lui	x1,0x4d844
    800000c4:	003111bb          	sllw	x3,x2,x3
    800000c8:	401103bb          	subw	x7,x2,x1
    800000cc:	35707193          	andi	x3,x0,855
    800000d0:	000291b3          	sll	x3,x5,x0
    800000d4:	00225033          	srl	x0,x4,x2
    800000d8:	400081b7          	lui	x3,0x40008
    800000dc:	003181b3          	add	x3,x3,x3
    800000e0:	f831b423          	sd	x3,-120(x3) # 40007f88 <_binary_lab3_extra_test_bin_size+0x3ffdf454>
    800000e4:	ac50e097          	auipc	x1,0xac50e
    800000e8:	400081b7          	lui	x3,0x40008
    800000ec:	003181b3          	add	x3,x3,x3
    800000f0:	f8d18323          	sb	x13,-122(x3) # 40007f86 <_binary_lab3_extra_test_bin_size+0x3ffdf452>
    800000f4:	20e3b117          	auipc	x2,0x20e3b
    800000f8:	0123901b          	slliw	x0,x7,0x12
    800000fc:	47d8e337          	lui	x6,0x47d8e
    80000100:	02115ebb          	divuw	x29,x2,x1
    80000104:	83b7f3b7          	lui	x7,0x83b7f
    80000108:	023601b3          	mul	x3,x12,x3
    8000010c:	264dd337          	lui	x6,0x264dd
    80000110:	0271e0bb          	remw	x1,x3,x7
    80000114:	00b182bb          	addw	x5,x3,x11
    80000118:	53376197          	auipc	x3,0x53376
    8000011c:	67f13113          	sltiu	x2,x2,1663
    80000120:	2c9940b7          	lui	x1,0x2c994
    80000124:	00008193          	mv	x3,x1
    80000128:	34118663          	beq	x3,x1,80000474 <_binary_lab3_extra_test_bin_start+0x474>
    8000012c:	0091919b          	slliw	x3,x3,0x9
    80000130:	0230e13b          	remw	x2,x1,x3
    80000134:	00136233          	or	x4,x6,x1
    80000138:	4033513b          	sraw	x2,x6,x3
    8000013c:	0231f23b          	remuw	x4,x3,x3
    80000140:	0210f1bb          	remuw	x3,x1,x1
    80000144:	023353b3          	divu	x7,x6,x3
    80000148:	94fdc137          	lui	x2,0x94fdc
    8000014c:	0028513b          	srlw	x2,x16,x2
    80000150:	401051b3          	sra	x3,x0,x1
    80000154:	a5413193          	sltiu	x3,x2,-1452
    80000158:	403183b3          	sub	x7,x3,x3
    8000015c:	4020d13b          	sraw	x2,x1,x2
    80000160:	40008137          	lui	x2,0x40008
    80000164:	00210133          	add	x2,x2,x2
    80000168:	f82105a3          	sb	x2,-117(x2) # 40007f8b <_binary_lab3_extra_test_bin_size+0x3ffdf457>
    8000016c:	efbe9097          	auipc	x1,0xefbe9
    80000170:	003050b3          	srl	x1,x0,x3
    80000174:	400082b7          	lui	x5,0x40008
    80000178:	005282b3          	add	x5,x5,x5
    8000017c:	f81286a3          	sb	x1,-115(x5) # 40007f8d <_binary_lab3_extra_test_bin_size+0x3ffdf459>
    80000180:	400080b7          	lui	x1,0x40008
    80000184:	001080b3          	add	x1,x1,x1
    80000188:	f810b023          	sd	x1,-128(x1) # 40007f80 <_binary_lab3_extra_test_bin_size+0x3ffdf44c>
    8000018c:	6074b297          	auipc	x5,0x6074b
    80000190:	02324db3          	div	x27,x4,x3
    80000194:	0011d2bb          	srlw	x5,x3,x1
    80000198:	0113d11b          	srliw	x2,x7,0x11
    8000019c:	0030c0b3          	xor	x1,x1,x3
    800001a0:	400080b7          	lui	x1,0x40008
    800001a4:	001080b3          	add	x1,x1,x1
    800001a8:	f880b003          	ld	x0,-120(x1) # 40007f88 <_binary_lab3_extra_test_bin_size+0x3ffdf454>
    800001ac:	401103b3          	sub	x7,x2,x1
    800001b0:	01419093          	slli	x1,x3,0x14
    800001b4:	34220c63          	beq	x4,x2,8000050c <_binary_lab3_extra_test_bin_start+0x50c>
    800001b8:	354004ef          	jal	x9,8000050c <_binary_lab3_extra_test_bin_start+0x50c>
    800001bc:	400080b7          	lui	x1,0x40008
    800001c0:	001080b3          	add	x1,x1,x1
    800001c4:	f830a423          	sw	x3,-120(x1) # 40007f88 <_binary_lab3_extra_test_bin_size+0x3ffdf454>
    800001c8:	4031d13b          	sraw	x2,x3,x3
    800001cc:	87cb1097          	auipc	x1,0x87cb1
    800001d0:	053ab197          	auipc	x3,0x53ab
    800001d4:	003270b3          	and	x1,x4,x3
    800001d8:	403381b3          	sub	x3,x7,x3
    800001dc:	e05d30b7          	lui	x1,0xe05d3
    800001e0:	1314d337          	lui	x6,0x1314d
    800001e4:	0240f13b          	remuw	x2,x1,x4
    800001e8:	14d1809b          	addiw	x1,x3,333 # ffffffff853ab31d <_binary_lab3_extra_test_bin_end+0xffffffff053827e9>
    800001ec:	0201d13b          	divuw	x2,x3,x0
    800001f0:	01a1521b          	srliw	x4,x2,0x1a
    800001f4:	47731137          	lui	x2,0x47731
    800001f8:	29ab91b7          	lui	x3,0x29ab9
    800001fc:	9bc0819b          	addiw	x3,x1,-1604 # ffffffffe05d29bc <_binary_lab3_extra_test_bin_end+0xffffffff605a9e88>
    80000200:	43011197          	auipc	x3,0x43011
    80000204:	0254f33b          	remuw	x6,x9,x5
    80000208:	403187bb          	subw	x15,x3,x3
    8000020c:	0212f0bb          	remuw	x1,x5,x1
    80000210:	02308133          	mul	x2,x1,x3
    80000214:	400081b7          	lui	x3,0x40008
    80000218:	003181b3          	add	x3,x3,x3
    8000021c:	f881b383          	ld	x7,-120(x3) # 40007f88 <_binary_lab3_extra_test_bin_size+0x3ffdf454>
    80000220:	400081b7          	lui	x3,0x40008
    80000224:	003181b3          	add	x3,x3,x3
    80000228:	f8c1ec83          	lwu	x25,-116(x3) # 40007f8c <_binary_lab3_extra_test_bin_size+0x3ffdf458>
    8000022c:	400080b7          	lui	x1,0x40008
    80000230:	001080b3          	add	x1,x1,x1
    80000234:	f820b023          	sd	x2,-128(x1) # 40007f80 <_binary_lab3_extra_test_bin_size+0x3ffdf44c>
    80000238:	00310263          	beq	x2,x3,8000023c <_binary_lab3_extra_test_bin_start+0x23c>
    8000023c:	0cd0016f          	jal	x2,80000b08 <_binary_lab3_extra_test_bin_start+0xb08>
    80000240:	e752011b          	addiw	x2,x4,-395 # fffffffffffffe75 <_binary_lab3_extra_test_bin_end+0xffffffff7ffd7341>
    80000244:	88dde317          	auipc	x6,0x88dde
    80000248:	c3e4f137          	lui	x2,0xc3e4f
    8000024c:	400082b7          	lui	x5,0x40008
    80000250:	005282b3          	add	x5,x5,x5
    80000254:	f8728103          	lb	x2,-121(x5) # 40007f87 <_binary_lab3_extra_test_bin_size+0x3ffdf453>
    80000258:	0201e0b3          	rem	x1,x3,x0
    8000025c:	400080b7          	lui	x1,0x40008
    80000260:	001080b3          	add	x1,x1,x1
    80000264:	f830b423          	sd	x3,-120(x1) # 40007f88 <_binary_lab3_extra_test_bin_size+0x3ffdf454>
    80000268:	0080919b          	slliw	x3,x1,0x8
    8000026c:	400081b7          	lui	x3,0x40008
    80000270:	003181b3          	add	x3,x3,x3
    80000274:	f881b103          	ld	x2,-120(x3) # 40007f88 <_binary_lab3_extra_test_bin_size+0x3ffdf454>
    80000278:	d05c81b7          	lui	x3,0xd05c8
    8000027c:	d5af3397          	auipc	x7,0xd5af3
    80000280:	7691c593          	xori	x11,x3,1897
    80000284:	007250b3          	srl	x1,x4,x7
    80000288:	0010d213          	srli	x4,x1,0x1
    8000028c:	40c0d11b          	sraiw	x2,x1,0xc
    80000290:	c7214113          	xori	x2,x2,-910
    80000294:	021271b3          	remu	x3,x4,x1
    80000298:	40008137          	lui	x2,0x40008
    8000029c:	00210133          	add	x2,x2,x2
    800002a0:	f8011203          	lh	x4,-128(x2) # 40007f80 <_binary_lab3_extra_test_bin_size+0x3ffdf44c>
    800002a4:	40120333          	sub	x6,x4,x1
    800002a8:	0213d1b3          	divu	x3,x7,x1
    800002ac:	2afd5237          	lui	x4,0x2afd5
    800002b0:	1250f063          	bgeu	x1,x5,800003d0 <_binary_lab3_extra_test_bin_start+0x3d0>
    800002b4:	1050ee63          	bltu	x1,x5,800003d0 <_binary_lab3_extra_test_bin_start+0x3d0>
    800002b8:	0211d133          	divu	x2,x3,x1
    800002bc:	7390831b          	addiw	x6,x1,1849
    800002c0:	002147b3          	xor	x15,x2,x2
    800002c4:	400083b7          	lui	x7,0x40008
    800002c8:	007383b3          	add	x7,x7,x7
    800002cc:	f8b3c083          	lbu	x1,-117(x7) # 40007f8b <_binary_lab3_extra_test_bin_size+0x3ffdf457>
    800002d0:	0010a0b3          	slt	x1,x1,x1
    800002d4:	404950bb          	sraw	x1,x18,x4
    800002d8:	a164e1b7          	lui	x3,0xa164e
    800002dc:	400280bb          	subw	x1,x5,x0
    800002e0:	bc10a113          	slti	x2,x1,-1087
    800002e4:	2d60819b          	addiw	x3,x1,726
    800002e8:	02911193          	slli	x3,x2,0x29
    800002ec:	4f86b097          	auipc	x1,0x4f86b
    800002f0:	02108133          	mul	x2,x1,x1
    800002f4:	400081b7          	lui	x3,0x40008
    800002f8:	003181b3          	add	x3,x3,x3
    800002fc:	f811b423          	sd	x1,-120(x3) # 40007f88 <_binary_lab3_extra_test_bin_size+0x3ffdf454>
    80000300:	4f180117          	auipc	x2,0x4f180
    80000304:	e62922b7          	lui	x5,0xe6292
    80000308:	0dc0e093          	ori	x1,x1,220
    8000030c:	0011dc33          	srl	x24,x3,x1
    80000310:	409603b3          	sub	x7,x12,x9
    80000314:	00516133          	or	x2,x2,x5
    80000318:	bcf0e193          	ori	x3,x1,-1073
    8000031c:	40008237          	lui	x4,0x40008
    80000320:	00420233          	add	x4,x4,x4
    80000324:	f8023383          	ld	x7,-128(x4) # 40007f80 <_binary_lab3_extra_test_bin_size+0x3ffdf44c>
    80000328:	40008237          	lui	x4,0x40008
    8000032c:	00420233          	add	x4,x4,x4
    80000330:	f8323023          	sd	x3,-128(x4) # 40007f80 <_binary_lab3_extra_test_bin_size+0x3ffdf44c>
    80000334:	7cb51137          	lui	x2,0x7cb51
    80000338:	40f0d113          	srai	x2,x1,0xf
    8000033c:	6a2c0a63          	beq	x24,x2,800009f0 <_binary_lab3_extra_test_bin_start+0x9f0>
    80000340:	6b00026f          	jal	x4,800009f0 <_binary_lab3_extra_test_bin_start+0x9f0>
    80000344:	41d1d09b          	sraiw	x1,x3,0x1d
    80000348:	0245d13b          	divuw	x2,x11,x4
    8000034c:	c8aea0b7          	lui	x1,0xc8aea
    80000350:	005490b3          	sll	x1,x9,x5
    80000354:	0170d093          	srli	x1,x1,0x17
    80000358:	40008f37          	lui	x30,0x40008
    8000035c:	01ef0f33          	add	x30,x30,x30
    80000360:	f99f0323          	sb	x25,-122(x30) # 40007f86 <_binary_lab3_extra_test_bin_size+0x3ffdf452>
    80000364:	97808113          	addi	x2,x1,-1672 # ffffffffc8ae9978 <_binary_lab3_extra_test_bin_end+0xffffffff48ac0e44>
    80000368:	400080b7          	lui	x1,0x40008
    8000036c:	001080b3          	add	x1,x1,x1
    80000370:	f8409123          	sh	x4,-126(x1) # 40007f82 <_binary_lab3_extra_test_bin_size+0x3ffdf44e>
    80000374:	001112bb          	sllw	x5,x2,x1
    80000378:	d3d5e093          	ori	x1,x11,-707
    8000037c:	42915693          	srai	x13,x2,0x29
    80000380:	003151b3          	srl	x3,x2,x3
    80000384:	00123033          	sltu	x0,x4,x1
    80000388:	400080b7          	lui	x1,0x40008
    8000038c:	001080b3          	add	x1,x1,x1
    80000390:	f880b183          	ld	x3,-120(x1) # 40007f88 <_binary_lab3_extra_test_bin_size+0x3ffdf454>
    80000394:	96a0819b          	addiw	x3,x1,-1686
    80000398:	0150d39b          	srliw	x7,x1,0x15
    8000039c:	0221d3b3          	divu	x7,x3,x2
    800003a0:	0210d133          	divu	x2,x1,x1
    800003a4:	026161bb          	remw	x3,x2,x6
    800003a8:	400080b7          	lui	x1,0x40008
    800003ac:	001080b3          	add	x1,x1,x1
    800003b0:	f840e183          	lwu	x3,-124(x1) # 40007f84 <_binary_lab3_extra_test_bin_size+0x3ffdf450>
    800003b4:	40008337          	lui	x6,0x40008
    800003b8:	00630333          	add	x6,x6,x6
    800003bc:	f8c36583          	lwu	x11,-116(x6) # 40007f8c <_binary_lab3_extra_test_bin_size+0x3ffdf458>
    800003c0:	0062b0b3          	sltu	x1,x5,x6
    800003c4:	0011d3b3          	srl	x7,x3,x1
    800003c8:	00030193          	mv	x3,x6
    800003cc:	58618e63          	beq	x3,x6,80000968 <_binary_lab3_extra_test_bin_start+0x968>
    800003d0:	0230813b          	mulw	x2,x1,x3
    800003d4:	003101bb          	addw	x3,x2,x3
    800003d8:	002f9097          	auipc	x1,0x2f9
    800003dc:	400080b7          	lui	x1,0x40008
    800003e0:	001080b3          	add	x1,x1,x1
    800003e4:	f820a023          	sw	x2,-128(x1) # 40007f80 <_binary_lab3_extra_test_bin_size+0x3ffdf44c>
    800003e8:	cbc1b193          	sltiu	x3,x3,-836
    800003ec:	467c3817          	auipc	x16,0x467c3
    800003f0:	00215133          	srl	x2,x2,x2
    800003f4:	dd43009b          	addiw	x1,x6,-556
    800003f8:	0251533b          	divuw	x6,x2,x5
    800003fc:	0007b7b3          	sltu	x15,x15,x0
    80000400:	002163b3          	or	x7,x2,x2
    80000404:	40b3511b          	sraiw	x2,x6,0xb
    80000408:	0231713b          	remuw	x2,x2,x3
    8000040c:	1bf34113          	xori	x2,x6,447
    80000410:	0220d13b          	divuw	x2,x1,x2
    80000414:	023061b3          	rem	x3,x0,x3
    80000418:	401181b3          	sub	x3,x3,x1
    8000041c:	0222503b          	divuw	x0,x4,x2
    80000420:	40008137          	lui	x2,0x40008
    80000424:	00210133          	add	x2,x2,x2
    80000428:	f8213023          	sd	x2,-128(x2) # 40007f80 <_binary_lab3_extra_test_bin_size+0x3ffdf44c>
    8000042c:	4031813b          	subw	x2,x3,x3
    80000430:	f871e237          	lui	x4,0xf871e
    80000434:	400080b7          	lui	x1,0x40008
    80000438:	001080b3          	add	x1,x1,x1
    8000043c:	f820b023          	sd	x2,-128(x1) # 40007f80 <_binary_lab3_extra_test_bin_size+0x3ffdf44c>
    80000440:	024187bb          	mulw	x15,x3,x4
    80000444:	400080b7          	lui	x1,0x40008
    80000448:	001080b3          	add	x1,x1,x1
    8000044c:	f800b083          	ld	x1,-128(x1) # 40007f80 <_binary_lab3_extra_test_bin_size+0x3ffdf44c>
    80000450:	00219133          	sll	x2,x3,x2
    80000454:	1fb1c293          	xori	x5,x3,507
    80000458:	0010e4b3          	or	x9,x1,x1
    8000045c:	002c8133          	add	x2,x25,x2
    80000460:	400080b7          	lui	x1,0x40008
    80000464:	001080b3          	add	x1,x1,x1
    80000468:	f830b023          	sd	x3,-128(x1) # 40007f80 <_binary_lab3_extra_test_bin_size+0x3ffdf44c>
    8000046c:	d41188e3          	beq	x3,x1,800001bc <_binary_lab3_extra_test_bin_start+0x1bc>
    80000470:	d4dff16f          	jal	x2,800001bc <_binary_lab3_extra_test_bin_start+0x1bc>
    80000474:	400082b7          	lui	x5,0x40008
    80000478:	005282b3          	add	x5,x5,x5
    8000047c:	f822b023          	sd	x2,-128(x5) # 40007f80 <_binary_lab3_extra_test_bin_size+0x3ffdf44c>
    80000480:	021b53b3          	divu	x7,x22,x1
    80000484:	40008137          	lui	x2,0x40008
    80000488:	00210133          	add	x2,x2,x2
    8000048c:	f8313023          	sd	x3,-128(x2) # 40007f80 <_binary_lab3_extra_test_bin_size+0x3ffdf44c>
    80000490:	0000d0b3          	srl	x1,x1,x0
    80000494:	ee920393          	addi	x7,x4,-279 # fffffffff871dee9 <_binary_lab3_extra_test_bin_end+0xffffffff786f53b5>
    80000498:	4011d1b3          	sra	x3,x3,x1
    8000049c:	018ed19b          	srliw	x3,x29,0x18
    800004a0:	02115333          	divu	x6,x2,x1
    800004a4:	021140b3          	div	x1,x2,x1
    800004a8:	6891b393          	sltiu	x7,x3,1673
    800004ac:	4022d233          	sra	x4,x5,x2
    800004b0:	985e3137          	lui	x2,0x985e3
    800004b4:	1070011b          	addiw	x2,x0,263
    800004b8:	f6d2c393          	xori	x7,x5,-147
    800004bc:	4010d0b3          	sra	x1,x1,x1
    800004c0:	0011d033          	srl	x0,x3,x1
    800004c4:	9473a317          	auipc	x6,0x9473a
    800004c8:	c62d3597          	auipc	x11,0xc62d3
    800004cc:	f2b17093          	andi	x1,x2,-213
    800004d0:	400085b7          	lui	x11,0x40008
    800004d4:	00b585b3          	add	x11,x11,x11
    800004d8:	f825b423          	sd	x2,-120(x11) # 40007f88 <_binary_lab3_extra_test_bin_size+0x3ffdf454>
    800004dc:	40f35113          	srai	x2,x6,0xf
    800004e0:	4031d0b3          	sra	x1,x3,x3
    800004e4:	01409a1b          	slliw	x20,x1,0x14
    800004e8:	524490b7          	lui	x1,0x52449
    800004ec:	15e08093          	addi	x1,x1,350 # 5244915e <_binary_lab3_extra_test_bin_size+0x5242062a>
    800004f0:	002131b3          	sltu	x3,x2,x2
    800004f4:	4084d093          	srai	x1,x9,0x8
    800004f8:	401100b3          	sub	x1,x2,x1
    800004fc:	1cc2dcb7          	lui	x25,0x1cc2d
    80000500:	00a0919b          	slliw	x3,x1,0xa
    80000504:	00010793          	mv	x15,x2
    80000508:	10278a63          	beq	x15,x2,8000061c <_binary_lab3_extra_test_bin_start+0x61c>
    8000050c:	d72e24b7          	lui	x9,0xd72e2
    80000510:	d600809b          	addiw	x1,x1,-672
    80000514:	0230c133          	div	x2,x1,x3
    80000518:	002100b3          	add	x1,x2,x2
    8000051c:	001081b3          	add	x3,x1,x1
    80000520:	0170909b          	slliw	x1,x1,0x17
    80000524:	00409513          	slli	x10,x1,0x4
    80000528:	5d02031b          	addiw	x6,x4,1488 # 5d0 <_binary_lab3_extra_test_bin_size-0x28564>
    8000052c:	0071d19b          	srliw	x3,x3,0x7
    80000530:	0231013b          	mulw	x2,x2,x3
    80000534:	009130b3          	sltu	x1,x2,x9
    80000538:	00214133          	xor	x2,x2,x2
    8000053c:	0039013b          	addw	x2,x18,x3
    80000540:	400081b7          	lui	x3,0x40008
    80000544:	003181b3          	add	x3,x3,x3
    80000548:	f8e19283          	lh	x5,-114(x3) # 40007f8e <_binary_lab3_extra_test_bin_size+0x3ffdf45a>
    8000054c:	403150bb          	sraw	x1,x2,x3
    80000550:	400080b7          	lui	x1,0x40008
    80000554:	001080b3          	add	x1,x1,x1
    80000558:	f8208723          	sb	x2,-114(x1) # 40007f8e <_binary_lab3_extra_test_bin_size+0x3ffdf45a>
    8000055c:	001391b3          	sll	x3,x7,x1
    80000560:	0210813b          	mulw	x2,x1,x1
    80000564:	400081b7          	lui	x3,0x40008
    80000568:	003181b3          	add	x3,x3,x3
    8000056c:	f841b023          	sd	x4,-128(x3) # 40007f80 <_binary_lab3_extra_test_bin_size+0x3ffdf44c>
    80000570:	321fa117          	auipc	x2,0x321fa
    80000574:	001130b3          	sltu	x1,x2,x1
    80000578:	00d1911b          	slliw	x2,x3,0xd
    8000057c:	c2d00197          	auipc	x3,0xc2d00
    80000580:	02307133          	remu	x2,x0,x3
    80000584:	b3e0f137          	lui	x2,0xb3e0f
    80000588:	00e1959b          	slliw	x11,x3,0xe
    8000058c:	0011b1b3          	sltu	x3,x3,x1
    80000590:	1e61009b          	addiw	x1,x2,486 # ffffffffb3e0f1e6 <_binary_lab3_extra_test_bin_end+0xffffffff33de66b2>
    80000594:	0050d1b3          	srl	x3,x1,x5
    80000598:	2a23f863          	bgeu	x7,x2,80000848 <_binary_lab3_extra_test_bin_start+0x848>
    8000059c:	2a23e663          	bltu	x7,x2,80000848 <_binary_lab3_extra_test_bin_start+0x848>
    800005a0:	575a2217          	auipc	x4,0x575a2
    800005a4:	0211813b          	mulw	x2,x3,x1
    800005a8:	3daef1b7          	lui	x3,0x3daef
    800005ac:	30241397          	auipc	x7,0x30241
    800005b0:	007211b3          	sll	x3,x4,x7
    800005b4:	0023833b          	addw	x6,x7,x2
    800005b8:	02338333          	mul	x6,x7,x3
    800005bc:	00209133          	sll	x2,x1,x2
    800005c0:	0231e0b3          	rem	x1,x3,x3
    800005c4:	00f1509b          	srliw	x1,x2,0xf
    800005c8:	d77fe137          	lui	x2,0xd77fe
    800005cc:	402386b3          	sub	x13,x7,x2
    800005d0:	003102b3          	add	x5,x2,x3
    800005d4:	aae16113          	ori	x2,x2,-1362
    800005d8:	4031823b          	subw	x4,x3,x3
    800005dc:	e0e2e097          	auipc	x1,0xe0e2e
    800005e0:	40008137          	lui	x2,0x40008
    800005e4:	00210133          	add	x2,x2,x2
    800005e8:	f8113423          	sd	x1,-120(x2) # 40007f88 <_binary_lab3_extra_test_bin_size+0x3ffdf454>
    800005ec:	b773819b          	addiw	x3,x7,-1161 # ffffffffb0241123 <_binary_lab3_extra_test_bin_end+0xffffffff302185ef>
    800005f0:	024361bb          	remw	x3,x6,x4
    800005f4:	40118133          	sub	x2,x3,x1
    800005f8:	0020a133          	slt	x2,x1,x2
    800005fc:	01d0c4b3          	xor	x9,x1,x29
    80000600:	f6408193          	addi	x3,x1,-156 # 60e2e540 <_binary_lab3_extra_test_bin_size+0x60e05a0c>
    80000604:	06ce70b7          	lui	x1,0x6ce7
    80000608:	02a6d0b3          	divu	x1,x13,x10
    8000060c:	00b18533          	add	x10,x3,x11
    80000610:	df4ee237          	lui	x4,0xdf4ee
    80000614:	00118263          	beq	x3,x1,80000618 <_binary_lab3_extra_test_bin_start+0x618>
    80000618:	02d0016f          	jal	x2,80000e44 <_binary_lab3_extra_test_bin_start+0xe44>
    8000061c:	f2013193          	sltiu	x3,x2,-224
    80000620:	00302133          	sgtz	x2,x3
    80000624:	c3101137          	lui	x2,0xc3101
    80000628:	001301b3          	add	x3,x6,x1
    8000062c:	0222d1b3          	divu	x3,x5,x2
    80000630:	20c38213          	addi	x4,x7,524
    80000634:	400082b7          	lui	x5,0x40008
    80000638:	005282b3          	add	x5,x5,x5
    8000063c:	f802b183          	ld	x3,-128(x5) # 40007f80 <_binary_lab3_extra_test_bin_size+0x3ffdf44c>
    80000640:	00d1513b          	srlw	x2,x2,x13
    80000644:	0002131b          	slliw	x6,x4,0x0
    80000648:	02216133          	rem	x2,x2,x2
    8000064c:	0030f133          	and	x2,x1,x3
    80000650:	3fa07093          	andi	x1,x0,1018
    80000654:	0340e1bb          	remw	x3,x1,x20
    80000658:	918f2017          	auipc	x0,0x918f2
    8000065c:	407183b3          	sub	x7,x3,x7
    80000660:	ca4bb093          	sltiu	x1,x23,-860
    80000664:	014d2333          	slt	x6,x26,x20
    80000668:	400081b7          	lui	x3,0x40008
    8000066c:	003181b3          	add	x3,x3,x3
    80000670:	f801b083          	ld	x1,-128(x3) # 40007f80 <_binary_lab3_extra_test_bin_size+0x3ffdf44c>
    80000674:	0231e6b3          	rem	x13,x3,x3
    80000678:	406281bb          	subw	x3,x5,x6
    8000067c:	27353137          	lui	x2,0x27353
    80000680:	0211d23b          	divuw	x4,x3,x1
    80000684:	4064d1b3          	sra	x3,x9,x6
    80000688:	da11b113          	sltiu	x2,x3,-607
    8000068c:	003090bb          	sllw	x1,x1,x3
    80000690:	02210133          	mul	x2,x2,x2
    80000694:	6fb1019b          	addiw	x3,x2,1787 # 273536fb <_binary_lab3_extra_test_bin_size+0x2732abc7>
    80000698:	00018193          	mv	x3,x3
    8000069c:	10318a63          	beq	x3,x3,800007b0 <_binary_lab3_extra_test_bin_start+0x7b0>
    800006a0:	00113133          	sltu	x2,x2,x1
    800006a4:	40008137          	lui	x2,0x40008
    800006a8:	00210133          	add	x2,x2,x2
    800006ac:	f8013103          	ld	x2,-128(x2) # 40007f80 <_binary_lab3_extra_test_bin_size+0x3ffdf44c>
    800006b0:	4203d113          	srai	x2,x7,0x20
    800006b4:	400081b7          	lui	x3,0x40008
    800006b8:	003181b3          	add	x3,x3,x3
    800006bc:	f881b083          	ld	x1,-120(x3) # 40007f88 <_binary_lab3_extra_test_bin_size+0x3ffdf454>
    800006c0:	403101b3          	sub	x3,x2,x3
    800006c4:	0000a0b3          	sltz	x1,x1
    800006c8:	02204133          	div	x2,x0,x2
    800006cc:	406f5133          	sra	x2,x30,x6
    800006d0:	034100bb          	mulw	x1,x2,x20
    800006d4:	0101931b          	slliw	x6,x3,0x10
    800006d8:	0216c0b3          	div	x1,x13,x1
    800006dc:	0072833b          	addw	x6,x5,x7
    800006e0:	002133b3          	sltu	x7,x2,x2
    800006e4:	03c11193          	slli	x3,x2,0x3c
    800006e8:	0051013b          	addw	x2,x2,x5
    800006ec:	400081b7          	lui	x3,0x40008
    800006f0:	003181b3          	add	x3,x3,x3
    800006f4:	f891c103          	lbu	x2,-119(x3) # 40007f89 <_binary_lab3_extra_test_bin_size+0x3ffdf455>
    800006f8:	40008237          	lui	x4,0x40008
    800006fc:	00420233          	add	x4,x4,x4
    80000700:	f8823183          	ld	x3,-120(x4) # 40007f88 <_binary_lab3_extra_test_bin_size+0x3ffdf454>
    80000704:	4691e093          	ori	x1,x3,1129
    80000708:	51a1f893          	andi	x17,x3,1306
    8000070c:	007081bb          	addw	x3,x1,x7
    80000710:	400080b7          	lui	x1,0x40008
    80000714:	001080b3          	add	x1,x1,x1
    80000718:	f830b023          	sd	x3,-128(x1) # 40007f80 <_binary_lab3_extra_test_bin_size+0x3ffdf44c>
    8000071c:	00308463          	beq	x1,x3,80000724 <_binary_lab3_extra_test_bin_start+0x724>
    80000720:	004000ef          	jal	80000724 <_binary_lab3_extra_test_bin_start+0x724>
    80000724:	0220c1bb          	divw	x3,x1,x2
    80000728:	01c0d593          	srli	x11,x1,0x1c
    8000072c:	1255f1b7          	lui	x3,0x1255f
    80000730:	0230c1b3          	div	x3,x1,x3
    80000734:	caeadf97          	auipc	x31,0xcaead
    80000738:	d3b0e013          	ori	x0,x1,-709
    8000073c:	40008137          	lui	x2,0x40008
    80000740:	00210133          	add	x2,x2,x2
    80000744:	f8c12083          	lw	x1,-116(x2) # 40007f8c <_binary_lab3_extra_test_bin_size+0x3ffdf458>
    80000748:	023100bb          	mulw	x1,x2,x3
    8000074c:	0015e333          	or	x6,x11,x1
    80000750:	01221113          	slli	x2,x4,0x12
    80000754:	4010d1bb          	sraw	x3,x1,x1
    80000758:	f4318113          	addi	x2,x3,-189 # 1255ef43 <_binary_lab3_extra_test_bin_size+0x1253640f>
    8000075c:	0211e033          	rem	x0,x3,x1
    80000760:	4c41b113          	sltiu	x2,x3,1220
    80000764:	0073d09b          	srliw	x1,x7,0x7
    80000768:	3103a793          	slti	x15,x7,784
    8000076c:	9111019b          	addiw	x3,x2,-1775
    80000770:	4027d3bb          	sraw	x7,x15,x2
    80000774:	e3cf5117          	auipc	x2,0xe3cf5
    80000778:	61507737          	lui	x14,0x61507
    8000077c:	a110a0b7          	lui	x1,0xa110a
    80000780:	46ac1cb7          	lui	x25,0x46ac1
    80000784:	001151bb          	srlw	x3,x2,x1
    80000788:	c6d34113          	xori	x2,x6,-915
    8000078c:	98c2b093          	sltiu	x1,x5,-1652
    80000790:	50026193          	ori	x3,x4,1280
    80000794:	a4181097          	auipc	x1,0xa4181
    80000798:	40008337          	lui	x6,0x40008
    8000079c:	00630333          	add	x6,x6,x6
    800007a0:	f8331623          	sh	x3,-116(x6) # 40007f8c <_binary_lab3_extra_test_bin_size+0x3ffdf458>
    800007a4:	006030b3          	snez	x1,x6
    800007a8:	00080193          	mv	x3,x16
    800007ac:	990180e3          	beq	x3,x16,8000012c <_binary_lab3_extra_test_bin_start+0x12c>
    800007b0:	0231e533          	rem	x10,x3,x3
    800007b4:	02295333          	divu	x6,x18,x2
    800007b8:	021080b3          	mul	x1,x1,x1
    800007bc:	4064d0b3          	sra	x1,x9,x6
    800007c0:	4027d1bb          	sraw	x3,x15,x2
    800007c4:	0001d11b          	srliw	x2,x3,0x0
    800007c8:	400080b7          	lui	x1,0x40008
    800007cc:	001080b3          	add	x1,x1,x1
    800007d0:	f8c0e003          	lwu	x0,-116(x1) # 40007f8c <_binary_lab3_extra_test_bin_size+0x3ffdf458>
    800007d4:	021162b3          	rem	x5,x2,x1
    800007d8:	002200b3          	add	x1,x4,x2
    800007dc:	021281b3          	mul	x3,x5,x1
    800007e0:	001001bb          	addw	x3,x0,x1
    800007e4:	402cd033          	sra	x0,x25,x2
    800007e8:	26107113          	andi	x2,x0,609
    800007ec:	3078a5b7          	lui	x11,0x3078a
    800007f0:	5100e113          	ori	x2,x1,1296
    800007f4:	c17b4097          	auipc	x1,0xc17b4
    800007f8:	0101d013          	srli	x0,x3,0x10
    800007fc:	6013011b          	addiw	x2,x6,1537
    80000800:	0021d0bb          	srlw	x1,x3,x2
    80000804:	00409093          	slli	x1,x1,0x4
    80000808:	01361213          	slli	x4,x12,0x13
    8000080c:	54393137          	lui	x2,0x54393
    80000810:	40008137          	lui	x2,0x40008
    80000814:	00210133          	add	x2,x2,x2
    80000818:	f8613023          	sd	x6,-128(x2) # 40007f80 <_binary_lab3_extra_test_bin_size+0x3ffdf44c>
    8000081c:	0221513b          	divuw	x2,x2,x2
    80000820:	0221e13b          	remw	x2,x3,x2
    80000824:	4051013b          	subw	x2,x2,x5
    80000828:	400080b7          	lui	x1,0x40008
    8000082c:	001080b3          	add	x1,x1,x1
    80000830:	f880b203          	ld	x4,-120(x1) # 40007f88 <_binary_lab3_extra_test_bin_size+0x3ffdf454>
    80000834:	022140b3          	div	x1,x2,x2
    80000838:	01a11093          	slli	x1,x2,0x1a
    8000083c:	79c0c293          	xori	x5,x1,1948
    80000840:	22308e63          	beq	x1,x3,80000a7c <_binary_lab3_extra_test_bin_start+0xa7c>
    80000844:	238001ef          	jal	x3,80000a7c <_binary_lab3_extra_test_bin_start+0xa7c>
    80000848:	006161b3          	or	x3,x2,x6
    8000084c:	003160b3          	or	x1,x2,x3
    80000850:	0258d237          	lui	x4,0x258d
    80000854:	023040b3          	div	x1,x0,x3
    80000858:	40215133          	sra	x2,x2,x2
    8000085c:	ec01811b          	addiw	x2,x3,-320
    80000860:	b8b20193          	addi	x3,x4,-1141 # 258cb8b <_binary_lab3_extra_test_bin_size+0x2564057>
    80000864:	cc00811b          	addiw	x2,x1,-832
    80000868:	023080bb          	mulw	x1,x1,x3
    8000086c:	400081b7          	lui	x3,0x40008
    80000870:	003181b3          	add	x3,x3,x3
    80000874:	f8219723          	sh	x2,-114(x3) # 40007f8e <_binary_lab3_extra_test_bin_size+0x3ffdf45a>
    80000878:	0010e1b3          	or	x3,x1,x1
    8000087c:	ffe67117          	auipc	x2,0xffe67
    80000880:	00115333          	srl	x6,x2,x1
    80000884:	bb224193          	xori	x3,x4,-1102
    80000888:	400080b7          	lui	x1,0x40008
    8000088c:	001080b3          	add	x1,x1,x1
    80000890:	f860d283          	lhu	x5,-122(x1) # 40007f86 <_binary_lab3_extra_test_bin_size+0x3ffdf452>
    80000894:	20c18193          	addi	x3,x3,524
    80000898:	02e09a93          	slli	x21,x1,0x2e
    8000089c:	3f52b317          	auipc	x6,0x3f52b
    800008a0:	a93e5137          	lui	x2,0xa93e5
    800008a4:	256d7197          	auipc	x3,0x256d7
    800008a8:	a0e2f197          	auipc	x3,0xa0e2f
    800008ac:	023081b3          	mul	x3,x1,x3
    800008b0:	0241e1bb          	remw	x3,x3,x4
    800008b4:	023340b3          	div	x1,x6,x3
    800008b8:	0030c133          	xor	x2,x1,x3
    800008bc:	c8d16093          	ori	x1,x2,-883
    800008c0:	00048113          	mv	x2,x9
    800008c4:	a89100e3          	beq	x2,x9,80000344 <_binary_lab3_extra_test_bin_start+0x344>
    800008c8:	fd91f293          	andi	x5,x3,-39
    800008cc:	0260813b          	mulw	x2,x1,x6
    800008d0:	76e1009b          	addiw	x1,x2,1902 # ffffffffa93e576e <_binary_lab3_extra_test_bin_end+0xffffffff293bcc3a>
    800008d4:	00b3919b          	slliw	x3,x7,0xb
    800008d8:	0020d03b          	srlw	x0,x1,x2
    800008dc:	0201e1bb          	remw	x3,x3,x0
    800008e0:	0201d1b3          	divu	x3,x3,x0
    800008e4:	1180e193          	ori	x3,x1,280
    800008e8:	0033d09b          	srliw	x1,x7,0x3
    800008ec:	0010b133          	sltu	x2,x1,x1
    800008f0:	0234e7b3          	rem	x15,x9,x3
    800008f4:	73f16093          	ori	x1,x2,1855
    800008f8:	400084b7          	lui	x9,0x40008
    800008fc:	009484b3          	add	x9,x9,x9
    80000900:	f8249723          	sh	x2,-114(x9) # 40007f8e <_binary_lab3_extra_test_bin_size+0x3ffdf45a>
    80000904:	400080b7          	lui	x1,0x40008
    80000908:	001080b3          	add	x1,x1,x1
    8000090c:	f8a0d083          	lhu	x1,-118(x1) # 40007f8a <_binary_lab3_extra_test_bin_size+0x3ffdf456>
    80000910:	40008137          	lui	x2,0x40008
    80000914:	00210133          	add	x2,x2,x2
    80000918:	f8012223          	sw	x0,-124(x2) # 40007f84 <_binary_lab3_extra_test_bin_size+0x3ffdf450>
    8000091c:	0057f1b3          	and	x3,x15,x5
    80000920:	17fdf293          	andi	x5,x27,383
    80000924:	c591b113          	sltiu	x2,x3,-935
    80000928:	02b09193          	slli	x3,x1,0x2b
    8000092c:	40008137          	lui	x2,0x40008
    80000930:	00210133          	add	x2,x2,x2
    80000934:	f8112423          	sw	x1,-120(x2) # 40007f88 <_binary_lab3_extra_test_bin_size+0x3ffdf454>
    80000938:	400080b7          	lui	x1,0x40008
    8000093c:	001080b3          	add	x1,x1,x1
    80000940:	f83082a3          	sb	x3,-123(x1) # 40007f85 <_binary_lab3_extra_test_bin_size+0x3ffdf451>
    80000944:	400081b7          	lui	x3,0x40008
    80000948:	003181b3          	add	x3,x3,x3
    8000094c:	f881b383          	ld	x7,-120(x3) # 40007f88 <_binary_lab3_extra_test_bin_size+0x3ffdf454>
    80000950:	401150bb          	sraw	x1,x2,x1
    80000954:	003111b3          	sll	x3,x2,x3
    80000958:	14ba9297          	auipc	x5,0x14ba9
    8000095c:	86718093          	addi	x1,x3,-1945
    80000960:	8e1180e3          	beq	x3,x1,80000240 <_binary_lab3_extra_test_bin_start+0x240>
    80000964:	8ddff3ef          	jal	x7,80000240 <_binary_lab3_extra_test_bin_start+0x240>
    80000968:	40008337          	lui	x6,0x40008
    8000096c:	00630333          	add	x6,x6,x6
    80000970:	f8733023          	sd	x7,-128(x6) # 40007f80 <_binary_lab3_extra_test_bin_size+0x3ffdf44c>
    80000974:	003083bb          	addw	x7,x1,x3
    80000978:	0030909b          	slliw	x1,x1,0x3
    8000097c:	0011a133          	slt	x2,x3,x1
    80000980:	849640b7          	lui	x1,0x84964
    80000984:	023101bb          	mulw	x3,x2,x3
    80000988:	8a1af1b7          	lui	x3,0x8a1af
    8000098c:	4060d0bb          	sraw	x1,x1,x6
    80000990:	0220e0b3          	rem	x1,x1,x2
    80000994:	003130b3          	sltu	x1,x2,x3
    80000998:	0220e13b          	remw	x2,x1,x2
    8000099c:	400084b7          	lui	x9,0x40008
    800009a0:	009484b3          	add	x9,x9,x9
    800009a4:	f834b023          	sd	x3,-128(x9) # 40007f80 <_binary_lab3_extra_test_bin_size+0x3ffdf44c>
    800009a8:	0180d213          	srli	x4,x1,0x18
    800009ac:	40008137          	lui	x2,0x40008
    800009b0:	00210133          	add	x2,x2,x2
    800009b4:	f8813103          	ld	x2,-120(x2) # 40007f88 <_binary_lab3_extra_test_bin_size+0x3ffdf454>
    800009b8:	03431013          	slli	x0,x6,0x34
    800009bc:	8920b193          	sltiu	x3,x1,-1902
    800009c0:	010090bb          	sllw	x1,x1,x16
    800009c4:	73c1b193          	sltiu	x3,x3,1852
    800009c8:	2c9c28b7          	lui	x17,0x2c9c2
    800009cc:	023170b3          	remu	x1,x2,x3
    800009d0:	021142b3          	div	x5,x2,x1
    800009d4:	03b1d113          	srli	x2,x3,0x3b
    800009d8:	0360d193          	srli	x3,x1,0x36
    800009dc:	9a1a50b7          	lui	x1,0x9a1a5
    800009e0:	0041519b          	srliw	x3,x2,0x4
    800009e4:	20333197          	auipc	x3,0x20333
    800009e8:	00900263          	beq	x0,x9,800009ec <_binary_lab3_extra_test_bin_start+0x9ec>
    800009ec:	eb8ff0ef          	jal	800000a4 <_binary_lab3_extra_test_bin_start+0xa4>
    800009f0:	98fb019b          	addiw	x3,x22,-1649
    800009f4:	0031a0b3          	slt	x1,x3,x3
    800009f8:	400080b7          	lui	x1,0x40008
    800009fc:	001080b3          	add	x1,x1,x1
    80000a00:	f81087a3          	sb	x1,-113(x1) # 40007f8f <_binary_lab3_extra_test_bin_size+0x3ffdf45b>
    80000a04:	8ddca3b7          	lui	x7,0x8ddca
    80000a08:	8c21c293          	xori	x5,x3,-1854
    80000a0c:	40f3d133          	sra	x2,x7,x15
    80000a10:	f1c94137          	lui	x2,0xf1c94
    80000a14:	d190c113          	xori	x2,x1,-743
    80000a18:	80c1a117          	auipc	x2,0x80c1a
    80000a1c:	40d150b3          	sra	x1,x2,x13
    80000a20:	4061d033          	sra	x0,x3,x6
    80000a24:	023150b3          	divu	x1,x2,x3
    80000a28:	000380b3          	add	x1,x7,x0
    80000a2c:	400081b7          	lui	x3,0x40008
    80000a30:	003181b3          	add	x3,x3,x3
    80000a34:	f841b023          	sd	x4,-128(x3) # 40007f80 <_binary_lab3_extra_test_bin_size+0x3ffdf44c>
    80000a38:	0020c133          	xor	x2,x1,x2
    80000a3c:	01a0919b          	slliw	x3,x1,0x1a
    80000a40:	0268503b          	divuw	x0,x16,x6
    80000a44:	0240c03b          	divw	x0,x1,x4
    80000a48:	0020e133          	or	x2,x1,x2
    80000a4c:	0231013b          	mulw	x2,x2,x3
    80000a50:	ee314093          	xori	x1,x2,-285
    80000a54:	403151bb          	sraw	x3,x2,x3
    80000a58:	cd91809b          	addiw	x1,x3,-807
    80000a5c:	400081b7          	lui	x3,0x40008
    80000a60:	003181b3          	add	x3,x3,x3
    80000a64:	f8219523          	sh	x2,-118(x3) # 40007f8a <_binary_lab3_extra_test_bin_size+0x3ffdf456>
    80000a68:	00a2a1b3          	slt	x3,x5,x10
    80000a6c:	49f3011b          	addiw	x2,x6,1183
    80000a70:	00318133          	add	x2,x3,x3
    80000a74:	c22116e3          	bne	x2,x2,800006a0 <_binary_lab3_extra_test_bin_start+0x6a0>
    80000a78:	c22104e3          	beq	x2,x2,800006a0 <_binary_lab3_extra_test_bin_start+0x6a0>
    80000a7c:	400080b7          	lui	x1,0x40008
    80000a80:	001080b3          	add	x1,x1,x1
    80000a84:	f800b103          	ld	x2,-128(x1) # 40007f80 <_binary_lab3_extra_test_bin_size+0x3ffdf44c>
    80000a88:	0381d593          	srli	x11,x3,0x38
    80000a8c:	003091bb          	sllw	x3,x1,x3
    80000a90:	1327c197          	auipc	x3,0x1327c
    80000a94:	400080b7          	lui	x1,0x40008
    80000a98:	001080b3          	add	x1,x1,x1
    80000a9c:	f870b423          	sd	x7,-120(x1) # 40007f88 <_binary_lab3_extra_test_bin_size+0x3ffdf454>
    80000aa0:	b9406113          	ori	x2,x0,-1132
    80000aa4:	7732059b          	addiw	x11,x4,1907 # 773 <_binary_lab3_extra_test_bin_size-0x283c1>
    80000aa8:	efb0c793          	xori	x15,x1,-261
    80000aac:	2c872117          	auipc	x2,0x2c872
    80000ab0:	001121b3          	slt	x3,x2,x1
    80000ab4:	00215133          	srl	x2,x2,x2
    80000ab8:	c3e56137          	lui	x2,0xc3e56
    80000abc:	400080b7          	lui	x1,0x40008
    80000ac0:	001080b3          	add	x1,x1,x1
    80000ac4:	f8409623          	sh	x4,-116(x1) # 40007f8c <_binary_lab3_extra_test_bin_size+0x3ffdf458>
    80000ac8:	c454b237          	lui	x4,0xc454b
    80000acc:	400082b7          	lui	x5,0x40008
    80000ad0:	005282b3          	add	x5,x5,x5
    80000ad4:	f802b383          	ld	x7,-128(x5) # 40007f80 <_binary_lab3_extra_test_bin_size+0x3ffdf44c>
    80000ad8:	00c1d19b          	srliw	x3,x3,0xc
    80000adc:	0211f1bb          	remuw	x3,x3,x1
    80000ae0:	0243e1b3          	rem	x3,x7,x4
    80000ae4:	40008d37          	lui	x26,0x40008
    80000ae8:	01ad0d33          	add	x26,x26,x26
    80000aec:	f80d4c83          	lbu	x25,-128(x26) # 40007f80 <_binary_lab3_extra_test_bin_size+0x3ffdf44c>
    80000af0:	af53c0b7          	lui	x1,0xaf53c
    80000af4:	400081b7          	lui	x3,0x40008
    80000af8:	003181b3          	add	x3,x3,x3
    80000afc:	f8318183          	lb	x3,-125(x3) # 40007f83 <_binary_lab3_extra_test_bin_size+0x3ffdf44f>
    80000b00:	dc2084e3          	beq	x1,x2,800008c8 <_binary_lab3_extra_test_bin_start+0x8c8>
    80000b04:	dc5ff16f          	jal	x2,800008c8 <_binary_lab3_extra_test_bin_start+0x8c8>
    80000b08:	9e19d0b7          	lui	x1,0x9e19d
    80000b0c:	f7f8a0b7          	lui	x1,0xf7f8a
    80000b10:	8183b193          	sltiu	x3,x7,-2024
    80000b14:	0290c233          	div	x4,x1,x9
    80000b18:	004021b3          	sgtz	x3,x4
    80000b1c:	00718033          	add	x0,x3,x7
    80000b20:	0072c133          	xor	x2,x5,x7
    80000b24:	a2408113          	addi	x2,x1,-1500 # fffffffff7f89a24 <_binary_lab3_extra_test_bin_end+0xffffffff77f60ef0>
    80000b28:	38648337          	lui	x6,0x38648
    80000b2c:	021271bb          	remuw	x3,x4,x1
    80000b30:	00300133          	add	x2,x0,x3
    80000b34:	1d61f393          	andi	x7,x3,470
    80000b38:	400081b7          	lui	x3,0x40008
    80000b3c:	003181b3          	add	x3,x3,x3
    80000b40:	f821a023          	sw	x2,-128(x3) # 40007f80 <_binary_lab3_extra_test_bin_size+0x3ffdf44c>
    80000b44:	4141519b          	sraiw	x3,x2,0x14
    80000b48:	00d181b3          	add	x3,x3,x13
    80000b4c:	00f1a5b3          	slt	x11,x3,x15
    80000b50:	0b9df237          	lui	x4,0xb9df
    80000b54:	400080b7          	lui	x1,0x40008
    80000b58:	001080b3          	add	x1,x1,x1
    80000b5c:	f880b083          	ld	x1,-120(x1) # 40007f88 <_binary_lab3_extra_test_bin_size+0x3ffdf454>
    80000b60:	d1814693          	xori	x13,x2,-744
    80000b64:	401382bb          	subw	x5,x7,x1
    80000b68:	d69690b7          	lui	x1,0xd6969
    80000b6c:	40008837          	lui	x16,0x40008
    80000b70:	01080833          	add	x16,x16,x16
    80000b74:	f8083103          	ld	x2,-128(x16) # 40007f80 <_binary_lab3_extra_test_bin_size+0x3ffdf44c>
    80000b78:	0011813b          	addw	x2,x3,x1
    80000b7c:	4030d0bb          	sraw	x1,x1,x3
    80000b80:	0072111b          	slliw	x2,x4,0x7
    80000b84:	0233013b          	mulw	x2,x6,x3
    80000b88:	00008213          	mv	x4,x1
    80000b8c:	a0120ae3          	beq	x4,x1,800005a0 <_binary_lab3_extra_test_bin_start+0x5a0>
    80000b90:	40008137          	lui	x2,0x40008
    80000b94:	00210133          	add	x2,x2,x2
    80000b98:	f8215103          	lhu	x2,-126(x2) # 40007f82 <_binary_lab3_extra_test_bin_size+0x3ffdf44e>
    80000b9c:	001983b3          	add	x7,x19,x1
    80000ba0:	02e0d193          	srli	x3,x1,0x2e
    80000ba4:	40120033          	sub	x0,x4,x1
    80000ba8:	40008137          	lui	x2,0x40008
    80000bac:	00210133          	add	x2,x2,x2
    80000bb0:	f8b12023          	sw	x11,-128(x2) # 40007f80 <_binary_lab3_extra_test_bin_size+0x3ffdf44c>
    80000bb4:	400080b7          	lui	x1,0x40008
    80000bb8:	001080b3          	add	x1,x1,x1
    80000bbc:	f880b183          	ld	x3,-120(x1) # 40007f88 <_binary_lab3_extra_test_bin_size+0x3ffdf454>
    80000bc0:	400081b7          	lui	x3,0x40008
    80000bc4:	003181b3          	add	x3,x3,x3
    80000bc8:	f801b003          	ld	x0,-128(x3) # 40007f80 <_binary_lab3_extra_test_bin_size+0x3ffdf44c>
    80000bcc:	0220d0b3          	divu	x1,x1,x2
    80000bd0:	01b59d97          	auipc	x27,0x1b59
    80000bd4:	02158133          	mul	x2,x11,x1
    80000bd8:	f665f097          	auipc	x1,0xf665f
    80000bdc:	414fd21b          	sraiw	x4,x31,0x14
    80000be0:	23a46197          	auipc	x3,0x23a46
    80000be4:	26414193          	xori	x3,x2,612
    80000be8:	40008237          	lui	x4,0x40008
    80000bec:	00420233          	add	x4,x4,x4
    80000bf0:	f81202a3          	sb	x1,-123(x4) # 40007f85 <_binary_lab3_extra_test_bin_size+0x3ffdf451>
    80000bf4:	403186b3          	sub	x13,x3,x3
    80000bf8:	001111b3          	sll	x3,x2,x1
    80000bfc:	400082b7          	lui	x5,0x40008
    80000c00:	005282b3          	add	x5,x5,x5
    80000c04:	f802b203          	ld	x4,-128(x5) # 40007f80 <_binary_lab3_extra_test_bin_size+0x3ffdf44c>
    80000c08:	4010d1b3          	sra	x3,x1,x1
    80000c0c:	40008137          	lui	x2,0x40008
    80000c10:	00210133          	add	x2,x2,x2
    80000c14:	f8013083          	ld	x1,-128(x2) # 40007f80 <_binary_lab3_extra_test_bin_size+0x3ffdf44c>
    80000c18:	5e110e63          	beq	x2,x1,80001214 <_binary_lab3_extra_test_bin_start+0x1214>
    80000c1c:	5f80016f          	jal	x2,80001214 <_binary_lab3_extra_test_bin_start+0x1214>
    80000c20:	0251e13b          	remw	x2,x3,x5
    80000c24:	3cd1b193          	sltiu	x3,x3,973
    80000c28:	022086bb          	mulw	x13,x1,x2
    80000c2c:	0071119b          	slliw	x3,x2,0x7
    80000c30:	400081b7          	lui	x3,0x40008
    80000c34:	003181b3          	add	x3,x3,x3
    80000c38:	f821a223          	sw	x2,-124(x3) # 40007f84 <_binary_lab3_extra_test_bin_size+0x3ffdf450>
    80000c3c:	0210d0b3          	divu	x1,x1,x1
    80000c40:	40008b37          	lui	x22,0x40008
    80000c44:	016b0b33          	add	x22,x22,x22
    80000c48:	f82b3423          	sd	x2,-120(x22) # 40007f88 <_binary_lab3_extra_test_bin_size+0x3ffdf454>
    80000c4c:	40b3531b          	sraiw	x6,x6,0xb
    80000c50:	400081b7          	lui	x3,0x40008
    80000c54:	003181b3          	add	x3,x3,x3
    80000c58:	f831a623          	sw	x3,-116(x3) # 40007f8c <_binary_lab3_extra_test_bin_size+0x3ffdf458>
    80000c5c:	01619293          	slli	x5,x3,0x16
    80000c60:	0230d03b          	divuw	x0,x1,x3
    80000c64:	0057b1b3          	sltu	x3,x15,x5
    80000c68:	2c65a3b7          	lui	x7,0x2c65a
    80000c6c:	003141b3          	xor	x3,x2,x3
    80000c70:	6560801b          	addiw	x0,x1,1622 # 7666022e <_binary_lab3_extra_test_bin_size+0x766376fa>
    80000c74:	40310133          	sub	x2,x2,x3
    80000c78:	00119c9b          	slliw	x25,x3,0x1
    80000c7c:	023166bb          	remw	x13,x2,x3
    80000c80:	3741061b          	addiw	x12,x2,884
    80000c84:	022143b3          	div	x7,x2,x2
    80000c88:	aa70001b          	addiw	x0,x0,-1369
    80000c8c:	000b80bb          	addw	x1,x23,x0
    80000c90:	563e5737          	lui	x14,0x563e5
    80000c94:	20d0b093          	sltiu	x1,x1,525
    80000c98:	0070c833          	xor	x16,x1,x7
    80000c9c:	9e907093          	andi	x1,x0,-1559
    80000ca0:	0235c0bb          	divw	x1,x11,x3
    80000ca4:	00000317          	auipc	x6,0x0
    80000ca8:	008300e7          	jalr	8(x6) # 80000cac <_binary_lab3_extra_test_bin_start+0xcac>
    80000cac:	00b1d09b          	srliw	x1,x3,0xb
    80000cb0:	171c7097          	auipc	x1,0x171c7
    80000cb4:	4011d0b3          	sra	x1,x3,x1
    80000cb8:	00e380bb          	addw	x1,x7,x14
    80000cbc:	7db05117          	auipc	x2,0x7db05
    80000cc0:	40008137          	lui	x2,0x40008
    80000cc4:	00210133          	add	x2,x2,x2
    80000cc8:	f8112623          	sw	x1,-116(x2) # 40007f8c <_binary_lab3_extra_test_bin_size+0x3ffdf458>
    80000ccc:	0133d19b          	srliw	x3,x7,0x13
    80000cd0:	400080b7          	lui	x1,0x40008
    80000cd4:	001080b3          	add	x1,x1,x1
    80000cd8:	f830a423          	sw	x3,-120(x1) # 40007f88 <_binary_lab3_extra_test_bin_size+0x3ffdf454>
    80000cdc:	293b4597          	auipc	x11,0x293b4
    80000ce0:	021175b3          	remu	x11,x2,x1
    80000ce4:	40008137          	lui	x2,0x40008
    80000ce8:	00210133          	add	x2,x2,x2
    80000cec:	f8812303          	lw	x6,-120(x2) # 40007f88 <_binary_lab3_extra_test_bin_size+0x3ffdf454>
    80000cf0:	a7324193          	xori	x3,x4,-1421
    80000cf4:	00112133          	slt	x2,x2,x1
    80000cf8:	6edf23b7          	lui	x7,0x6edf2
    80000cfc:	5240839b          	addiw	x7,x1,1316
    80000d00:	0211723b          	remuw	x4,x2,x1
    80000d04:	400081b7          	lui	x3,0x40008
    80000d08:	003181b3          	add	x3,x3,x3
    80000d0c:	f8319423          	sh	x3,-120(x3) # 40007f88 <_binary_lab3_extra_test_bin_size+0x3ffdf454>
    80000d10:	54512213          	slti	x4,x2,1349
    80000d14:	402180b3          	sub	x1,x3,x2
    80000d18:	400300b3          	sub	x1,x6,x0
    80000d1c:	9354f017          	auipc	x0,0x9354f
    80000d20:	01619093          	slli	x1,x3,0x16
    80000d24:	0e211117          	auipc	x2,0xe211
    80000d28:	0250e0bb          	remw	x1,x1,x5
    80000d2c:	58018263          	beqz	x3,800012b0 <_binary_lab3_extra_test_bin_start+0x12b0>
    80000d30:	580000ef          	jal	800012b0 <_binary_lab3_extra_test_bin_start+0x12b0>
    80000d34:	400080b7          	lui	x1,0x40008
    80000d38:	001080b3          	add	x1,x1,x1
    80000d3c:	f810b023          	sd	x1,-128(x1) # 40007f80 <_binary_lab3_extra_test_bin_size+0x3ffdf44c>
    80000d40:	402101b3          	sub	x3,x2,x2
    80000d44:	eb4ce117          	auipc	x2,0xeb4ce
    80000d48:	b4b03313          	sltiu	x6,x0,-1205
    80000d4c:	03019013          	slli	x0,x3,0x30
    80000d50:	02715193          	srli	x3,x2,0x27
    80000d54:	58d1a013          	slti	x0,x3,1421
    80000d58:	d3202037          	lui	x0,0xd3202
    80000d5c:	400080b7          	lui	x1,0x40008
    80000d60:	001080b3          	add	x1,x1,x1
    80000d64:	f850b023          	sd	x5,-128(x1) # 40007f80 <_binary_lab3_extra_test_bin_size+0x3ffdf44c>
    80000d68:	40f181b3          	sub	x3,x3,x15
    80000d6c:	01019213          	slli	x4,x3,0x10
    80000d70:	48fd2197          	auipc	x3,0x48fd2
    80000d74:	400081b7          	lui	x3,0x40008
    80000d78:	003181b3          	add	x3,x3,x3
    80000d7c:	f871b423          	sd	x7,-120(x3) # 40007f88 <_binary_lab3_extra_test_bin_size+0x3ffdf454>
    80000d80:	ed20809b          	addiw	x1,x1,-302
    80000d84:	0030523b          	srlw	x4,x0,x3
    80000d88:	400084b7          	lui	x9,0x40008
    80000d8c:	009484b3          	add	x9,x9,x9
    80000d90:	f9e4b023          	sd	x30,-128(x9) # 40007f80 <_binary_lab3_extra_test_bin_size+0x3ffdf44c>
    80000d94:	35d3a397          	auipc	x7,0x35d3a
    80000d98:	7961b337          	lui	x6,0x7961b
    80000d9c:	40008137          	lui	x2,0x40008
    80000da0:	00210133          	add	x2,x2,x2
    80000da4:	f8213423          	sd	x2,-120(x2) # 40007f88 <_binary_lab3_extra_test_bin_size+0x3ffdf454>
    80000da8:	0235c13b          	divw	x2,x11,x3
    80000dac:	0111911b          	slliw	x2,x3,0x11
    80000db0:	00118463          	beq	x3,x1,80000db8 <_binary_lab3_extra_test_bin_start+0xdb8>
    80000db4:	0040016f          	jal	x2,80000db8 <_binary_lab3_extra_test_bin_start+0xdb8>
    80000db8:	5757e013          	ori	x0,x15,1397
    80000dbc:	40008137          	lui	x2,0x40008
    80000dc0:	00210133          	add	x2,x2,x2
    80000dc4:	f8013683          	ld	x13,-128(x2) # 40007f80 <_binary_lab3_extra_test_bin_size+0x3ffdf44c>
    80000dc8:	115a30b7          	lui	x1,0x115a3
    80000dcc:	1b8be697          	auipc	x13,0x1b8be
    80000dd0:	0002c0b3          	xor	x1,x5,x0
    80000dd4:	022171bb          	remuw	x3,x2,x2
    80000dd8:	65be5097          	auipc	x1,0x65be5
    80000ddc:	00b1959b          	slliw	x11,x3,0xb
    80000de0:	001165b3          	or	x11,x2,x1
    80000de4:	20451197          	auipc	x3,0x20451
    80000de8:	03307013          	andi	x0,x0,51
    80000dec:	0231f03b          	remuw	x0,x3,x3
    80000df0:	599c8017          	auipc	x0,0x599c8
    80000df4:	40008137          	lui	x2,0x40008
    80000df8:	00210133          	add	x2,x2,x2
    80000dfc:	f8213023          	sd	x2,-128(x2) # 40007f80 <_binary_lab3_extra_test_bin_size+0x3ffdf44c>
    80000e00:	0221e13b          	remw	x2,x3,x2
    80000e04:	02d0d193          	srli	x3,x1,0x2d
    80000e08:	002121b3          	slt	x3,x2,x2
    80000e0c:	400081b7          	lui	x3,0x40008
    80000e10:	003181b3          	add	x3,x3,x3
    80000e14:	f801e083          	lwu	x1,-128(x3) # 40007f80 <_binary_lab3_extra_test_bin_size+0x3ffdf44c>
    80000e18:	0004913b          	sllw	x2,x9,x0
    80000e1c:	0123d11b          	srliw	x2,x7,0x12
    80000e20:	117e5297          	auipc	x5,0x117e5
    80000e24:	d1713193          	sltiu	x3,x2,-745
    80000e28:	40008137          	lui	x2,0x40008
    80000e2c:	00210133          	add	x2,x2,x2
    80000e30:	f8211083          	lh	x1,-126(x2) # 40007f82 <_binary_lab3_extra_test_bin_size+0x3ffdf44e>
    80000e34:	405ad0bb          	sraw	x1,x21,x5
    80000e38:	0e50a013          	slti	x0,x1,229
    80000e3c:	00000093          	li	x1,0
    80000e40:	7c008863          	beqz	x1,80001610 <_binary_lab3_extra_test_bin_start+0x1610>
    80000e44:	40008137          	lui	x2,0x40008
    80000e48:	00210133          	add	x2,x2,x2
    80000e4c:	f8514203          	lbu	x4,-123(x2) # 40007f85 <_binary_lab3_extra_test_bin_size+0x3ffdf451>
    80000e50:	36f0d097          	auipc	x1,0x36f0d
    80000e54:	4cd980b7          	lui	x1,0x4cd98
    80000e58:	01a3b133          	sltu	x2,x7,x26
    80000e5c:	400082b7          	lui	x5,0x40008
    80000e60:	005282b3          	add	x5,x5,x5
    80000e64:	f8128323          	sb	x1,-122(x5) # 40007f86 <_binary_lab3_extra_test_bin_size+0x3ffdf452>
    80000e68:	400080b7          	lui	x1,0x40008
    80000e6c:	001080b3          	add	x1,x1,x1
    80000e70:	f880a083          	lw	x1,-120(x1) # 40007f88 <_binary_lab3_extra_test_bin_size+0x3ffdf454>
    80000e74:	4018d0bb          	sraw	x1,x17,x1
    80000e78:	00118133          	add	x2,x3,x1
    80000e7c:	312e3297          	auipc	x5,0x312e3
    80000e80:	0023023b          	addw	x4,x6,x2
    80000e84:	022081b3          	mul	x3,x1,x2
    80000e88:	02017c3b          	remuw	x24,x2,x0
    80000e8c:	00f10233          	add	x4,x2,x15
    80000e90:	00419113          	slli	x2,x3,0x4
    80000e94:	40008137          	lui	x2,0x40008
    80000e98:	00210133          	add	x2,x2,x2
    80000e9c:	f8310523          	sb	x3,-118(x2) # 40007f8a <_binary_lab3_extra_test_bin_size+0x3ffdf456>
    80000ea0:	0240e0bb          	remw	x1,x1,x4
    80000ea4:	01e3911b          	slliw	x2,x7,0x1e
    80000ea8:	00316133          	or	x2,x2,x3
    80000eac:	01a1d593          	srli	x11,x3,0x1a
    80000eb0:	0030f5b3          	and	x11,x1,x3
    80000eb4:	40008237          	lui	x4,0x40008
    80000eb8:	00420233          	add	x4,x4,x4
    80000ebc:	f8b24103          	lbu	x2,-117(x4) # 40007f8b <_binary_lab3_extra_test_bin_size+0x3ffdf457>
    80000ec0:	031141b3          	div	x3,x2,x17
    80000ec4:	6ac12193          	slti	x3,x2,1708
    80000ec8:	8407f097          	auipc	x1,0x8407f
    80000ecc:	001167b3          	or	x15,x2,x1
    80000ed0:	000581bb          	addw	x3,x11,x0
    80000ed4:	46227263          	bgeu	x4,x2,80001338 <_binary_lab3_extra_test_bin_start+0x1338>
    80000ed8:	46226063          	bltu	x4,x2,80001338 <_binary_lab3_extra_test_bin_start+0x1338>
    80000edc:	00119193          	slli	x3,x3,0x1
    80000ee0:	4021d13b          	sraw	x2,x3,x2
    80000ee4:	79b1a017          	auipc	x0,0x79b1a
    80000ee8:	005240b3          	xor	x1,x4,x5
    80000eec:	40008137          	lui	x2,0x40008
    80000ef0:	00210133          	add	x2,x2,x2
    80000ef4:	f8e14083          	lbu	x1,-114(x2) # 40007f8e <_binary_lab3_extra_test_bin_size+0x3ffdf45a>
    80000ef8:	026172bb          	remuw	x5,x2,x6
    80000efc:	0111931b          	slliw	x6,x3,0x11
    80000f00:	400083b7          	lui	x7,0x40008
    80000f04:	007383b3          	add	x7,x7,x7
    80000f08:	f803a083          	lw	x1,-128(x7) # 40007f80 <_binary_lab3_extra_test_bin_size+0x3ffdf44c>
    80000f0c:	0031e0b3          	or	x1,x3,x3
    80000f10:	00539493          	slli	x9,x7,0x5
    80000f14:	00b09193          	slli	x3,x1,0xb
    80000f18:	02316233          	rem	x4,x2,x3
    80000f1c:	006ac017          	auipc	x0,0x6ac
    80000f20:	0030e0b3          	or	x1,x1,x3
    80000f24:	0000af33          	sltz	x30,x1
    80000f28:	41e000b3          	neg	x1,x30
    80000f2c:	03539113          	slli	x2,x7,0x35
    80000f30:	02218133          	mul	x2,x3,x2
    80000f34:	400080b7          	lui	x1,0x40008
    80000f38:	001080b3          	add	x1,x1,x1
    80000f3c:	f83086a3          	sb	x3,-115(x1) # 40007f8d <_binary_lab3_extra_test_bin_size+0x3ffdf459>
    80000f40:	0227e0bb          	remw	x1,x15,x2
    80000f44:	401000bb          	negw	x1,x1
    80000f48:	022350b3          	divu	x1,x6,x2
    80000f4c:	01c31393          	slli	x7,x6,0x1c
    80000f50:	0020f033          	and	x0,x1,x2
    80000f54:	0361c23b          	divw	x4,x3,x22
    80000f58:	0079129b          	slliw	x5,x18,0x7
    80000f5c:	00e1e693          	ori	x13,x3,14
    80000f60:	fd50809b          	addiw	x1,x1,-43
    80000f64:	4033d1b3          	sra	x3,x7,x3
    80000f68:	00000617          	auipc	x12,0x0
    80000f6c:	11060167          	jalr	x2,272(x12) # 80001078 <_binary_lab3_extra_test_bin_start+0x1078>
    80000f70:	02210cb3          	mul	x25,x2,x2
    80000f74:	003181b3          	add	x3,x3,x3
    80000f78:	400080b7          	lui	x1,0x40008
    80000f7c:	001080b3          	add	x1,x1,x1
    80000f80:	f8c0d083          	lhu	x1,-116(x1) # 40007f8c <_binary_lab3_extra_test_bin_size+0x3ffdf458>
    80000f84:	002110bb          	sllw	x1,x2,x2
    80000f88:	ab82f193          	andi	x3,x5,-1352
    80000f8c:	0200d133          	divu	x2,x1,x0
    80000f90:	0060b133          	sltu	x2,x1,x6
    80000f94:	82386117          	auipc	x2,0x82386
    80000f98:	a695d2b7          	lui	x5,0xa695d
    80000f9c:	40008137          	lui	x2,0x40008
    80000fa0:	00210133          	add	x2,x2,x2
    80000fa4:	f8313423          	sd	x3,-120(x2) # 40007f88 <_binary_lab3_extra_test_bin_size+0x3ffdf454>
    80000fa8:	400080b7          	lui	x1,0x40008
    80000fac:	001080b3          	add	x1,x1,x1
    80000fb0:	f81081a3          	sb	x1,-125(x1) # 40007f83 <_binary_lab3_extra_test_bin_size+0x3ffdf44f>
    80000fb4:	401181bb          	subw	x3,x3,x1
    80000fb8:	40f0d193          	srai	x3,x1,0xf
    80000fbc:	0237f1bb          	remuw	x3,x15,x3
    80000fc0:	0235f0bb          	remuw	x1,x11,x3
    80000fc4:	c7df7397          	auipc	x7,0xc7df7
    80000fc8:	400080b7          	lui	x1,0x40008
    80000fcc:	001080b3          	add	x1,x1,x1
    80000fd0:	f800d183          	lhu	x3,-128(x1) # 40007f80 <_binary_lab3_extra_test_bin_size+0x3ffdf44c>
    80000fd4:	00108933          	add	x18,x1,x1
    80000fd8:	02215133          	divu	x2,x2,x2
    80000fdc:	006001b3          	add	x3,x0,x6
    80000fe0:	4000d133          	sra	x2,x1,x0
    80000fe4:	b5b18317          	auipc	x6,0xb5b18
    80000fe8:	003331b3          	sltu	x3,x6,x3
    80000fec:	4e20d863          	bge	x1,x2,800014dc <_binary_lab3_extra_test_bin_start+0x14dc>
    80000ff0:	4e20c663          	blt	x1,x2,800014dc <_binary_lab3_extra_test_bin_start+0x14dc>
    80000ff4:	400081b7          	lui	x3,0x40008
    80000ff8:	003181b3          	add	x3,x3,x3
    80000ffc:	f8e19103          	lh	x2,-114(x3) # 40007f8e <_binary_lab3_extra_test_bin_size+0x3ffdf45a>
    80001000:	400080b7          	lui	x1,0x40008
    80001004:	001080b3          	add	x1,x1,x1
    80001008:	f820b423          	sd	x2,-120(x1) # 40007f88 <_binary_lab3_extra_test_bin_size+0x3ffdf454>
    8000100c:	e3b1e393          	ori	x7,x3,-453
    80001010:	40008137          	lui	x2,0x40008
    80001014:	00210133          	add	x2,x2,x2
    80001018:	f8312223          	sw	x3,-124(x2) # 40007f84 <_binary_lab3_extra_test_bin_size+0x3ffdf450>
    8000101c:	81423093          	sltiu	x1,x4,-2028
    80001020:	022170b3          	remu	x1,x2,x2
    80001024:	02236233          	rem	x4,x6,x2
    80001028:	00314033          	xor	x0,x2,x3
    8000102c:	fdf10293          	addi	x5,x2,-33
    80001030:	40008137          	lui	x2,0x40008
    80001034:	00210133          	add	x2,x2,x2
    80001038:	f8c12183          	lw	x3,-116(x2) # 40007f8c <_binary_lab3_extra_test_bin_size+0x3ffdf458>
    8000103c:	0232c33b          	divw	x6,x5,x3
    80001040:	dee0e513          	ori	x10,x1,-530
    80001044:	00213133          	sltu	x2,x2,x2
    80001048:	03569093          	slli	x1,x13,0x35
    8000104c:	02f141bb          	divw	x3,x2,x15
    80001050:	40008137          	lui	x2,0x40008
    80001054:	00210133          	add	x2,x2,x2
    80001058:	f8813183          	ld	x3,-120(x2) # 40007f88 <_binary_lab3_extra_test_bin_size+0x3ffdf454>
    8000105c:	02d171bb          	remuw	x3,x2,x13
    80001060:	5023b213          	sltiu	x4,x7,1282
    80001064:	0221633b          	remw	x6,x2,x2
    80001068:	e997a097          	auipc	x1,0xe997a
    8000106c:	022372bb          	remuw	x5,x6,x2
    80001070:	00010a13          	mv	x20,x2
    80001074:	4e2a0c63          	beq	x20,x2,8000156c <_binary_lab3_extra_test_bin_start+0x156c>
    80001078:	03811193          	slli	x3,x2,0x38
    8000107c:	400080b7          	lui	x1,0x40008
    80001080:	001080b3          	add	x1,x1,x1
    80001084:	f800b183          	ld	x3,-128(x1) # 40007f80 <_binary_lab3_extra_test_bin_size+0x3ffdf44c>
    80001088:	40008137          	lui	x2,0x40008
    8000108c:	00210133          	add	x2,x2,x2
    80001090:	f8813303          	ld	x6,-120(x2) # 40007f88 <_binary_lab3_extra_test_bin_size+0x3ffdf454>
    80001094:	94231097          	auipc	x1,0x94231
    80001098:	0081909b          	slliw	x1,x3,0x8
    8000109c:	f2177817          	auipc	x16,0xf2177
    800010a0:	00108033          	add	x0,x1,x1
    800010a4:	003161b3          	or	x3,x2,x3
    800010a8:	0001013b          	addw	x2,x2,x0
    800010ac:	8d6801b7          	lui	x3,0x8d680
    800010b0:	006083bb          	addw	x7,x1,x6
    800010b4:	bfce5117          	auipc	x2,0xbfce5
    800010b8:	007152bb          	srlw	x5,x2,x7
    800010bc:	4032d2b3          	sra	x5,x5,x3
    800010c0:	43e15193          	srai	x3,x2,0x3e
    800010c4:	43440197          	auipc	x3,0x43440
    800010c8:	0211813b          	mulw	x2,x3,x1
    800010cc:	400080b7          	lui	x1,0x40008
    800010d0:	001080b3          	add	x1,x1,x1
    800010d4:	f830a023          	sw	x3,-128(x1) # 40007f80 <_binary_lab3_extra_test_bin_size+0x3ffdf44c>
    800010d8:	40008137          	lui	x2,0x40008
    800010dc:	00210133          	add	x2,x2,x2
    800010e0:	f8313023          	sd	x3,-128(x2) # 40007f80 <_binary_lab3_extra_test_bin_size+0x3ffdf44c>
    800010e4:	ce3c5117          	auipc	x2,0xce3c5
    800010e8:	0230c1bb          	divw	x3,x1,x3
    800010ec:	7c830013          	addi	x0,x6,1992 # 35b197ac <_binary_lab3_extra_test_bin_size+0x35af0c78>
    800010f0:	0010d0b3          	srl	x1,x1,x1
    800010f4:	f3935397          	auipc	x7,0xf3935
    800010f8:	d680e393          	ori	x7,x1,-664
    800010fc:	401100bb          	subw	x1,x2,x1
    80001100:	4001533b          	sraw	x6,x2,x0
    80001104:	00010113          	mv	x2,x2
    80001108:	b0210ce3          	beq	x2,x2,80000c20 <_binary_lab3_extra_test_bin_start+0xc20>
    8000110c:	003150bb          	srlw	x1,x2,x3
    80001110:	0194d19b          	srliw	x3,x9,0x19
    80001114:	0180d313          	srli	x6,x1,0x18
    80001118:	0261e0b3          	rem	x1,x3,x6
    8000111c:	0121119b          	slliw	x3,x2,0x12
    80001120:	af017113          	andi	x2,x2,-1296
    80001124:	02200133          	mul	x2,x0,x2
    80001128:	02316133          	rem	x2,x2,x3
    8000112c:	400080b7          	lui	x1,0x40008
    80001130:	001080b3          	add	x1,x1,x1
    80001134:	f880b103          	ld	x2,-120(x1) # 40007f88 <_binary_lab3_extra_test_bin_size+0x3ffdf454>
    80001138:	5fc2d237          	lui	x4,0x5fc2d
    8000113c:	40115133          	sra	x2,x2,x1
    80001140:	028251bb          	divuw	x3,x4,x8
    80001144:	403081b3          	sub	x3,x1,x3
    80001148:	023180bb          	mulw	x1,x3,x3
    8000114c:	40c0d0bb          	sraw	x1,x1,x12
    80001150:	02217133          	remu	x2,x2,x2
    80001154:	e21a9137          	lui	x2,0xe21a9
    80001158:	00617133          	and	x2,x2,x6
    8000115c:	40008137          	lui	x2,0x40008
    80001160:	00210133          	add	x2,x2,x2
    80001164:	f8210623          	sb	x2,-116(x2) # 40007f8c <_binary_lab3_extra_test_bin_size+0x3ffdf458>
    80001168:	66013193          	sltiu	x3,x2,1632
    8000116c:	0171939b          	slliw	x7,x3,0x17
    80001170:	403100b3          	sub	x1,x2,x3
    80001174:	400080b7          	lui	x1,0x40008
    80001178:	001080b3          	add	x1,x1,x1
    8000117c:	f86082a3          	sb	x6,-123(x1) # 40007f85 <_binary_lab3_extra_test_bin_size+0x3ffdf451>
    80001180:	ba418ae3          	beq	x3,x4,80000d34 <_binary_lab3_extra_test_bin_start+0xd34>
    80001184:	bb1ff0ef          	jal	80000d34 <_binary_lab3_extra_test_bin_start+0xd34>
    80001188:	a0208093          	addi	x1,x1,-1534
    8000118c:	40008137          	lui	x2,0x40008
    80001190:	00210133          	add	x2,x2,x2
    80001194:	f8c15083          	lhu	x1,-116(x2) # 40007f8c <_binary_lab3_extra_test_bin_size+0x3ffdf458>
    80001198:	51d6b137          	lui	x2,0x51d6b
    8000119c:	0020e133          	or	x2,x1,x2
    800011a0:	b33222b7          	lui	x5,0xb3322
    800011a4:	40008137          	lui	x2,0x40008
    800011a8:	00210133          	add	x2,x2,x2
    800011ac:	f8213023          	sd	x2,-128(x2) # 40007f80 <_binary_lab3_extra_test_bin_size+0x3ffdf44c>
    800011b0:	0030a133          	slt	x2,x1,x3
    800011b4:	0251f1bb          	remuw	x3,x3,x5
    800011b8:	005101b3          	add	x3,x2,x5
    800011bc:	003c4133          	xor	x2,x24,x3
    800011c0:	4021d0b3          	sra	x1,x3,x2
    800011c4:	400083b7          	lui	x7,0x40008
    800011c8:	007383b3          	add	x7,x7,x7
    800011cc:	f82384a3          	sb	x2,-119(x7) # 40007f89 <_binary_lab3_extra_test_bin_size+0x3ffdf455>
    800011d0:	4030d13b          	sraw	x2,x1,x3
    800011d4:	4711011b          	addiw	x2,x2,1137
    800011d8:	84ca25b7          	lui	x11,0x84ca2
    800011dc:	40008137          	lui	x2,0x40008
    800011e0:	00210133          	add	x2,x2,x2
    800011e4:	f8211523          	sh	x2,-118(x2) # 40007f8a <_binary_lab3_extra_test_bin_size+0x3ffdf456>
    800011e8:	40f1d21b          	sraiw	x4,x3,0xf
    800011ec:	33c4e097          	auipc	x1,0x33c4e
    800011f0:	022280b3          	mul	x1,x5,x2
    800011f4:	93c3d217          	auipc	x4,0x93c3d
    800011f8:	004181bb          	addw	x3,x3,x4
    800011fc:	02119313          	slli	x6,x3,0x21
    80001200:	5c003117          	auipc	x2,0x5c003
    80001204:	a4f7d0b7          	lui	x1,0xa4f7d
    80001208:	00809313          	slli	x6,x1,0x8
    8000120c:	f02080e3          	beq	x1,x2,8000110c <_binary_lab3_extra_test_bin_start+0x110c>
    80001210:	efdff7ef          	jal	x15,8000110c <_binary_lab3_extra_test_bin_start+0x110c>
    80001214:	0043e1b3          	or	x3,x7,x4
    80001218:	001031b3          	snez	x3,x1
    8000121c:	0213e4b3          	rem	x9,x7,x1
    80001220:	006070b3          	and	x1,x0,x6
    80001224:	4031d0bb          	sraw	x1,x3,x3
    80001228:	cf008193          	addi	x3,x1,-784 # ffffffffa4f7ccf0 <_binary_lab3_extra_test_bin_end+0xffffffff24f541bc>
    8000122c:	d8894397          	auipc	x7,0xd8894
    80001230:	4c30a193          	slti	x3,x1,1219
    80001234:	93841237          	lui	x4,0x93841
    80001238:	0021d133          	srl	x2,x3,x2
    8000123c:	4023519b          	sraiw	x3,x6,0x2
    80001240:	7ad14193          	xori	x3,x2,1965
    80001244:	400081b7          	lui	x3,0x40008
    80001248:	003181b3          	add	x3,x3,x3
    8000124c:	f9b18123          	sb	x27,-126(x3) # 40007f82 <_binary_lab3_extra_test_bin_size+0x3ffdf44e>
    80001250:	96dbf097          	auipc	x1,0x96dbf
    80001254:	a93c4097          	auipc	x1,0xa93c4
    80001258:	681a6117          	auipc	x2,0x681a6
    8000125c:	0060d0b3          	srl	x1,x1,x6
    80001260:	002093b3          	sll	x7,x1,x2
    80001264:	400080b7          	lui	x1,0x40008
    80001268:	001080b3          	add	x1,x1,x1
    8000126c:	f800b083          	ld	x1,-128(x1) # 40007f80 <_binary_lab3_extra_test_bin_size+0x3ffdf44c>
    80001270:	014cd293          	srli	x5,x25,0x14
    80001274:	07e2811b          	addiw	x2,x5,126 # ffffffffb332207e <_binary_lab3_extra_test_bin_end+0xffffffff332f954a>
    80001278:	4110d31b          	sraiw	x6,x1,0x11
    8000127c:	9bcb9017          	auipc	x0,0x9bcb9
    80001280:	01c0911b          	slliw	x2,x1,0x1c
    80001284:	a0514313          	xori	x6,x2,-1531
    80001288:	ff946193          	ori	x3,x8,-7
    8000128c:	69433093          	sltiu	x1,x6,1684
    80001290:	400080b7          	lui	x1,0x40008
    80001294:	001080b3          	add	x1,x1,x1
    80001298:	f830b023          	sd	x3,-128(x1) # 40007f80 <_binary_lab3_extra_test_bin_size+0x3ffdf44c>
    8000129c:	0010a0b3          	slt	x1,x1,x1
    800012a0:	02204133          	div	x2,x0,x2
    800012a4:	89018113          	addi	x2,x3,-1904
    800012a8:	00310263          	beq	x2,x3,800012ac <_binary_lab3_extra_test_bin_start+0x12ac>
    800012ac:	455001ef          	jal	x3,80001f00 <_binary_lab3_extra_test_bin_start+0x1f00>
    800012b0:	0001d21b          	srliw	x4,x3,0x0
    800012b4:	0211e03b          	remw	x0,x3,x1
    800012b8:	5c457237          	lui	x4,0x5c457
    800012bc:	40008137          	lui	x2,0x40008
    800012c0:	00210133          	add	x2,x2,x2
    800012c4:	f8013183          	ld	x3,-128(x2) # 40007f80 <_binary_lab3_extra_test_bin_size+0x3ffdf44c>
    800012c8:	031200bb          	mulw	x1,x4,x17
    800012cc:	40008137          	lui	x2,0x40008
    800012d0:	00210133          	add	x2,x2,x2
    800012d4:	f8813083          	ld	x1,-120(x2) # 40007f88 <_binary_lab3_extra_test_bin_size+0x3ffdf454>
    800012d8:	0182f097          	auipc	x1,0x182f
    800012dc:	02717133          	remu	x2,x2,x7
    800012e0:	022301b3          	mul	x3,x6,x2
    800012e4:	0081911b          	slliw	x2,x3,0x8
    800012e8:	4011a393          	slti	x7,x3,1025
    800012ec:	0040a3b3          	slt	x7,x1,x4
    800012f0:	fbf2e117          	auipc	x2,0xfbf2e
    800012f4:	400081b7          	lui	x3,0x40008
    800012f8:	003181b3          	add	x3,x3,x3
    800012fc:	f8818183          	lb	x3,-120(x3) # 40007f88 <_binary_lab3_extra_test_bin_size+0x3ffdf454>
    80001300:	35e4c237          	lui	x4,0x35e4c
    80001304:	002203b3          	add	x7,x4,x2
    80001308:	2eeb00b7          	lui	x1,0x2eeb0
    8000130c:	3670b313          	sltiu	x6,x1,871
    80001310:	400080b7          	lui	x1,0x40008
    80001314:	001080b3          	add	x1,x1,x1
    80001318:	f8c0e103          	lwu	x2,-116(x1) # 40007f8c <_binary_lab3_extra_test_bin_size+0x3ffdf458>
    8000131c:	400080b7          	lui	x1,0x40008
    80001320:	001080b3          	add	x1,x1,x1
    80001324:	f800b183          	ld	x3,-128(x1) # 40007f80 <_binary_lab3_extra_test_bin_size+0x3ffdf44c>
    80001328:	0253c0b3          	div	x1,x7,x5
    8000132c:	2f81019b          	addiw	x3,x2,760 # 7bf2f5e8 <_binary_lab3_extra_test_bin_size+0x7bf06ab4>
    80001330:	cc71d2e3          	bge	x3,x7,80000ff4 <_binary_lab3_extra_test_bin_start+0xff4>
    80001334:	cc71c0e3          	blt	x3,x7,80000ff4 <_binary_lab3_extra_test_bin_start+0xff4>
    80001338:	0230e13b          	remw	x2,x1,x3
    8000133c:	40008237          	lui	x4,0x40008
    80001340:	00420233          	add	x4,x4,x4
    80001344:	f8823183          	ld	x3,-120(x4) # 40007f88 <_binary_lab3_extra_test_bin_size+0x3ffdf454>
    80001348:	79700213          	li	x4,1943
    8000134c:	40008133          	sub	x2,x1,x0
    80001350:	4011d1bb          	sraw	x3,x3,x1
    80001354:	0002f1b3          	and	x3,x5,x0
    80001358:	7e117113          	andi	x2,x2,2017
    8000135c:	001190bb          	sllw	x1,x3,x1
    80001360:	fb816293          	ori	x5,x2,-72
    80001364:	7a70c493          	xori	x9,x1,1959
    80001368:	0021013b          	addw	x2,x2,x2
    8000136c:	0222d1bb          	divuw	x3,x5,x2
    80001370:	00b092bb          	sllw	x5,x1,x11
    80001374:	99803e93          	sltiu	x29,x0,-1640
    80001378:	cce02237          	lui	x4,0xcce02
    8000137c:	b7c92137          	lui	x2,0xb7c92
    80001380:	40008137          	lui	x2,0x40008
    80001384:	00210133          	add	x2,x2,x2
    80001388:	f8213023          	sd	x2,-128(x2) # 40007f80 <_binary_lab3_extra_test_bin_size+0x3ffdf44c>
    8000138c:	858d4117          	auipc	x2,0x858d4
    80001390:	006082bb          	addw	x5,x1,x6
    80001394:	40008137          	lui	x2,0x40008
    80001398:	00210133          	add	x2,x2,x2
    8000139c:	f8613023          	sd	x6,-128(x2) # 40007f80 <_binary_lab3_extra_test_bin_size+0x3ffdf44c>
    800013a0:	400087b7          	lui	x15,0x40008
    800013a4:	00f787b3          	add	x15,x15,x15
    800013a8:	f807b183          	ld	x3,-128(x15) # 40007f80 <_binary_lab3_extra_test_bin_size+0x3ffdf44c>
    800013ac:	400080b7          	lui	x1,0x40008
    800013b0:	001080b3          	add	x1,x1,x1
    800013b4:	f850b423          	sd	x5,-120(x1) # 40007f88 <_binary_lab3_extra_test_bin_size+0x3ffdf454>
    800013b8:	ee07c137          	lui	x2,0xee07c
    800013bc:	004081b3          	add	x3,x1,x4
    800013c0:	b0218ee3          	beq	x3,x2,80000edc <_binary_lab3_extra_test_bin_start+0xedc>
    800013c4:	b19ff36f          	jal	x6,80000edc <_binary_lab3_extra_test_bin_start+0xedc>
    800013c8:	8d2d0137          	lui	x2,0x8d2d0
    800013cc:	01f19093          	slli	x1,x3,0x1f
    800013d0:	03f11093          	slli	x1,x2,0x3f
    800013d4:	bd124117          	auipc	x2,0xbd124
    800013d8:	0091e0b3          	or	x1,x3,x9
    800013dc:	0201e73b          	remw	x14,x3,x0
    800013e0:	00d17113          	andi	x2,x2,13
    800013e4:	0020b233          	sltu	x4,x1,x2
    800013e8:	0000b0b3          	sltu	x1,x1,x0
    800013ec:	e531f193          	andi	x3,x3,-429
    800013f0:	003130b3          	sltu	x1,x2,x3
    800013f4:	0020f0b3          	and	x1,x1,x2
    800013f8:	b340c193          	xori	x3,x1,-1228
    800013fc:	892de497          	auipc	x9,0x892de
    80001400:	ee314313          	xori	x6,x2,-285
    80001404:	54653097          	auipc	x1,0x54653
    80001408:	89de24b7          	lui	x9,0x89de2
    8000140c:	85c1f193          	andi	x3,x3,-1956
    80001410:	4033d13b          	sraw	x2,x7,x3
    80001414:	dffeb617          	auipc	x12,0xdffeb
    80001418:	c821819b          	addiw	x3,x3,-894
    8000141c:	001191bb          	sllw	x3,x3,x1
    80001420:	6942a093          	slti	x1,x5,1684
    80001424:	400080b7          	lui	x1,0x40008
    80001428:	001080b3          	add	x1,x1,x1
    8000142c:	f800b183          	ld	x3,-128(x1) # 40007f80 <_binary_lab3_extra_test_bin_size+0x3ffdf44c>
    80001430:	40c2511b          	sraiw	x2,x4,0xc
    80001434:	0267c13b          	divw	x2,x15,x6
    80001438:	003153b3          	srl	x7,x2,x3
    8000143c:	40008137          	lui	x2,0x40008
    80001440:	00210133          	add	x2,x2,x2
    80001444:	f8513023          	sd	x5,-128(x2) # 40007f80 <_binary_lab3_extra_test_bin_size+0x3ffdf44c>
    80001448:	00718263          	beq	x3,x7,8000144c <_binary_lab3_extra_test_bin_start+0x144c>
    8000144c:	f44ff16f          	jal	x2,80000b90 <_binary_lab3_extra_test_bin_start+0xb90>
    80001450:	01e0d093          	srli	x1,x1,0x1e
    80001454:	b5554097          	auipc	x1,0xb5554
    80001458:	003100bb          	addw	x1,x2,x3
    8000145c:	007310bb          	sllw	x1,x6,x7
    80001460:	024361b3          	rem	x3,x6,x4
    80001464:	02e01213          	slli	x4,x0,0x2e
    80001468:	003160b3          	or	x1,x2,x3
    8000146c:	3ea0c093          	xori	x1,x1,1002
    80001470:	0021913b          	sllw	x2,x3,x2
    80001474:	401151b3          	sra	x3,x2,x1
    80001478:	42b35193          	srai	x3,x6,0x2b
    8000147c:	40008137          	lui	x2,0x40008
    80001480:	00210133          	add	x2,x2,x2
    80001484:	f8013203          	ld	x4,-128(x2) # 40007f80 <_binary_lab3_extra_test_bin_size+0x3ffdf44c>
    80001488:	0252e0b3          	rem	x1,x5,x5
    8000148c:	4183d09b          	sraiw	x1,x7,0x18
    80001490:	400080b7          	lui	x1,0x40008
    80001494:	001080b3          	add	x1,x1,x1
    80001498:	f800b383          	ld	x7,-128(x1) # 40007f80 <_binary_lab3_extra_test_bin_size+0x3ffdf44c>
    8000149c:	d75db2b7          	lui	x5,0xd75db
    800014a0:	401181bb          	subw	x3,x3,x1
    800014a4:	41017113          	andi	x2,x2,1040
    800014a8:	0070f1b3          	and	x3,x1,x7
    800014ac:	cef1009b          	addiw	x1,x2,-785
    800014b0:	acc34097          	auipc	x1,0xacc34
    800014b4:	a5ebd9b7          	lui	x19,0xa5ebd
    800014b8:	001131b3          	sltu	x3,x2,x1
    800014bc:	0270d1b3          	divu	x3,x1,x7
    800014c0:	0210c3bb          	divw	x7,x1,x1
    800014c4:	1610c093          	xori	x1,x1,353
    800014c8:	0210f1bb          	remuw	x3,x1,x1
    800014cc:	c5c0029b          	addiw	x5,x0,-932
    800014d0:	0030113b          	sllw	x2,x0,x3
    800014d4:	a8408ee3          	beq	x1,x4,80000f70 <_binary_lab3_extra_test_bin_start+0xf70>
    800014d8:	a99ff16f          	jal	x2,80000f70 <_binary_lab3_extra_test_bin_start+0xf70>
    800014dc:	53ee0117          	auipc	x2,0x53ee0
    800014e0:	0210f233          	remu	x4,x1,x1
    800014e4:	0220c1bb          	divw	x3,x1,x2
    800014e8:	4120d013          	srai	x0,x1,0x12
    800014ec:	0202e0bb          	remw	x1,x5,x0
    800014f0:	02f0e1bb          	remw	x3,x1,x15
    800014f4:	02320c3b          	mulw	x24,x4,x3
    800014f8:	400081b7          	lui	x3,0x40008
    800014fc:	003181b3          	add	x3,x3,x3
    80001500:	f841b023          	sd	x4,-128(x3) # 40007f80 <_binary_lab3_extra_test_bin_size+0x3ffdf44c>
    80001504:	0231d113          	srli	x2,x3,0x23
    80001508:	0221f0bb          	remuw	x1,x3,x2
    8000150c:	0004ff33          	and	x30,x9,x0
    80001510:	01a09193          	slli	x3,x1,0x1a
    80001514:	002013b3          	sll	x7,x0,x2
    80001518:	0030913b          	sllw	x2,x1,x3
    8000151c:	13682137          	lui	x2,0x13682
    80001520:	ec912013          	slti	x0,x2,-311
    80001524:	0020f1b3          	and	x3,x1,x2
    80001528:	400080b7          	lui	x1,0x40008
    8000152c:	001080b3          	add	x1,x1,x1
    80001530:	f820a023          	sw	x2,-128(x1) # 40007f80 <_binary_lab3_extra_test_bin_size+0x3ffdf44c>
    80001534:	3d11f193          	andi	x3,x3,977
    80001538:	f8c0819b          	addiw	x3,x1,-116
    8000153c:	97f1a137          	lui	x2,0x97f1a
    80001540:	021271b3          	remu	x3,x4,x1
    80001544:	98e96237          	lui	x4,0x98e96
    80001548:	cdb5e093          	ori	x1,x11,-805
    8000154c:	0216e033          	rem	x0,x13,x1
    80001550:	1e56d117          	auipc	x2,0x1e56d
    80001554:	0030d13b          	srlw	x2,x1,x3
    80001558:	4041d11b          	sraiw	x2,x3,0x4
    8000155c:	00a3929b          	slliw	x5,x7,0xa
    80001560:	0100959b          	slliw	x11,x1,0x10
    80001564:	e62082e3          	beq	x1,x2,800013c8 <_binary_lab3_extra_test_bin_start+0x13c8>
    80001568:	e61ff06f          	j	800013c8 <_binary_lab3_extra_test_bin_start+0x13c8>
    8000156c:	022283bb          	mulw	x7,x5,x2
    80001570:	e1eec097          	auipc	x1,0xe1eec
    80001574:	0221813b          	mulw	x2,x3,x2
    80001578:	02f19113          	slli	x2,x3,0x2f
    8000157c:	0211d1b3          	divu	x3,x3,x1
    80001580:	009141b3          	xor	x3,x2,x9
    80001584:	400080b7          	lui	x1,0x40008
    80001588:	001080b3          	add	x1,x1,x1
    8000158c:	f860b023          	sd	x6,-128(x1) # 40007f80 <_binary_lab3_extra_test_bin_size+0x3ffdf44c>
    80001590:	0210d3bb          	divuw	x7,x1,x1
    80001594:	3481f313          	andi	x6,x3,840
    80001598:	7c213b93          	sltiu	x23,x2,1986
    8000159c:	400080b7          	lui	x1,0x40008
    800015a0:	001080b3          	add	x1,x1,x1
    800015a4:	f860b023          	sd	x6,-128(x1) # 40007f80 <_binary_lab3_extra_test_bin_size+0x3ffdf44c>
    800015a8:	0201d0bb          	divuw	x1,x3,x0
    800015ac:	003380b3          	add	x1,x7,x3
    800015b0:	2c0a8293          	addi	x5,x21,704
    800015b4:	024165b3          	rem	x11,x2,x4
    800015b8:	4011dd9b          	sraiw	x27,x3,0x1
    800015bc:	0033509b          	srliw	x1,x6,0x3
    800015c0:	023148bb          	divw	x17,x2,x3
    800015c4:	003093bb          	sllw	x7,x1,x3
    800015c8:	58a13393          	sltiu	x7,x2,1418
    800015cc:	08d10113          	addi	x2,x2,141 # 9e56e5dd <_binary_lab3_extra_test_bin_end+0x1e545aa9>
    800015d0:	6493a113          	slti	x2,x7,1609
    800015d4:	400081b7          	lui	x3,0x40008
    800015d8:	003181b3          	add	x3,x3,x3
    800015dc:	f811b023          	sd	x1,-128(x3) # 40007f80 <_binary_lab3_extra_test_bin_size+0x3ffdf44c>
    800015e0:	01612133          	slt	x2,x2,x22
    800015e4:	002091bb          	sllw	x3,x1,x2
    800015e8:	400080b7          	lui	x1,0x40008
    800015ec:	001080b3          	add	x1,x1,x1
    800015f0:	f800b103          	ld	x2,-128(x1) # 40007f80 <_binary_lab3_extra_test_bin_size+0x3ffdf44c>
    800015f4:	672ff017          	auipc	x0,0x672ff
    800015f8:	00b0d113          	srli	x2,x1,0xb
    800015fc:	007010bb          	sllw	x1,x0,x7
    80001600:	0211d3b3          	divu	x7,x3,x1
    80001604:	56d17293          	andi	x5,x2,1389
    80001608:	b82180e3          	beq	x3,x2,80001188 <_binary_lab3_extra_test_bin_start+0x1188>
    8000160c:	b7dff16f          	jal	x2,80001188 <_binary_lab3_extra_test_bin_start+0x1188>
    80001610:	2e112193          	slti	x3,x2,737
    80001614:	00d1b233          	sltu	x4,x3,x13
    80001618:	9361b093          	sltiu	x1,x3,-1738
    8000161c:	400081b7          	lui	x3,0x40008
    80001620:	003181b3          	add	x3,x3,x3
    80001624:	f801b103          	ld	x2,-128(x3) # 40007f80 <_binary_lab3_extra_test_bin_size+0x3ffdf44c>
    80001628:	0032e0b3          	or	x1,x5,x3
    8000162c:	6a904117          	auipc	x2,0x6a904
    80001630:	027183b3          	mul	x7,x3,x7
    80001634:	003183bb          	addw	x7,x3,x3
    80001638:	40008137          	lui	x2,0x40008
    8000163c:	00210133          	add	x2,x2,x2
    80001640:	f8816183          	lwu	x3,-120(x2) # 40007f88 <_binary_lab3_extra_test_bin_size+0x3ffdf454>
    80001644:	20e10197          	auipc	x3,0x20e10
    80001648:	0290d113          	srli	x2,x1,0x29
    8000164c:	62b5ef13          	ori	x30,x11,1579
    80001650:	03e0d093          	srli	x1,x1,0x3e
    80001654:	3310e093          	ori	x1,x1,817
    80001658:	0030e0b3          	or	x1,x1,x3
    8000165c:	f1d08393          	addi	x7,x1,-227
    80001660:	0baa01b7          	lui	x3,0xbaa0
    80001664:	0780c393          	xori	x7,x1,120
    80001668:	839ea097          	auipc	x1,0x839ea
    8000166c:	023160bb          	remw	x1,x2,x3
    80001670:	ab4c6097          	auipc	x1,0xab4c6
    80001674:	64b4c1b7          	lui	x3,0x64b4c
    80001678:	0090f1b3          	and	x3,x1,x9
    8000167c:	2f5f2197          	auipc	x3,0x2f5f2
    80001680:	400080b7          	lui	x1,0x40008
    80001684:	001080b3          	add	x1,x1,x1
    80001688:	f850b023          	sd	x5,-128(x1) # 40007f80 <_binary_lab3_extra_test_bin_size+0x3ffdf44c>
    8000168c:	001251b3          	srl	x3,x4,x1
    80001690:	dc3590e3          	bne	x11,x3,80001450 <_binary_lab3_extra_test_bin_start+0x1450>
    80001694:	da358ee3          	beq	x11,x3,80001450 <_binary_lab3_extra_test_bin_start+0x1450>
    80001698:	4081d793          	srai	x15,x3,0x8
    8000169c:	21a1a093          	slti	x1,x3,538
    800016a0:	41515313          	srai	x6,x2,0x15
    800016a4:	0263513b          	divuw	x2,x6,x6
    800016a8:	f051831b          	addiw	x6,x3,-251 # ffffffffaf5f3581 <_binary_lab3_extra_test_bin_end+0xffffffff2f5caa4d>
    800016ac:	b2507c13          	andi	x24,x0,-1243
    800016b0:	007220b3          	slt	x1,x4,x7
    800016b4:	6a70c193          	xori	x3,x1,1703
    800016b8:	0220f0b3          	remu	x1,x1,x2
    800016bc:	400080b7          	lui	x1,0x40008
    800016c0:	001080b3          	add	x1,x1,x1
    800016c4:	f800b103          	ld	x2,-128(x1) # 40007f80 <_binary_lab3_extra_test_bin_size+0x3ffdf44c>
    800016c8:	e89e21b7          	lui	x3,0xe89e2
    800016cc:	0033b0b3          	sltu	x1,x7,x3
    800016d0:	b9012113          	slti	x2,x2,-1136
    800016d4:	0230d6b3          	divu	x13,x1,x3
    800016d8:	400081b7          	lui	x3,0x40008
    800016dc:	003181b3          	add	x3,x3,x3
    800016e0:	f8219323          	sh	x2,-122(x3) # 40007f86 <_binary_lab3_extra_test_bin_size+0x3ffdf452>
    800016e4:	0090f133          	and	x2,x1,x9
    800016e8:	84f10093          	addi	x1,x2,-1969
    800016ec:	40008337          	lui	x6,0x40008
    800016f0:	00630333          	add	x6,x6,x6
    800016f4:	f8231023          	sh	x2,-128(x6) # 40007f80 <_binary_lab3_extra_test_bin_size+0x3ffdf44c>
    800016f8:	0063913b          	sllw	x2,x7,x6
    800016fc:	006271b3          	and	x3,x4,x6
    80001700:	0021e133          	or	x2,x3,x2
    80001704:	4030d133          	sra	x2,x1,x3
    80001708:	4050813b          	subw	x2,x1,x5
    8000170c:	c130a013          	slti	x0,x1,-1005
    80001710:	baa0a093          	slti	x1,x1,-1110
    80001714:	021141b3          	div	x3,x2,x1
    80001718:	00008193          	mv	x3,x1
    8000171c:	3e118863          	beq	x3,x1,80001b0c <_binary_lab3_extra_test_bin_start+0x1b0c>
    80001720:	007191b3          	sll	x3,x3,x7
    80001724:	16e16093          	ori	x1,x2,366
    80001728:	01e2919b          	slliw	x3,x5,0x1e
    8000172c:	0001133b          	sllw	x6,x2,x0
    80001730:	ff840297          	auipc	x5,0xff840
    80001734:	03131093          	slli	x1,x6,0x31
    80001738:	0101813b          	addw	x2,x3,x16
    8000173c:	0033a533          	slt	x10,x7,x3
    80001740:	0231e2bb          	remw	x5,x3,x3
    80001744:	0206c233          	div	x4,x13,x0
    80001748:	a3e4e037          	lui	x0,0xa3e4e
    8000174c:	02c6c03b          	divw	x0,x13,x12
    80001750:	000692bb          	sllw	x5,x13,x0
    80001754:	a4827113          	andi	x2,x4,-1464
    80001758:	fdd8d1b7          	lui	x3,0xfdd8d
    8000175c:	caa1c113          	xori	x2,x3,-854
    80001760:	400081b7          	lui	x3,0x40008
    80001764:	003181b3          	add	x3,x3,x3
    80001768:	f8c1d083          	lhu	x1,-116(x3) # 40007f8c <_binary_lab3_extra_test_bin_size+0x3ffdf458>
    8000176c:	41f15113          	srai	x2,x2,0x1f
    80001770:	1ff0e193          	ori	x3,x1,511
    80001774:	c3a991b7          	lui	x3,0xc3a99
    80001778:	e7f9c017          	auipc	x0,0xe7f9c
    8000177c:	023101b3          	mul	x3,x2,x3
    80001780:	1dc34093          	xori	x1,x6,476
    80001784:	40008237          	lui	x4,0x40008
    80001788:	00420233          	add	x4,x4,x4
    8000178c:	f8121123          	sh	x1,-126(x4) # 40007f82 <_binary_lab3_extra_test_bin_size+0x3ffdf44e>
    80001790:	4031d133          	sra	x2,x3,x3
    80001794:	00b3509b          	srliw	x1,x6,0xb
    80001798:	01b19093          	slli	x1,x3,0x1b
    8000179c:	03611113          	slli	x2,x2,0x36
    800017a0:	001125b3          	slt	x11,x2,x1
    800017a4:	0050e033          	or	x0,x1,x5
    800017a8:	02015133          	divu	x2,x2,x0
    800017ac:	003020b3          	sgtz	x1,x3
    800017b0:	017481b3          	add	x3,x9,x23
    800017b4:	0220c0bb          	divw	x1,x1,x2
    800017b8:	8de2b113          	sltiu	x2,x5,-1826
    800017bc:	00510263          	beq	x2,x5,800017c0 <_binary_lab3_extra_test_bin_start+0x17c0>
    800017c0:	0f9000ef          	jal	800020b8 <_binary_lab3_extra_test_bin_start+0x20b8>
    800017c4:	0163929b          	slliw	x5,x7,0x16
    800017c8:	0010113b          	sllw	x2,x0,x1
    800017cc:	0022c133          	xor	x2,x5,x2
    800017d0:	59631097          	auipc	x1,0x59631
    800017d4:	400053b3          	sra	x7,x0,x0
    800017d8:	0080919b          	slliw	x3,x1,0x8
    800017dc:	40008137          	lui	x2,0x40008
    800017e0:	00210133          	add	x2,x2,x2
    800017e4:	f8313023          	sd	x3,-128(x2) # 40007f80 <_binary_lab3_extra_test_bin_size+0x3ffdf44c>
    800017e8:	4c984317          	auipc	x6,0x4c984
    800017ec:	0251d13b          	divuw	x2,x3,x5
    800017f0:	400080b7          	lui	x1,0x40008
    800017f4:	001080b3          	add	x1,x1,x1
    800017f8:	f880b303          	ld	x6,-120(x1) # 40007f88 <_binary_lab3_extra_test_bin_size+0x3ffdf454>
    800017fc:	d8b0a093          	slti	x1,x1,-629
    80001800:	8dad8037          	lui	x0,0x8dad8
    80001804:	a3018697          	auipc	x13,0xa3018
    80001808:	002181b3          	add	x3,x3,x2
    8000180c:	01c0a1b3          	slt	x3,x1,x28
    80001810:	400080b7          	lui	x1,0x40008
    80001814:	001080b3          	add	x1,x1,x1
    80001818:	f810b423          	sd	x1,-120(x1) # 40007f88 <_binary_lab3_extra_test_bin_size+0x3ffdf454>
    8000181c:	416621b7          	lui	x3,0x41662
    80001820:	99e1809b          	addiw	x1,x3,-1634 # 4166199e <_binary_lab3_extra_test_bin_size+0x41638e6a>
    80001824:	08314137          	lui	x2,0x8314
    80001828:	e56f4097          	auipc	x1,0xe56f4
    8000182c:	07752117          	auipc	x2,0x7752
    80001830:	60f738b7          	lui	x17,0x60f73
    80001834:	09a7819b          	addiw	x3,x15,154
    80001838:	0212833b          	mulw	x6,x5,x1
    8000183c:	1221f663          	bgeu	x3,x2,80001968 <_binary_lab3_extra_test_bin_start+0x1968>
    80001840:	1221e463          	bltu	x3,x2,80001968 <_binary_lab3_extra_test_bin_start+0x1968>
    80001844:	001130b3          	sltu	x1,x2,x1
    80001848:	016130b3          	sltu	x1,x2,x22
    8000184c:	9150b193          	sltiu	x3,x1,-1771
    80001850:	40008137          	lui	x2,0x40008
    80001854:	00210133          	add	x2,x2,x2
    80001858:	f8c12103          	lw	x2,-116(x2) # 40007f8c <_binary_lab3_extra_test_bin_size+0x3ffdf458>
    8000185c:	47e1c393          	xori	x7,x3,1150
    80001860:	0250e1b3          	rem	x3,x1,x5
    80001864:	2320f197          	auipc	x3,0x2320f
    80001868:	42c1d113          	srai	x2,x3,0x2c
    8000186c:	4060d11b          	sraiw	x2,x1,0x6
    80001870:	eb212193          	slti	x3,x2,-334
    80001874:	0211603b          	remw	x0,x2,x1
    80001878:	0200733b          	remuw	x6,x0,x0
    8000187c:	21c10237          	lui	x4,0x21c10
    80001880:	0011c133          	xor	x2,x3,x1
    80001884:	0217c13b          	divw	x2,x15,x1
    80001888:	400080b7          	lui	x1,0x40008
    8000188c:	001080b3          	add	x1,x1,x1
    80001890:	f820b423          	sd	x2,-120(x1) # 40007f88 <_binary_lab3_extra_test_bin_size+0x3ffdf454>
    80001894:	005340b3          	xor	x1,x6,x5
    80001898:	df814113          	xori	x2,x2,-520
    8000189c:	0211c1bb          	divw	x3,x3,x1
    800018a0:	0921b013          	sltiu	x0,x3,146
    800018a4:	9f950197          	auipc	x3,0x9f950
    800018a8:	59f5c137          	lui	x2,0x59f5c
    800018ac:	8891019b          	addiw	x3,x2,-1911 # 59f5b889 <_binary_lab3_extra_test_bin_size+0x59f32d55>
    800018b0:	00138133          	add	x2,x7,x1
    800018b4:	36651397          	auipc	x7,0x36651
    800018b8:	0231423b          	divw	x4,x2,x3
    800018bc:	400080b7          	lui	x1,0x40008
    800018c0:	001080b3          	add	x1,x1,x1
    800018c4:	f810b023          	sd	x1,-128(x1) # 40007f80 <_binary_lab3_extra_test_bin_size+0x3ffdf44c>
    800018c8:	006043b3          	xor	x7,x0,x6
    800018cc:	1ed9b1b7          	lui	x3,0x1ed9b
    800018d0:	0071a3b3          	slt	x7,x3,x7
    800018d4:	50700863          	beq	x0,x7,80001de4 <_binary_lab3_extra_test_bin_start+0x1de4>
    800018d8:	50c001ef          	jal	x3,80001de4 <_binary_lab3_extra_test_bin_start+0x1de4>
    800018dc:	02a3d093          	srli	x1,x7,0x2a
    800018e0:	0f4cb0b7          	lui	x1,0xf4cb
    800018e4:	021170b3          	remu	x1,x2,x1
    800018e8:	021b02b3          	mul	x5,x22,x1
    800018ec:	00340333          	add	x6,x8,x3
    800018f0:	40008c37          	lui	x24,0x40008
    800018f4:	018c0c33          	add	x24,x24,x24
    800018f8:	f81c3023          	sd	x1,-128(x24) # 40007f80 <_binary_lab3_extra_test_bin_size+0x3ffdf44c>
    800018fc:	102f2097          	auipc	x1,0x102f2
    80001900:	40008137          	lui	x2,0x40008
    80001904:	00210133          	add	x2,x2,x2
    80001908:	f8013103          	ld	x2,-128(x2) # 40007f80 <_binary_lab3_extra_test_bin_size+0x3ffdf44c>
    8000190c:	0010a1b3          	slt	x3,x1,x1
    80001910:	0251c1bb          	divw	x3,x3,x5
    80001914:	03f1d193          	srli	x3,x3,0x3f
    80001918:	599731b7          	lui	x3,0x59973
    8000191c:	4439e0b7          	lui	x1,0x4439e
    80001920:	2cf3f093          	andi	x1,x7,719
    80001924:	40008137          	lui	x2,0x40008
    80001928:	00210133          	add	x2,x2,x2
    8000192c:	f8112023          	sw	x1,-128(x2) # 40007f80 <_binary_lab3_extra_test_bin_size+0x3ffdf44c>
    80001930:	7b70f113          	andi	x2,x1,1975
    80001934:	000082bb          	addw	x5,x1,x0
    80001938:	0011f0b3          	and	x1,x3,x1
    8000193c:	00210eb3          	add	x29,x2,x2
    80001940:	01c0d09b          	srliw	x1,x1,0x1c
    80001944:	03431113          	slli	x2,x6,0x34
    80001948:	0052d0b3          	srl	x1,x5,x5
    8000194c:	00412033          	slt	x0,x2,x4
    80001950:	36a8cd37          	lui	x26,0x36a8c
    80001954:	024171b3          	remu	x3,x2,x4
    80001958:	c9dec197          	auipc	x3,0xc9dec
    8000195c:	00019093          	slli	x1,x3,0x0
    80001960:	ee1152e3          	bge	x2,x1,80001844 <_binary_lab3_extra_test_bin_start+0x1844>
    80001964:	ee1140e3          	blt	x2,x1,80001844 <_binary_lab3_extra_test_bin_start+0x1844>
    80001968:	9e938137          	lui	x2,0x9e938
    8000196c:	40008137          	lui	x2,0x40008
    80001970:	00210133          	add	x2,x2,x2
    80001974:	f8110423          	sb	x1,-120(x2) # 40007f88 <_binary_lab3_extra_test_bin_size+0x3ffdf454>
    80001978:	027251bb          	divuw	x3,x4,x7
    8000197c:	b8a14197          	auipc	x3,0xb8a14
    80001980:	4900b213          	sltiu	x4,x1,1168
    80001984:	001101bb          	addw	x3,x2,x1
    80001988:	002151bb          	srlw	x3,x2,x2
    8000198c:	402151bb          	sraw	x3,x2,x2
    80001990:	001131b3          	sltu	x3,x2,x1
    80001994:	02208033          	mul	x0,x1,x2
    80001998:	76f5c1b7          	lui	x3,0x76f5c
    8000199c:	8acc6137          	lui	x2,0x8acc6
    800019a0:	3ced3197          	auipc	x3,0x3ced3
    800019a4:	40008cb7          	lui	x25,0x40008
    800019a8:	019c8cb3          	add	x25,x25,x25
    800019ac:	f86c8123          	sb	x6,-126(x25) # 40007f82 <_binary_lab3_extra_test_bin_size+0x3ffdf44e>
    800019b0:	e42c2137          	lui	x2,0xe42c2
    800019b4:	e6532113          	slti	x2,x6,-411
    800019b8:	8d91011b          	addiw	x2,x2,-1831 # ffffffffe42c18d9 <_binary_lab3_extra_test_bin_end+0xffffffff64298da5>
    800019bc:	4001519b          	sraiw	x3,x2,0x0
    800019c0:	0212c133          	div	x2,x5,x1
    800019c4:	15a51297          	auipc	x5,0x15a51
    800019c8:	f251819b          	addiw	x3,x3,-219 # ffffffffbced48c5 <_binary_lab3_extra_test_bin_end+0xffffffff3ceabd91>
    800019cc:	400080b7          	lui	x1,0x40008
    800019d0:	001080b3          	add	x1,x1,x1
    800019d4:	f8309023          	sh	x3,-128(x1) # 40007f80 <_binary_lab3_extra_test_bin_size+0x3ffdf44c>
    800019d8:	c6a1a093          	slti	x1,x3,-918
    800019dc:	001110bb          	sllw	x1,x2,x1
    800019e0:	0bc26113          	ori	x2,x4,188
    800019e4:	00000013          	nop
    800019e8:	d2000ce3          	beqz	x0,80001720 <_binary_lab3_extra_test_bin_start+0x1720>
    800019ec:	0210c1bb          	divw	x3,x1,x1
    800019f0:	00c1529b          	srliw	x5,x2,0xc
    800019f4:	2ab11097          	auipc	x1,0x2ab11
    800019f8:	40008137          	lui	x2,0x40008
    800019fc:	00210133          	add	x2,x2,x2
    80001a00:	f8813183          	ld	x3,-120(x2) # 40007f88 <_binary_lab3_extra_test_bin_size+0x3ffdf454>
    80001a04:	020343b3          	div	x7,x6,x0
    80001a08:	00101133          	sll	x2,x0,x1
    80001a0c:	4f2d6197          	auipc	x3,0x4f2d6
    80001a10:	afc1029b          	addiw	x5,x2,-1284
    80001a14:	9441d137          	lui	x2,0x9441d
    80001a18:	400080b7          	lui	x1,0x40008
    80001a1c:	001080b3          	add	x1,x1,x1
    80001a20:	f840e183          	lwu	x3,-124(x1) # 40007f84 <_binary_lab3_extra_test_bin_size+0x3ffdf450>
    80001a24:	003ef133          	and	x2,x29,x3
    80001a28:	01911c1b          	slliw	x24,x2,0x19
    80001a2c:	c9f94217          	auipc	x4,0xc9f94
    80001a30:	40308133          	sub	x2,x1,x3
    80001a34:	401151bb          	sraw	x3,x2,x1
    80001a38:	846af0b7          	lui	x1,0x846af
    80001a3c:	e747b297          	auipc	x5,0xe747b
    80001a40:	095d51b7          	lui	x3,0x95d5
    80001a44:	003090bb          	sllw	x1,x1,x3
    80001a48:	00319233          	sll	x4,x3,x3
    80001a4c:	74713293          	sltiu	x5,x2,1863
    80001a50:	0011e1b3          	or	x3,x3,x1
    80001a54:	b681819b          	addiw	x3,x3,-1176 # 95d4b68 <_binary_lab3_extra_test_bin_size+0x95ac034>
    80001a58:	400080b7          	lui	x1,0x40008
    80001a5c:	001080b3          	add	x1,x1,x1
    80001a60:	f800b103          	ld	x2,-128(x1) # 40007f80 <_binary_lab3_extra_test_bin_size+0x3ffdf44c>
    80001a64:	0021e0b3          	or	x1,x3,x2
    80001a68:	0011d1b3          	srl	x3,x3,x1
    80001a6c:	0219c33b          	divw	x6,x19,x1
    80001a70:	40308263          	beq	x1,x3,80001e74 <_binary_lab3_extra_test_bin_start+0x1e74>
    80001a74:	4000026f          	jal	x4,80001e74 <_binary_lab3_extra_test_bin_start+0x1e74>
    80001a78:	caf12113          	slti	x2,x2,-849
    80001a7c:	022081b3          	mul	x3,x1,x2
    80001a80:	022060b3          	rem	x1,x0,x2
    80001a84:	65918193          	addi	x3,x3,1625
    80001a88:	ed7cc097          	auipc	x1,0xed7cc
    80001a8c:	40008137          	lui	x2,0x40008
    80001a90:	00210133          	add	x2,x2,x2
    80001a94:	f8013103          	ld	x2,-128(x2) # 40007f80 <_binary_lab3_extra_test_bin_size+0x3ffdf44c>
    80001a98:	400087b7          	lui	x15,0x40008
    80001a9c:	00f787b3          	add	x15,x15,x15
    80001aa0:	f807e183          	lwu	x3,-128(x15) # 40007f80 <_binary_lab3_extra_test_bin_size+0x3ffdf44c>
    80001aa4:	40008137          	lui	x2,0x40008
    80001aa8:	00210133          	add	x2,x2,x2
    80001aac:	f8310283          	lb	x5,-125(x2) # 40007f83 <_binary_lab3_extra_test_bin_size+0x3ffdf44f>
    80001ab0:	2b40c193          	xori	x3,x1,692
    80001ab4:	023151b3          	divu	x3,x2,x3
    80001ab8:	b163b113          	sltiu	x2,x7,-1258
    80001abc:	004130b3          	sltu	x1,x2,x4
    80001ac0:	0250c13b          	divw	x2,x1,x5
    80001ac4:	0bf53137          	lui	x2,0xbf53
    80001ac8:	00203133          	snez	x2,x2
    80001acc:	e672e617          	auipc	x12,0xe672e
    80001ad0:	0111c7b3          	xor	x15,x3,x17
    80001ad4:	d3b1a093          	slti	x1,x3,-709
    80001ad8:	40008137          	lui	x2,0x40008
    80001adc:	00210133          	add	x2,x2,x2
    80001ae0:	f8e15383          	lhu	x7,-114(x2) # 40007f8e <_binary_lab3_extra_test_bin_size+0x3ffdf45a>
    80001ae4:	0258723b          	remuw	x4,x16,x5
    80001ae8:	00216333          	or	x6,x2,x2
    80001aec:	c1f4c093          	xori	x1,x9,-993
    80001af0:	c2c7e217          	auipc	x4,0xc2c7e
    80001af4:	c5445197          	auipc	x3,0xc5445
    80001af8:	ce11f193          	andi	x3,x3,-799
    80001afc:	89c12193          	slti	x3,x2,-1892
    80001b00:	01518133          	add	x2,x3,x21
    80001b04:	00010113          	mv	x2,x2
    80001b08:	08210863          	beq	x2,x2,80001b98 <_binary_lab3_extra_test_bin_start+0x1b98>
    80001b0c:	ff70a193          	slti	x3,x1,-9
    80001b10:	0221c4bb          	divw	x9,x3,x2
    80001b14:	26c13b93          	sltiu	x23,x2,620
    80001b18:	0211413b          	divw	x2,x2,x1
    80001b1c:	0031c0b3          	xor	x1,x3,x3
    80001b20:	022260b3          	rem	x1,x4,x2
    80001b24:	403351b3          	sra	x3,x6,x3
    80001b28:	7d260297          	auipc	x5,0x7d260
    80001b2c:	e1208313          	addi	x6,x1,-494 # 6d7cd89a <_binary_lab3_extra_test_bin_size+0x6d7a4d66>
    80001b30:	0141d19b          	srliw	x3,x3,0x14
    80001b34:	400081b7          	lui	x3,0x40008
    80001b38:	003181b3          	add	x3,x3,x3
    80001b3c:	f871c203          	lbu	x4,-121(x3) # 40007f87 <_binary_lab3_extra_test_bin_size+0x3ffdf453>
    80001b40:	0023ddbb          	srlw	x27,x7,x2
    80001b44:	fa9d7217          	auipc	x4,0xfa9d7
    80001b48:	9a118113          	addi	x2,x3,-1631
    80001b4c:	005170b3          	and	x1,x2,x5
    80001b50:	645441b7          	lui	x3,0x64544
    80001b54:	400082b7          	lui	x5,0x40008
    80001b58:	005282b3          	add	x5,x5,x5
    80001b5c:	f8429183          	lh	x3,-124(x5) # 40007f84 <_binary_lab3_extra_test_bin_size+0x3ffdf450>
    80001b60:	57775097          	auipc	x1,0x57775
    80001b64:	022000bb          	mulw	x1,x0,x2
    80001b68:	5d81c013          	xori	x0,x3,1496
    80001b6c:	7c690317          	auipc	x6,0x7c690
    80001b70:	0011113b          	sllw	x2,x2,x1
    80001b74:	40008137          	lui	x2,0x40008
    80001b78:	00210133          	add	x2,x2,x2
    80001b7c:	f8114603          	lbu	x12,-127(x2) # 40007f81 <_binary_lab3_extra_test_bin_size+0x3ffdf44d>
    80001b80:	4174833b          	subw	x6,x9,x23
    80001b84:	024172bb          	remuw	x5,x2,x4
    80001b88:	401081b3          	sub	x3,x1,x1
    80001b8c:	f0a3f1b7          	lui	x3,0xf0a3f
    80001b90:	40238463          	beq	x7,x2,80001f98 <_binary_lab3_extra_test_bin_start+0x1f98>
    80001b94:	4040026f          	jal	x4,80001f98 <_binary_lab3_extra_test_bin_start+0x1f98>
    80001b98:	400081b7          	lui	x3,0x40008
    80001b9c:	003181b3          	add	x3,x3,x3
    80001ba0:	f821b023          	sd	x2,-128(x3) # 40007f80 <_binary_lab3_extra_test_bin_size+0x3ffdf44c>
    80001ba4:	0392d013          	srli	x0,x5,0x39
    80001ba8:	0021113b          	sllw	x2,x2,x2
    80001bac:	40008137          	lui	x2,0x40008
    80001bb0:	00210133          	add	x2,x2,x2
    80001bb4:	f8212223          	sw	x2,-124(x2) # 40007f84 <_binary_lab3_extra_test_bin_size+0x3ffdf450>
    80001bb8:	87c1b013          	sltiu	x0,x3,-1924
    80001bbc:	bf91819b          	addiw	x3,x3,-1031
    80001bc0:	3bace197          	auipc	x3,0x3bace
    80001bc4:	ee151097          	auipc	x1,0xee151
    80001bc8:	0211e63b          	remw	x12,x3,x1
    80001bcc:	40230133          	sub	x2,x6,x2
    80001bd0:	0230f13b          	remuw	x2,x1,x3
    80001bd4:	4120d31b          	sraiw	x6,x1,0x12
    80001bd8:	007181b3          	add	x3,x3,x7
    80001bdc:	401251b3          	sra	x3,x4,x1
    80001be0:	400082b7          	lui	x5,0x40008
    80001be4:	005282b3          	add	x5,x5,x5
    80001be8:	f882be03          	ld	x28,-120(x5) # 40007f88 <_binary_lab3_extra_test_bin_size+0x3ffdf454>
    80001bec:	c62d2037          	lui	x0,0xc62d2
    80001bf0:	3487b0b7          	lui	x1,0x3487b
    80001bf4:	288f0717          	auipc	x14,0x288f0
    80001bf8:	002101b3          	add	x3,x2,x2
    80001bfc:	6ae62197          	auipc	x3,0x6ae62
    80001c00:	022f71bb          	remuw	x3,x30,x2
    80001c04:	00d0b133          	sltu	x2,x1,x13
    80001c08:	003081b3          	add	x3,x1,x3
    80001c0c:	0050e133          	or	x2,x1,x5
    80001c10:	40008237          	lui	x4,0x40008
    80001c14:	00420233          	add	x4,x4,x4
    80001c18:	f8220523          	sb	x2,-118(x4) # 40007f8a <_binary_lab3_extra_test_bin_size+0x3ffdf456>
    80001c1c:	0201813b          	mulw	x2,x3,x0
    80001c20:	0170919b          	slliw	x3,x1,0x17
    80001c24:	0191959b          	slliw	x11,x3,0x19
    80001c28:	40baf097          	auipc	x1,0x40baf
    80001c2c:	0b615063          	bge	x2,x22,80001ccc <_binary_lab3_extra_test_bin_start+0x1ccc>
    80001c30:	09614e63          	blt	x2,x22,80001ccc <_binary_lab3_extra_test_bin_start+0x1ccc>
    80001c34:	40008137          	lui	x2,0x40008
    80001c38:	00210133          	add	x2,x2,x2
    80001c3c:	f8013003          	ld	x0,-128(x2) # 40007f80 <_binary_lab3_extra_test_bin_size+0x3ffdf44c>
    80001c40:	00031113          	slli	x2,x6,0x0
    80001c44:	40008137          	lui	x2,0x40008
    80001c48:	00210133          	add	x2,x2,x2
    80001c4c:	f8816083          	lwu	x1,-120(x2) # 40007f88 <_binary_lab3_extra_test_bin_size+0x3ffdf454>
    80001c50:	02715033          	divu	x0,x2,x7
    80001c54:	0221f133          	remu	x2,x3,x2
    80001c58:	42f65093          	srai	x1,x12,0x2f
    80001c5c:	4031813b          	subw	x2,x3,x3
    80001c60:	00c11193          	slli	x3,x2,0xc
    80001c64:	02226133          	rem	x2,x4,x2
    80001c68:	4df6a093          	slti	x1,x13,1247
    80001c6c:	b8f070b7          	lui	x1,0xb8f07
    80001c70:	89408313          	addi	x6,x1,-1900 # ffffffffb8f06894 <_binary_lab3_extra_test_bin_end+0xffffffff38eddd60>
    80001c74:	a7130113          	addi	x2,x6,-1423 # fc6915dd <_binary_lab3_extra_test_bin_end+0x7c668aa9>
    80001c78:	01809133          	sll	x2,x1,x24
    80001c7c:	0203f133          	remu	x2,x7,x0
    80001c80:	003161b3          	or	x3,x2,x3
    80001c84:	4021d1b3          	sra	x3,x3,x2
    80001c88:	00116133          	or	x2,x2,x1
    80001c8c:	40008137          	lui	x2,0x40008
    80001c90:	00210133          	add	x2,x2,x2
    80001c94:	f8f10223          	sb	x15,-124(x2) # 40007f84 <_binary_lab3_extra_test_bin_size+0x3ffdf450>
    80001c98:	400080b7          	lui	x1,0x40008
    80001c9c:	001080b3          	add	x1,x1,x1
    80001ca0:	f800b003          	ld	x0,-128(x1) # 40007f80 <_binary_lab3_extra_test_bin_size+0x3ffdf44c>
    80001ca4:	40008137          	lui	x2,0x40008
    80001ca8:	00210133          	add	x2,x2,x2
    80001cac:	f9f11323          	sh	x31,-122(x2) # 40007f86 <_binary_lab3_extra_test_bin_size+0x3ffdf452>
    80001cb0:	0211e5b3          	rem	x11,x3,x1
    80001cb4:	90817413          	andi	x8,x2,-1784
    80001cb8:	0030d0bb          	srlw	x1,x1,x3
    80001cbc:	9641011b          	addiw	x2,x2,-1692
    80001cc0:	00109193          	slli	x3,x1,0x1
    80001cc4:	08287863          	bgeu	x16,x2,80001d54 <_binary_lab3_extra_test_bin_start+0x1d54>
    80001cc8:	08286663          	bltu	x16,x2,80001d54 <_binary_lab3_extra_test_bin_start+0x1d54>
    80001ccc:	021372b3          	remu	x5,x6,x1
    80001cd0:	400081b7          	lui	x3,0x40008
    80001cd4:	003181b3          	add	x3,x3,x3
    80001cd8:	f8f1b423          	sd	x15,-120(x3) # 40007f88 <_binary_lab3_extra_test_bin_size+0x3ffdf454>
    80001cdc:	022160b3          	rem	x1,x2,x2
    80001ce0:	f590f093          	andi	x1,x1,-167
    80001ce4:	5fa82117          	auipc	x2,0x5fa82
    80001ce8:	40008237          	lui	x4,0x40008
    80001cec:	00420233          	add	x4,x4,x4
    80001cf0:	f8123023          	sd	x1,-128(x4) # 40007f80 <_binary_lab3_extra_test_bin_size+0x3ffdf44c>
    80001cf4:	dbda2097          	auipc	x1,0xdbda2
    80001cf8:	2be6e137          	lui	x2,0x2be6e
    80001cfc:	8cb22113          	slti	x2,x4,-1845
    80001d00:	0241e13b          	remw	x2,x3,x4
    80001d04:	c8a280b7          	lui	x1,0xc8a28
    80001d08:	023001b3          	mul	x3,x0,x3
    80001d0c:	897ad117          	auipc	x2,0x897ad
    80001d10:	41d3519b          	sraiw	x3,x6,0x1d
    80001d14:	400081b7          	lui	x3,0x40008
    80001d18:	003181b3          	add	x3,x3,x3
    80001d1c:	f821b423          	sd	x2,-120(x3) # 40007f88 <_binary_lab3_extra_test_bin_size+0x3ffdf454>
    80001d20:	07f8b117          	auipc	x2,0x7f8b
    80001d24:	0230e1b3          	rem	x3,x1,x3
    80001d28:	400080b7          	lui	x1,0x40008
    80001d2c:	001080b3          	add	x1,x1,x1
    80001d30:	f820b423          	sd	x2,-120(x1) # 40007f88 <_binary_lab3_extra_test_bin_size+0x3ffdf454>
    80001d34:	00f0e133          	or	x2,x1,x15
    80001d38:	73a18193          	addi	x3,x3,1850
    80001d3c:	00215333          	srl	x6,x2,x2
    80001d40:	a540f213          	andi	x4,x1,-1452
    80001d44:	00e1511b          	srliw	x2,x2,0xe
    80001d48:	00317133          	and	x2,x2,x3
    80001d4c:	00000317          	auipc	x6,0x0
    80001d50:	ee830167          	jalr	x2,-280(x6) # 80001c34 <_binary_lab3_extra_test_bin_start+0x1c34>
    80001d54:	4ce84217          	auipc	x4,0x4ce84
    80001d58:	02318133          	mul	x2,x3,x3
    80001d5c:	003153b3          	srl	x7,x2,x3
    80001d60:	ba9ed117          	auipc	x2,0xba9ed
    80001d64:	400080b7          	lui	x1,0x40008
    80001d68:	001080b3          	add	x1,x1,x1
    80001d6c:	f880b383          	ld	x7,-120(x1) # 40007f88 <_binary_lab3_extra_test_bin_size+0x3ffdf454>
    80001d70:	3d19c137          	lui	x2,0x3d19c
    80001d74:	22c12793          	slti	x15,x2,556
    80001d78:	00418133          	add	x2,x3,x4
    80001d7c:	033161bb          	remw	x3,x2,x19
    80001d80:	400081b7          	lui	x3,0x40008
    80001d84:	003181b3          	add	x3,x3,x3
    80001d88:	f861b423          	sd	x6,-120(x3) # 40007f88 <_binary_lab3_extra_test_bin_size+0x3ffdf454>
    80001d8c:	4020d1b3          	sra	x3,x1,x2
    80001d90:	0260d233          	divu	x4,x1,x6
    80001d94:	400083b7          	lui	x7,0x40008
    80001d98:	007383b3          	add	x7,x7,x7
    80001d9c:	f8b39323          	sh	x11,-122(x7) # 40007f86 <_binary_lab3_extra_test_bin_size+0x3ffdf452>
    80001da0:	400080b7          	lui	x1,0x40008
    80001da4:	001080b3          	add	x1,x1,x1
    80001da8:	f830b023          	sd	x3,-128(x1) # 40007f80 <_binary_lab3_extra_test_bin_size+0x3ffdf44c>
    80001dac:	0220713b          	remuw	x2,x0,x2
    80001db0:	022180b3          	mul	x1,x3,x2
    80001db4:	4ba49117          	auipc	x2,0x4ba49
    80001db8:	0071169b          	slliw	x13,x2,0x7
    80001dbc:	02b21193          	slli	x3,x4,0x2b
    80001dc0:	00211133          	sll	x2,x2,x2
    80001dc4:	400081b7          	lui	x3,0x40008
    80001dc8:	003181b3          	add	x3,x3,x3
    80001dcc:	f811a623          	sw	x1,-116(x3) # 40007f8c <_binary_lab3_extra_test_bin_size+0x3ffdf458>
    80001dd0:	fc156137          	lui	x2,0xfc156
    80001dd4:	560d9117          	auipc	x2,0x560d9
    80001dd8:	0380d213          	srli	x4,x1,0x38
    80001ddc:	9e2084e3          	beq	x1,x2,800017c4 <_binary_lab3_extra_test_bin_start+0x17c4>
    80001de0:	9e5ff36f          	jal	x6,800017c4 <_binary_lab3_extra_test_bin_start+0x17c4>
    80001de4:	9420a093          	slti	x1,x1,-1726
    80001de8:	40008137          	lui	x2,0x40008
    80001dec:	00210133          	add	x2,x2,x2
    80001df0:	f8113023          	sd	x1,-128(x2) # 40007f80 <_binary_lab3_extra_test_bin_size+0x3ffdf44c>
    80001df4:	0d914193          	xori	x3,x2,217
    80001df8:	01f0511b          	srliw	x2,x0,0x1f
    80001dfc:	0220e1b3          	rem	x3,x1,x2
    80001e00:	ba06c197          	auipc	x3,0xba06c
    80001e04:	d682021b          	addiw	x4,x4,-664 # ffffffffcce85abc <_binary_lab3_extra_test_bin_end+0xffffffff4ce5cf88>
    80001e08:	be15b313          	sltiu	x6,x11,-1055
    80001e0c:	77e070b7          	lui	x1,0x77e07
    80001e10:	400081b7          	lui	x3,0x40008
    80001e14:	003181b3          	add	x3,x3,x3
    80001e18:	f881b203          	ld	x4,-120(x3) # 40007f88 <_binary_lab3_extra_test_bin_size+0x3ffdf454>
    80001e1c:	0212c23b          	divw	x4,x5,x1
    80001e20:	001150b3          	srl	x1,x2,x1
    80001e24:	0210433b          	divw	x6,x0,x1
    80001e28:	400081b7          	lui	x3,0x40008
    80001e2c:	003181b3          	add	x3,x3,x3
    80001e30:	f8219123          	sh	x2,-126(x3) # 40007f82 <_binary_lab3_extra_test_bin_size+0x3ffdf44e>
    80001e34:	40008137          	lui	x2,0x40008
    80001e38:	00210133          	add	x2,x2,x2
    80001e3c:	f8c11103          	lh	x2,-116(x2) # 40007f8c <_binary_lab3_extra_test_bin_size+0x3ffdf458>
    80001e40:	3725eb13          	ori	x22,x11,882
    80001e44:	a9981537          	lui	x10,0xa9981
    80001e48:	4011d33b          	sraw	x6,x3,x1
    80001e4c:	2170b313          	sltiu	x6,x1,535
    80001e50:	40008137          	lui	x2,0x40008
    80001e54:	00210133          	add	x2,x2,x2
    80001e58:	f8013383          	ld	x7,-128(x2) # 40007f80 <_binary_lab3_extra_test_bin_size+0x3ffdf44c>
    80001e5c:	0221e0bb          	remw	x1,x3,x2
    80001e60:	0031913b          	sllw	x2,x3,x3
    80001e64:	de486397          	auipc	x7,0xde486
    80001e68:	006171b3          	and	x3,x2,x6
    80001e6c:	839086e3          	beq	x1,x25,80001698 <_binary_lab3_extra_test_bin_start+0x1698>
    80001e70:	829ff2ef          	jal	x5,80001698 <_binary_lab3_extra_test_bin_start+0x1698>
    80001e74:	98940137          	lui	x2,0x98940
    80001e78:	0080813b          	addw	x2,x1,x8
    80001e7c:	014116b3          	sll	x13,x2,x20
    80001e80:	0011f0b3          	and	x1,x3,x1
    80001e84:	0021da33          	srl	x20,x3,x2
    80001e88:	109ca097          	auipc	x1,0x109ca
    80001e8c:	03309093          	slli	x1,x1,0x33
    80001e90:	4063519b          	sraiw	x3,x6,0x6
    80001e94:	40008137          	lui	x2,0x40008
    80001e98:	00210133          	add	x2,x2,x2
    80001e9c:	f8813303          	ld	x6,-120(x2) # 40007f88 <_binary_lab3_extra_test_bin_size+0x3ffdf454>
    80001ea0:	026161bb          	remw	x3,x2,x6
    80001ea4:	006170b3          	and	x1,x2,x6
    80001ea8:	0219d133          	divu	x2,x19,x1
    80001eac:	00136233          	or	x4,x6,x1
    80001eb0:	41d3511b          	sraiw	x2,x6,0x1d
    80001eb4:	0001b0b3          	sltu	x1,x3,x0
    80001eb8:	01e0921b          	slliw	x4,x1,0x1e
    80001ebc:	022140bb          	divw	x1,x2,x2
    80001ec0:	3311f113          	andi	x2,x3,817
    80001ec4:	3de583b7          	lui	x7,0x3de58
    80001ec8:	fb5f2117          	auipc	x2,0xfb5f2
    80001ecc:	cc73b1b7          	lui	x3,0xcc73b
    80001ed0:	004910bb          	sllw	x1,x18,x4
    80001ed4:	0071181b          	slliw	x16,x2,0x7
    80001ed8:	0023d1b3          	srl	x3,x7,x2
    80001edc:	0221d0b3          	divu	x1,x3,x2
    80001ee0:	876ec137          	lui	x2,0x876ec
    80001ee4:	57b1a093          	slti	x1,x3,1403
    80001ee8:	40008137          	lui	x2,0x40008
    80001eec:	00210133          	add	x2,x2,x2
    80001ef0:	f8810283          	lb	x5,-120(x2) # 40007f88 <_binary_lab3_extra_test_bin_size+0x3ffdf454>
    80001ef4:	4993819b          	addiw	x3,x7,1177 # 3de58499 <_binary_lab3_extra_test_bin_size+0x3de2f965>
    80001ef8:	00530263          	beq	x6,x5,80001efc <_binary_lab3_extra_test_bin_start+0x1efc>
    80001efc:	1950036f          	jal	x6,80002890 <_binary_lab3_extra_test_bin_start+0x2890>
    80001f00:	00104133          	xor	x2,x0,x1
    80001f04:	edcdf193          	andi	x3,x27,-292
    80001f08:	4011d13b          	sraw	x2,x3,x1
    80001f0c:	d6113f13          	sltiu	x30,x2,-671
    80001f10:	16db3197          	auipc	x3,0x16db3
    80001f14:	17910193          	addi	x3,x2,377
    80001f18:	7450e293          	ori	x5,x1,1861
    80001f1c:	01909113          	slli	x2,x1,0x19
    80001f20:	400081b7          	lui	x3,0x40008
    80001f24:	003181b3          	add	x3,x3,x3
    80001f28:	f881a303          	lw	x6,-120(x3) # 40007f88 <_binary_lab3_extra_test_bin_size+0x3ffdf454>
    80001f2c:	006352b3          	srl	x5,x6,x6
    80001f30:	400080b7          	lui	x1,0x40008
    80001f34:	001080b3          	add	x1,x1,x1
    80001f38:	f810b423          	sd	x1,-120(x1) # 40007f88 <_binary_lab3_extra_test_bin_size+0x3ffdf454>
    80001f3c:	403151b3          	sra	x3,x2,x3
    80001f40:	401100bb          	subw	x1,x2,x1
    80001f44:	9d5cd117          	auipc	x2,0x9d5cd
    80001f48:	00b0d11b          	srliw	x2,x1,0xb
    80001f4c:	00208133          	add	x2,x1,x2
    80001f50:	cf61a093          	slti	x1,x3,-778
    80001f54:	b428a197          	auipc	x3,0xb428a
    80001f58:	82a520b7          	lui	x1,0x82a52
    80001f5c:	20484137          	lui	x2,0x20484
    80001f60:	0240d13b          	divuw	x2,x1,x4
    80001f64:	74482797          	auipc	x15,0x74482
    80001f68:	400081b7          	lui	x3,0x40008
    80001f6c:	003181b3          	add	x3,x3,x3
    80001f70:	f811a223          	sw	x1,-124(x3) # 40007f84 <_binary_lab3_extra_test_bin_size+0x3ffdf450>
    80001f74:	00b2d21b          	srliw	x4,x5,0xb
    80001f78:	2c96b1b7          	lui	x3,0x2c96b
    80001f7c:	400080b7          	lui	x1,0x40008
    80001f80:	001080b3          	add	x1,x1,x1
    80001f84:	f800e083          	lwu	x1,-128(x1) # 40007f80 <_binary_lab3_extra_test_bin_size+0x3ffdf44c>
    80001f88:	0230c133          	div	x2,x1,x3
    80001f8c:	0050a133          	slt	x2,x1,x5
    80001f90:	ae2484e3          	beq	x9,x2,80001a78 <_binary_lab3_extra_test_bin_start+0x1a78>
    80001f94:	ae5ff16f          	jal	x2,80001a78 <_binary_lab3_extra_test_bin_start+0x1a78>
    80001f98:	003091bb          	sllw	x3,x1,x3
    80001f9c:	400081b7          	lui	x3,0x40008
    80001fa0:	003181b3          	add	x3,x3,x3
    80001fa4:	f881b383          	ld	x7,-120(x3) # 40007f88 <_binary_lab3_extra_test_bin_size+0x3ffdf454>
    80001fa8:	000190bb          	sllw	x1,x3,x0
    80001fac:	c5780093          	addi	x1,x16,-937 # 72177cf3 <_binary_lab3_extra_test_bin_size+0x7214f1bf>
    80001fb0:	00325133          	srl	x2,x4,x3
    80001fb4:	0031e0b3          	or	x1,x3,x3
    80001fb8:	1f1c4097          	auipc	x1,0x1f1c4
    80001fbc:	0010d1bb          	srlw	x3,x1,x1
    80001fc0:	0070a1b3          	slt	x3,x1,x7
    80001fc4:	022080bb          	mulw	x1,x1,x2
    80001fc8:	40008137          	lui	x2,0x40008
    80001fcc:	00210133          	add	x2,x2,x2
    80001fd0:	f8113423          	sd	x1,-120(x2) # 40007f88 <_binary_lab3_extra_test_bin_size+0x3ffdf454>
    80001fd4:	00218f33          	add	x30,x3,x2
    80001fd8:	03009193          	slli	x3,x1,0x30
    80001fdc:	6d71f193          	andi	x3,x3,1751
    80001fe0:	022161bb          	remw	x3,x2,x2
    80001fe4:	28012213          	slti	x4,x2,640
    80001fe8:	dbdab093          	sltiu	x1,x21,-579
    80001fec:	00512233          	slt	x4,x2,x5
    80001ff0:	4401a193          	slti	x3,x3,1088
    80001ff4:	00608133          	add	x2,x1,x6
    80001ff8:	0231e1b3          	rem	x3,x3,x3
    80001ffc:	022081b3          	mul	x3,x1,x2
    80002000:	0231e1b3          	rem	x3,x3,x3
    80002004:	0211e0bb          	remw	x1,x3,x1
    80002008:	00599a9b          	slliw	x21,x19,0x5
    8000200c:	665ea097          	auipc	x1,0x665ea
    80002010:	0121d293          	srli	x5,x3,0x12
    80002014:	5f060117          	auipc	x2,0x5f060
    80002018:	0231f13b          	remuw	x2,x3,x3
    8000201c:	e5327197          	auipc	x3,0xe5327
    80002020:	e68c51b7          	lui	x3,0xe68c5
    80002024:	abc94237          	lui	x4,0xabc94
    80002028:	0231533b          	divuw	x6,x2,x3
    8000202c:	00319463          	bne	x3,x3,80002034 <_binary_lab3_extra_test_bin_start+0x2034>
    80002030:	00318263          	beq	x3,x3,80002034 <_binary_lab3_extra_test_bin_start+0x2034>
    80002034:	0013b1b3          	sltu	x3,x7,x1
    80002038:	0030911b          	slliw	x2,x1,0x3
    8000203c:	003161b3          	or	x3,x2,x3
    80002040:	03d0d13b          	divuw	x2,x1,x29
    80002044:	007201bb          	addw	x3,x4,x7
    80002048:	01c1d1bb          	srlw	x3,x3,x28
    8000204c:	31c76097          	auipc	x1,0x31c76
    80002050:	b9816093          	ori	x1,x2,-1128
    80002054:	07c1b393          	sltiu	x7,x3,124
    80002058:	023cd1b3          	divu	x3,x25,x3
    8000205c:	023187bb          	mulw	x15,x3,x3
    80002060:	40008137          	lui	x2,0x40008
    80002064:	00210133          	add	x2,x2,x2
    80002068:	f8013203          	ld	x4,-128(x2) # 40007f80 <_binary_lab3_extra_test_bin_size+0x3ffdf44c>
    8000206c:	03d19113          	slli	x2,x3,0x3d
    80002070:	00120333          	add	x6,x4,x1
    80002074:	40008237          	lui	x4,0x40008
    80002078:	00420233          	add	x4,x4,x4
    8000207c:	f8121123          	sh	x1,-126(x4) # 40007f82 <_binary_lab3_extra_test_bin_size+0x3ffdf44e>
    80002080:	001150bb          	srlw	x1,x2,x1
    80002084:	40008337          	lui	x6,0x40008
    80002088:	00630333          	add	x6,x6,x6
    8000208c:	f8833283          	ld	x5,-120(x6) # 40007f88 <_binary_lab3_extra_test_bin_size+0x3ffdf454>
    80002090:	006163b3          	or	x7,x2,x6
    80002094:	002122b3          	slt	x5,x2,x2
    80002098:	fec0809b          	addiw	x1,x1,-20 # ffffffffb1c78038 <_binary_lab3_extra_test_bin_end+0xffffffff31c4f504>
    8000209c:	0250f1bb          	remuw	x3,x1,x5
    800020a0:	4520b113          	sltiu	x2,x1,1106
    800020a4:	400080b7          	lui	x1,0x40008
    800020a8:	001080b3          	add	x1,x1,x1
    800020ac:	f880b083          	ld	x1,-120(x1) # 40007f88 <_binary_lab3_extra_test_bin_size+0x3ffdf454>
    800020b0:	92230ee3          	beq	x6,x2,800019ec <_binary_lab3_extra_test_bin_start+0x19ec>
    800020b4:	939ff1ef          	jal	x3,800019ec <_binary_lab3_extra_test_bin_start+0x19ec>
    800020b8:	00111333          	sll	x6,x2,x1
    800020bc:	5b40f113          	andi	x2,x1,1460
    800020c0:	c0610113          	addi	x2,x2,-1018
    800020c4:	01a1921b          	slliw	x4,x3,0x1a
    800020c8:	0030a0b3          	slt	x1,x1,x3
    800020cc:	96214093          	xori	x1,x2,-1694
    800020d0:	38e7c013          	xori	x0,x15,910
    800020d4:	bcf00093          	li	x1,-1073
    800020d8:	99a291b7          	lui	x3,0x99a29
    800020dc:	a921a093          	slti	x1,x3,-1390
    800020e0:	40d18233          	sub	x4,x3,x13
    800020e4:	01f0509b          	srliw	x1,x0,0x1f
    800020e8:	01e3511b          	srliw	x2,x6,0x1e
    800020ec:	03b1c133          	div	x2,x3,x27
    800020f0:	41a3d11b          	sraiw	x2,x7,0x1a
    800020f4:	d3014217          	auipc	x4,0xd3014
    800020f8:	40128c3b          	subw	x24,x5,x1
    800020fc:	00233133          	sltu	x2,x6,x2
    80002100:	40215333          	sra	x6,x2,x2
    80002104:	0010d1b3          	srl	x3,x1,x1
    80002108:	40008237          	lui	x4,0x40008
    8000210c:	00420233          	add	x4,x4,x4
    80002110:	f8c21003          	lh	x0,-116(x4) # 40007f8c <_binary_lab3_extra_test_bin_size+0x3ffdf458>
    80002114:	0011d23b          	srlw	x4,x3,x1
    80002118:	0223d133          	divu	x2,x7,x2
    8000211c:	021382b3          	mul	x5,x7,x1
    80002120:	42a14113          	xori	x2,x2,1066
    80002124:	00119f1b          	slliw	x30,x3,0x1
    80002128:	0220f1bb          	remuw	x3,x1,x2
    8000212c:	0010d23b          	srlw	x4,x1,x1
    80002130:	0212d333          	divu	x6,x5,x1
    80002134:	c65051b7          	lui	x3,0xc6505
    80002138:	002116b3          	sll	x13,x2,x2
    8000213c:	5f426193          	ori	x3,x4,1524
    80002140:	00007463          	bgeu	x0,x0,80002148 <_binary_lab3_extra_test_bin_start+0x2148>
    80002144:	00006263          	bltu	x0,x0,80002148 <_binary_lab3_extra_test_bin_start+0x2148>
    80002148:	d3c05197          	auipc	x3,0xd3c05
    8000214c:	0241d193          	srli	x3,x3,0x24
    80002150:	0222d0bb          	divuw	x1,x5,x2
    80002154:	0156909b          	slliw	x1,x13,0x15
    80002158:	44690497          	auipc	x9,0x44690
    8000215c:	7783019b          	addiw	x3,x6,1912
    80002160:	02017133          	remu	x2,x2,x0
    80002164:	400081b7          	lui	x3,0x40008
    80002168:	003181b3          	add	x3,x3,x3
    8000216c:	f801b083          	ld	x1,-128(x3) # 40007f80 <_binary_lab3_extra_test_bin_size+0x3ffdf44c>
    80002170:	4011d2bb          	sraw	x5,x3,x1
    80002174:	eba07193          	andi	x3,x0,-326
    80002178:	021370b3          	remu	x1,x6,x1
    8000217c:	0011d0bb          	srlw	x1,x3,x1
    80002180:	38517193          	andi	x3,x2,901
    80002184:	0160d09b          	srliw	x1,x1,0x16
    80002188:	a08f20b7          	lui	x1,0xa08f2
    8000218c:	40208b33          	sub	x22,x1,x2
    80002190:	00d09013          	slli	x0,x1,0xd
    80002194:	002370b3          	and	x1,x6,x2
    80002198:	400082b7          	lui	x5,0x40008
    8000219c:	005282b3          	add	x5,x5,x5
    800021a0:	f882b003          	ld	x0,-120(x5) # 40007f88 <_binary_lab3_extra_test_bin_size+0x3ffdf454>
    800021a4:	4bf78217          	auipc	x4,0x4bf78
    800021a8:	400081b7          	lui	x3,0x40008
    800021ac:	003181b3          	add	x3,x3,x3
    800021b0:	f8719123          	sh	x7,-126(x3) # 40007f82 <_binary_lab3_extra_test_bin_size+0x3ffdf44e>
    800021b4:	0220c0bb          	divw	x1,x1,x2
    800021b8:	400080b7          	lui	x1,0x40008
    800021bc:	001080b3          	add	x1,x1,x1
    800021c0:	f820b023          	sd	x2,-128(x1) # 40007f80 <_binary_lab3_extra_test_bin_size+0x3ffdf44c>
    800021c4:	49a1c193          	xori	x3,x3,1178
    800021c8:	00208263          	beq	x1,x2,800021cc <_binary_lab3_extra_test_bin_start+0x21cc>
    800021cc:	f10ff16f          	jal	x2,800018dc <_binary_lab3_extra_test_bin_start+0x18dc>
    800021d0:	88c08093          	addi	x1,x1,-1908
    800021d4:	00419133          	sll	x2,x3,x4
    800021d8:	415dc1b7          	lui	x3,0x415dc
    800021dc:	400081b7          	lui	x3,0x40008
    800021e0:	003181b3          	add	x3,x3,x3
    800021e4:	f821c103          	lbu	x2,-126(x3) # 40007f82 <_binary_lab3_extra_test_bin_size+0x3ffdf44e>
    800021e8:	4002d113          	srai	x2,x5,0x0
    800021ec:	024451b3          	divu	x3,x8,x4
    800021f0:	35f1e313          	ori	x6,x3,863
    800021f4:	02f19293          	slli	x5,x3,0x2f
    800021f8:	2311059b          	addiw	x11,x2,561
    800021fc:	063091b7          	lui	x3,0x6309
    80002200:	a7a5a0b7          	lui	x1,0xa7a5a
    80002204:	0220d0b3          	divu	x1,x1,x2
    80002208:	f447b237          	lui	x4,0xf447b
    8000220c:	000192bb          	sllw	x5,x3,x0
    80002210:	01b3919b          	slliw	x3,x7,0x1b
    80002214:	002121b3          	slt	x3,x2,x2
    80002218:	02314133          	div	x2,x2,x3
    8000221c:	b053a1b7          	lui	x3,0xb053a
    80002220:	60f58297          	auipc	x5,0x60f58
    80002224:	6c5d819b          	addiw	x3,x27,1733 # ffffffff81b5a295 <_binary_lab3_extra_test_bin_end+0xffffffff01b31761>
    80002228:	00710033          	add	x0,x2,x7
    8000222c:	002213b3          	sll	x7,x4,x2
    80002230:	0231f13b          	remuw	x2,x3,x3
    80002234:	0231c133          	div	x2,x3,x3
    80002238:	4030d1bb          	sraw	x3,x1,x3
    8000223c:	02110fb3          	mul	x31,x2,x1
    80002240:	00c0d39b          	srliw	x7,x1,0xc
    80002244:	005171b3          	and	x3,x2,x5
    80002248:	70c14193          	xori	x3,x2,1804
    8000224c:	0010813b          	addw	x2,x1,x1
    80002250:	0210413b          	divw	x2,x0,x1
    80002254:	00d11e9b          	slliw	x29,x2,0xd
    80002258:	400080b7          	lui	x1,0x40008
    8000225c:	001080b3          	add	x1,x1,x1
    80002260:	f830b423          	sd	x3,-120(x1) # 40007f88 <_binary_lab3_extra_test_bin_size+0x3ffdf454>
    80002264:	00608263          	beq	x1,x6,80002268 <_binary_lab3_extra_test_bin_start+0x2268>
    80002268:	201001ef          	jal	x3,80002c68 <_binary_lab3_extra_test_bin_start+0x2c68>
    8000226c:	0051139b          	slliw	x7,x2,0x5
    80002270:	00516833          	or	x16,x2,x5
    80002274:	0220e13b          	remw	x2,x1,x2
    80002278:	43505193          	srai	x3,x0,0x35
    8000227c:	0030b0b3          	sltu	x1,x1,x3
    80002280:	0216efb3          	rem	x31,x13,x1
    80002284:	0211f033          	remu	x0,x3,x1
    80002288:	023083bb          	mulw	x7,x1,x3
    8000228c:	003230b3          	sltu	x1,x4,x3
    80002290:	400080b7          	lui	x1,0x40008
    80002294:	001080b3          	add	x1,x1,x1
    80002298:	f830a023          	sw	x3,-128(x1) # 40007f80 <_binary_lab3_extra_test_bin_size+0x3ffdf44c>
    8000229c:	0060d13b          	srlw	x2,x1,x6
    800022a0:	029143b3          	div	x7,x2,x9
    800022a4:	78d30b93          	addi	x23,x6,1933
    800022a8:	014bd117          	auipc	x2,0x14bd
    800022ac:	00711293          	slli	x5,x2,0x7
    800022b0:	4056d1bb          	sraw	x3,x13,x5
    800022b4:	00c0d09b          	srliw	x1,x1,0xc
    800022b8:	400081b7          	lui	x3,0x40008
    800022bc:	003181b3          	add	x3,x3,x3
    800022c0:	f8e1d183          	lhu	x3,-114(x3) # 40007f8e <_binary_lab3_extra_test_bin_size+0x3ffdf45a>
    800022c4:	0231e0bb          	remw	x1,x3,x3
    800022c8:	021151b3          	divu	x3,x2,x1
    800022cc:	003110bb          	sllw	x1,x2,x3
    800022d0:	4011803b          	subw	x0,x3,x1
    800022d4:	400081b7          	lui	x3,0x40008
    800022d8:	003181b3          	add	x3,x3,x3
    800022dc:	f8018723          	sb	x0,-114(x3) # 40007f8e <_binary_lab3_extra_test_bin_size+0x3ffdf45a>
    800022e0:	b5bc72b7          	lui	x5,0xb5bc7
    800022e4:	402181b3          	sub	x3,x3,x2
    800022e8:	007491b3          	sll	x3,x9,x7
    800022ec:	6cee4197          	auipc	x3,0x6cee4
    800022f0:	4026d8bb          	sraw	x17,x13,x2
    800022f4:	00222133          	slt	x2,x4,x2
    800022f8:	00010113          	mv	x2,x2
    800022fc:	74210663          	beq	x2,x2,80002a48 <_binary_lab3_extra_test_bin_start+0x2a48>
    80002300:	0060b0b3          	sltu	x1,x1,x6
    80002304:	2752f193          	andi	x3,x5,629
    80002308:	406000bb          	negw	x1,x6
    8000230c:	8554d297          	auipc	x5,0x8554d
    80002310:	db3a00b7          	lui	x1,0xdb3a0
    80002314:	b8d55317          	auipc	x6,0xb8d55
    80002318:	001100b3          	add	x1,x2,x1
    8000231c:	401000b3          	neg	x1,x1
    80002320:	023200b3          	mul	x1,x4,x3
    80002324:	40008337          	lui	x6,0x40008
    80002328:	00630333          	add	x6,x6,x6
    8000232c:	f8832103          	lw	x2,-120(x6) # 40007f88 <_binary_lab3_extra_test_bin_size+0x3ffdf454>
    80002330:	8a723113          	sltiu	x2,x4,-1881
    80002334:	41d081b3          	sub	x3,x1,x29
    80002338:	400082b7          	lui	x5,0x40008
    8000233c:	005282b3          	add	x5,x5,x5
    80002340:	f922b023          	sd	x18,-128(x5) # 40007f80 <_binary_lab3_extra_test_bin_size+0x3ffdf44c>
    80002344:	400084b7          	lui	x9,0x40008
    80002348:	009484b3          	add	x9,x9,x9
    8000234c:	f8849383          	lh	x7,-120(x9) # 40007f88 <_binary_lab3_extra_test_bin_size+0x3ffdf454>
    80002350:	2eda1117          	auipc	x2,0x2eda1
    80002354:	0231f233          	remu	x4,x3,x3
    80002358:	0022b0b3          	sltu	x1,x5,x2
    8000235c:	5d46c097          	auipc	x1,0x5d46c
    80002360:	003c20b3          	slt	x1,x24,x3
    80002364:	f41fc297          	auipc	x5,0xf41fc
    80002368:	0211d0bb          	divuw	x1,x3,x1
    8000236c:	400081b7          	lui	x3,0x40008
    80002370:	003181b3          	add	x3,x3,x3
    80002374:	f82184a3          	sb	x2,-119(x3) # 40007f89 <_binary_lab3_extra_test_bin_size+0x3ffdf455>
    80002378:	402200b3          	sub	x1,x4,x2
    8000237c:	9bc37393          	andi	x7,x6,-1604
    80002380:	0069d09b          	srliw	x1,x19,0x6
    80002384:	6afd7e17          	auipc	x28,0x6afd7
    80002388:	002301bb          	addw	x3,x6,x2
    8000238c:	0021a133          	slt	x2,x3,x2
    80002390:	02210e33          	mul	x28,x2,x2
    80002394:	0011d133          	srl	x2,x3,x1
    80002398:	6073fe63          	bgeu	x7,x7,800029b4 <_binary_lab3_extra_test_bin_start+0x29b4>
    8000239c:	6073ec63          	bltu	x7,x7,800029b4 <_binary_lab3_extra_test_bin_start+0x29b4>
    800023a0:	0152c1b3          	xor	x3,x5,x21
    800023a4:	0201e7bb          	remw	x15,x3,x0
    800023a8:	0010d1b3          	srl	x3,x1,x1
    800023ac:	299490b7          	lui	x1,0x29949
    800023b0:	40008337          	lui	x6,0x40008
    800023b4:	00630333          	add	x6,x6,x6
    800023b8:	f8133023          	sd	x1,-128(x6) # 40007f80 <_binary_lab3_extra_test_bin_size+0x3ffdf44c>
    800023bc:	dc89d117          	auipc	x2,0xdc89d
    800023c0:	00230433          	add	x8,x6,x2
    800023c4:	400081b7          	lui	x3,0x40008
    800023c8:	003181b3          	add	x3,x3,x3
    800023cc:	f881b183          	ld	x3,-120(x3) # 40007f88 <_binary_lab3_extra_test_bin_size+0x3ffdf454>
    800023d0:	0021513b          	srlw	x2,x2,x2
    800023d4:	e3f55497          	auipc	x9,0xe3f55
    800023d8:	8d37d197          	auipc	x3,0x8d37d
    800023dc:	40008637          	lui	x12,0x40008
    800023e0:	00c60633          	add	x12,x12,x12
    800023e4:	f8463423          	sd	x4,-120(x12) # 40007f88 <_binary_lab3_extra_test_bin_size+0x3ffdf454>
    800023e8:	02117e33          	remu	x28,x2,x1
    800023ec:	35fe8193          	addi	x3,x29,863
    800023f0:	025cc0b3          	div	x1,x25,x5
    800023f4:	57b08113          	addi	x2,x1,1403 # 2994957b <_binary_lab3_extra_test_bin_size+0x29920a47>
    800023f8:	6fc1a213          	slti	x4,x3,1788
    800023fc:	401380bb          	subw	x1,x7,x1
    80002400:	0011f0b3          	and	x1,x3,x1
    80002404:	eeb272b7          	lui	x5,0xeeb27
    80002408:	40008137          	lui	x2,0x40008
    8000240c:	00210133          	add	x2,x2,x2
    80002410:	f8110223          	sb	x1,-124(x2) # 40007f84 <_binary_lab3_extra_test_bin_size+0x3ffdf450>
    80002414:	4040d21b          	sraiw	x4,x1,0x4
    80002418:	00819f9b          	slliw	x31,x3,0x8
    8000241c:	400080b7          	lui	x1,0x40008
    80002420:	001080b3          	add	x1,x1,x1
    80002424:	f880b203          	ld	x4,-120(x1) # 40007f88 <_binary_lab3_extra_test_bin_size+0x3ffdf454>
    80002428:	0011913b          	sllw	x2,x3,x1
    8000242c:	7a31fc63          	bgeu	x3,x3,80002be4 <_binary_lab3_extra_test_bin_start+0x2be4>
    80002430:	7a31ea63          	bltu	x3,x3,80002be4 <_binary_lab3_extra_test_bin_start+0x2be4>
    80002434:	007ba333          	slt	x6,x23,x7
    80002438:	0170d09b          	srliw	x1,x1,0x17
    8000243c:	00218c33          	add	x24,x3,x2
    80002440:	023081bb          	mulw	x3,x1,x3
    80002444:	01c15113          	srli	x2,x2,0x1c
    80002448:	00d3911b          	slliw	x2,x7,0xd
    8000244c:	400081b7          	lui	x3,0x40008
    80002450:	003181b3          	add	x3,x3,x3
    80002454:	f801b103          	ld	x2,-128(x3) # 40007f80 <_binary_lab3_extra_test_bin_size+0x3ffdf44c>
    80002458:	0213813b          	mulw	x2,x7,x1
    8000245c:	0001f3b3          	and	x7,x3,x0
    80002460:	4160519b          	sraiw	x3,x0,0x16
    80002464:	020154bb          	divuw	x9,x2,x0
    80002468:	9001009b          	addiw	x1,x2,-1792
    8000246c:	50029097          	auipc	x1,0x50029
    80002470:	7383f1b7          	lui	x3,0x7383f
    80002474:	023de3bb          	remw	x7,x27,x3
    80002478:	005c21b3          	slt	x3,x24,x5
    8000247c:	cef3019b          	addiw	x3,x6,-785
    80002480:	9022819b          	addiw	x3,x5,-1790 # ffffffffeeb26902 <_binary_lab3_extra_test_bin_end+0xffffffff6eafddce>
    80002484:	005112bb          	sllw	x5,x2,x5
    80002488:	911861b7          	lui	x3,0x91186
    8000248c:	400080b7          	lui	x1,0x40008
    80002490:	001080b3          	add	x1,x1,x1
    80002494:	f860b023          	sd	x6,-128(x1) # 40007f80 <_binary_lab3_extra_test_bin_size+0x3ffdf44c>
    80002498:	003681bb          	addw	x3,x13,x3
    8000249c:	1799e217          	auipc	x4,0x1799e
    800024a0:	0236d0bb          	divuw	x1,x13,x3
    800024a4:	0041c133          	xor	x2,x3,x4
    800024a8:	a111a093          	slti	x1,x3,-1519
    800024ac:	0dc17137          	lui	x2,0xdc17
    800024b0:	0031a1b3          	slt	x3,x3,x3
    800024b4:	6a608263          	beq	x1,x6,80002b58 <_binary_lab3_extra_test_bin_start+0x2b58>
    800024b8:	6a0001ef          	jal	x3,80002b58 <_binary_lab3_extra_test_bin_start+0x2b58>
    800024bc:	1870b013          	sltiu	x0,x1,391
    800024c0:	20c7e113          	ori	x2,x15,524
    800024c4:	809fc197          	auipc	x3,0x809fc
    800024c8:	4160d19b          	sraiw	x3,x1,0x16
    800024cc:	403351bb          	sraw	x3,x6,x3
    800024d0:	00106133          	or	x2,x0,x1
    800024d4:	0233e233          	rem	x4,x7,x3
    800024d8:	0210c1b3          	div	x3,x1,x1
    800024dc:	0031d1b3          	srl	x3,x3,x3
    800024e0:	400080b7          	lui	x1,0x40008
    800024e4:	001080b3          	add	x1,x1,x1
    800024e8:	f8409103          	lh	x2,-124(x1) # 40007f84 <_binary_lab3_extra_test_bin_size+0x3ffdf450>
    800024ec:	4001d1b3          	sra	x3,x3,x0
    800024f0:	a6947213          	andi	x4,x8,-1431
    800024f4:	0292c0bb          	divw	x1,x5,x9
    800024f8:	4001803b          	subw	x0,x3,x0
    800024fc:	cd71b293          	sltiu	x5,x3,-809
    80002500:	001192b3          	sll	x5,x3,x1
    80002504:	0076b1b3          	sltu	x3,x13,x7
    80002508:	400082b7          	lui	x5,0x40008
    8000250c:	005282b3          	add	x5,x5,x5
    80002510:	f862c003          	lbu	x0,-122(x5) # 40007f86 <_binary_lab3_extra_test_bin_size+0x3ffdf452>
    80002514:	400080b7          	lui	x1,0x40008
    80002518:	001080b3          	add	x1,x1,x1
    8000251c:	f880b183          	ld	x3,-120(x1) # 40007f88 <_binary_lab3_extra_test_bin_size+0x3ffdf454>
    80002520:	00311133          	sll	x2,x2,x3
    80002524:	40008137          	lui	x2,0x40008
    80002528:	00210133          	add	x2,x2,x2
    8000252c:	f8313023          	sd	x3,-128(x2) # 40007f80 <_binary_lab3_extra_test_bin_size+0x3ffdf44c>
    80002530:	022351bb          	divuw	x3,x6,x2
    80002534:	0261513b          	divuw	x2,x2,x6
    80002538:	10317663          	bgeu	x2,x3,80002644 <_binary_lab3_extra_test_bin_start+0x2644>
    8000253c:	10316463          	bltu	x2,x3,80002644 <_binary_lab3_extra_test_bin_start+0x2644>
    80002540:	0033b0b3          	sltu	x1,x7,x3
    80002544:	001101bb          	addw	x3,x2,x1
    80002548:	00819113          	slli	x2,x3,0x8
    8000254c:	022181bb          	mulw	x3,x3,x2
    80002550:	0211e033          	rem	x0,x3,x1
    80002554:	7168b017          	auipc	x0,0x7168b
    80002558:	eb15a193          	slti	x3,x11,-335
    8000255c:	0030e2b3          	or	x5,x1,x3
    80002560:	00d11193          	slli	x3,x2,0xd
    80002564:	2aa0e097          	auipc	x1,0x2aa0e
    80002568:	40008337          	lui	x6,0x40008
    8000256c:	00630333          	add	x6,x6,x6
    80002570:	f8430103          	lb	x2,-124(x6) # 40007f84 <_binary_lab3_extra_test_bin_size+0x3ffdf450>
    80002574:	36214193          	xori	x3,x2,866
    80002578:	00b0939b          	slliw	x7,x1,0xb
    8000257c:	b1710093          	addi	x1,x2,-1257
    80002580:	0000e1b3          	or	x3,x1,x0
    80002584:	0010a0b3          	slt	x1,x1,x1
    80002588:	39d1c113          	xori	x2,x3,925
    8000258c:	0220d1bb          	divuw	x3,x1,x2
    80002590:	40338033          	sub	x0,x7,x3
    80002594:	03815193          	srli	x3,x2,0x38
    80002598:	40008137          	lui	x2,0x40008
    8000259c:	00210133          	add	x2,x2,x2
    800025a0:	f8013183          	ld	x3,-128(x2) # 40007f80 <_binary_lab3_extra_test_bin_size+0x3ffdf44c>
    800025a4:	b6e0e293          	ori	x5,x1,-1170
    800025a8:	0216d13b          	divuw	x2,x13,x1
    800025ac:	026141bb          	divw	x3,x2,x6
    800025b0:	00000117          	auipc	x2,0x0
    800025b4:	1bc106e7          	jalr	x13,444(x2) # 8000276c <_binary_lab3_extra_test_bin_start+0x276c>
    800025b8:	400085b7          	lui	x11,0x40008
    800025bc:	00b585b3          	add	x11,x11,x11
    800025c0:	f835a023          	sw	x3,-128(x11) # 40007f80 <_binary_lab3_extra_test_bin_size+0x3ffdf44c>
    800025c4:	02c1f1bb          	remuw	x3,x3,x12
    800025c8:	3ee0c693          	xori	x13,x1,1006
    800025cc:	53932493          	slti	x9,x6,1337
    800025d0:	0cb040b7          	lui	x1,0xcb04
    800025d4:	0030903b          	sllw	x0,x1,x3
    800025d8:	02321593          	slli	x11,x4,0x23
    800025dc:	0001119b          	slliw	x3,x2,0x0
    800025e0:	cf61809b          	addiw	x1,x3,-778 # 9fe1ba <_binary_lab3_extra_test_bin_size+0x9d5686>
    800025e4:	0222e1bb          	remw	x3,x5,x2
    800025e8:	406250b3          	sra	x1,x4,x6
    800025ec:	400081b7          	lui	x3,0x40008
    800025f0:	003181b3          	add	x3,x3,x3
    800025f4:	f8518183          	lb	x3,-123(x3) # 40007f85 <_binary_lab3_extra_test_bin_size+0x3ffdf451>
    800025f8:	4c01f017          	auipc	x0,0x4c01f
    800025fc:	021083bb          	mulw	x7,x1,x1
    80002600:	41a1db1b          	sraiw	x22,x3,0x1a
    80002604:	400081b7          	lui	x3,0x40008
    80002608:	003181b3          	add	x3,x3,x3
    8000260c:	f881b203          	ld	x4,-120(x3) # 40007f88 <_binary_lab3_extra_test_bin_size+0x3ffdf454>
    80002610:	400080b7          	lui	x1,0x40008
    80002614:	001080b3          	add	x1,x1,x1
    80002618:	f870a623          	sw	x7,-116(x1) # 40007f8c <_binary_lab3_extra_test_bin_size+0x3ffdf458>
    8000261c:	400081b7          	lui	x3,0x40008
    80002620:	003181b3          	add	x3,x3,x3
    80002624:	f82184a3          	sb	x2,-119(x3) # 40007f89 <_binary_lab3_extra_test_bin_size+0x3ffdf455>
    80002628:	0211d0b3          	divu	x1,x3,x1
    8000262c:	07cf5317          	auipc	x6,0x7cf5
    80002630:	0030d13b          	srlw	x2,x1,x3
    80002634:	4604a013          	slti	x0,x9,1120
    80002638:	4011023b          	subw	x4,x2,x1
    8000263c:	00018613          	mv	x12,x3
    80002640:	d63600e3          	beq	x12,x3,800023a0 <_binary_lab3_extra_test_bin_start+0x23a0>
    80002644:	407051bb          	sraw	x3,x0,x7
    80002648:	40008137          	lui	x2,0x40008
    8000264c:	00210133          	add	x2,x2,x2
    80002650:	f8e15183          	lhu	x3,-114(x2) # 40007f8e <_binary_lab3_extra_test_bin_size+0x3ffdf45a>
    80002654:	01b0d093          	srli	x1,x1,0x1b
    80002658:	40008237          	lui	x4,0x40008
    8000265c:	00420233          	add	x4,x4,x4
    80002660:	f8121223          	sh	x1,-124(x4) # 40007f84 <_binary_lab3_extra_test_bin_size+0x3ffdf450>
    80002664:	401180bb          	subw	x1,x3,x1
    80002668:	0003d233          	srl	x4,x7,x0
    8000266c:	ada3011b          	addiw	x2,x6,-1318 # ffffffff87cf7106 <_binary_lab3_extra_test_bin_end+0xffffffff07cce5d2>
    80002670:	0230f13b          	remuw	x2,x1,x3
    80002674:	0150111b          	slliw	x2,x0,0x15
    80002678:	00228133          	add	x2,x5,x2
    8000267c:	0051f133          	and	x2,x3,x5
    80002680:	0062003b          	addw	x0,x4,x6
    80002684:	40008137          	lui	x2,0x40008
    80002688:	00210133          	add	x2,x2,x2
    8000268c:	f8e11083          	lh	x1,-114(x2) # 40007f8e <_binary_lab3_extra_test_bin_size+0x3ffdf45a>
    80002690:	d2bb6317          	auipc	x6,0xd2bb6
    80002694:	02829193          	slli	x3,x5,0x28
    80002698:	94e2c3b7          	lui	x7,0x94e2c
    8000269c:	35a1f193          	andi	x3,x3,858
    800026a0:	c3f08193          	addi	x3,x1,-961
    800026a4:	0013903b          	sllw	x0,x7,x1
    800026a8:	001300bb          	addw	x1,x6,x1
    800026ac:	52606113          	ori	x2,x0,1318
    800026b0:	00f140b3          	xor	x1,x2,x15
    800026b4:	0153911b          	slliw	x2,x7,0x15
    800026b8:	fd96821b          	addiw	x4,x13,-39 # 230197dd <_binary_lab3_extra_test_bin_size+0x22ff0ca9>
    800026bc:	0010a3b3          	slt	x7,x1,x1
    800026c0:	40008237          	lui	x4,0x40008
    800026c4:	00420233          	add	x4,x4,x4
    800026c8:	f8320423          	sb	x3,-120(x4) # 40007f88 <_binary_lab3_extra_test_bin_size+0x3ffdf454>
    800026cc:	5dc4019b          	addiw	x3,x8,1500
    800026d0:	40008137          	lui	x2,0x40008
    800026d4:	00210133          	add	x2,x2,x2
    800026d8:	f8013423          	sd	x0,-120(x2) # 40007f88 <_binary_lab3_extra_test_bin_size+0x3ffdf454>
    800026dc:	d569f097          	auipc	x1,0xd569f
    800026e0:	00238463          	beq	x7,x2,800026e8 <_binary_lab3_extra_test_bin_start+0x26e8>
    800026e4:	004000ef          	jal	800026e8 <_binary_lab3_extra_test_bin_start+0x26e8>
    800026e8:	608e4117          	auipc	x2,0x608e4
    800026ec:	6633d137          	lui	x2,0x6633d
    800026f0:	0030d1b3          	srl	x3,x1,x3
    800026f4:	4002d0bb          	sraw	x1,x5,x0
    800026f8:	0455a137          	lui	x2,0x455a
    800026fc:	400081b7          	lui	x3,0x40008
    80002700:	003181b3          	add	x3,x3,x3
    80002704:	f881b183          	ld	x3,-120(x3) # 40007f88 <_binary_lab3_extra_test_bin_size+0x3ffdf454>
    80002708:	8d03e113          	ori	x2,x7,-1840
    8000270c:	80b082b7          	lui	x5,0x80b08
    80002710:	40008137          	lui	x2,0x40008
    80002714:	00210133          	add	x2,x2,x2
    80002718:	f8813183          	ld	x3,-120(x2) # 40007f88 <_binary_lab3_extra_test_bin_size+0x3ffdf454>
    8000271c:	40310333          	sub	x6,x2,x3
    80002720:	4013d13b          	sraw	x2,x7,x1
    80002724:	0031109b          	slliw	x1,x2,0x3
    80002728:	59c2a117          	auipc	x2,0x59c2a
    8000272c:	0269c137          	lui	x2,0x269c
    80002730:	00314113          	xori	x2,x2,3
    80002734:	b6e07137          	lui	x2,0xb6e07
    80002738:	022371b3          	remu	x3,x6,x2
    8000273c:	f6d6e093          	ori	x1,x13,-147
    80002740:	40f0d11b          	sraiw	x2,x1,0xf
    80002744:	c581c137          	lui	x2,0xc581c
    80002748:	00f041b3          	xor	x3,x0,x15
    8000274c:	001581bb          	addw	x3,x11,x1
    80002750:	0213d0b3          	divu	x1,x7,x1
    80002754:	0014a333          	slt	x6,x9,x1
    80002758:	4021813b          	subw	x2,x3,x2
    8000275c:	cac5c1b7          	lui	x3,0xcac5c
    80002760:	36fe9037          	lui	x0,0x36fe9
    80002764:	b8028ee3          	beqz	x5,80002300 <_binary_lab3_extra_test_bin_start+0x2300>
    80002768:	b99ff0ef          	jal	80002300 <_binary_lab3_extra_test_bin_start+0x2300>
    8000276c:	d19bf137          	lui	x2,0xd19bf
    80002770:	41a0d39b          	sraiw	x7,x1,0x1a
    80002774:	4020d1b3          	sra	x3,x1,x2
    80002778:	0221e133          	rem	x2,x3,x2
    8000277c:	36ff4237          	lui	x4,0x36ff4
    80002780:	6b2026b7          	lui	x13,0x6b202
    80002784:	001190b3          	sll	x1,x3,x1
    80002788:	0041b1b3          	sltu	x3,x3,x4
    8000278c:	003142b3          	xor	x5,x2,x3
    80002790:	42335093          	srai	x1,x6,0x23
    80002794:	00431113          	slli	x2,x6,0x4
    80002798:	41c0d09b          	sraiw	x1,x1,0x1c
    8000279c:	0261f133          	remu	x2,x3,x6
    800027a0:	00309333          	sll	x6,x1,x3
    800027a4:	418150b3          	sra	x1,x2,x24
    800027a8:	400081b7          	lui	x3,0x40008
    800027ac:	003181b3          	add	x3,x3,x3
    800027b0:	f80182a3          	sb	x0,-123(x3) # 40007f85 <_binary_lab3_extra_test_bin_size+0x3ffdf451>
    800027b4:	400081b7          	lui	x3,0x40008
    800027b8:	003181b3          	add	x3,x3,x3
    800027bc:	f831b423          	sd	x3,-120(x3) # 40007f88 <_binary_lab3_extra_test_bin_size+0x3ffdf454>
    800027c0:	aae1021b          	addiw	x4,x2,-1362 # ffffffffd19beaae <_binary_lab3_extra_test_bin_end+0xffffffff51995f7a>
    800027c4:	99310793          	addi	x15,x2,-1645
    800027c8:	4031013b          	subw	x2,x2,x3
    800027cc:	b8b07193          	andi	x3,x0,-1141
    800027d0:	402381bb          	subw	x3,x7,x2
    800027d4:	20f19337          	lui	x6,0x20f19
    800027d8:	022e01bb          	mulw	x3,x28,x2
    800027dc:	3f670117          	auipc	x2,0x3f670
    800027e0:	4030d1b3          	sra	x3,x1,x3
    800027e4:	4032d033          	sra	x0,x5,x3
    800027e8:	021380bb          	mulw	x1,x7,x1
    800027ec:	405181b3          	sub	x3,x3,x5
    800027f0:	257b8a97          	auipc	x21,0x257b8
    800027f4:	00000297          	auipc	x5,0x0
    800027f8:	dc4282e7          	jalr	x5,-572(x5) # 800025b8 <_binary_lab3_extra_test_bin_start+0x25b8>
    800027fc:	001050bb          	srlw	x1,x0,x1
    80002800:	400080b7          	lui	x1,0x40008
    80002804:	001080b3          	add	x1,x1,x1
    80002808:	f880b183          	ld	x3,-120(x1) # 40007f88 <_binary_lab3_extra_test_bin_size+0x3ffdf454>
    8000280c:	0041d1b3          	srl	x3,x3,x4
    80002810:	01c2919b          	slliw	x3,x5,0x1c
    80002814:	02809093          	slli	x1,x1,0x28
    80002818:	edb0c193          	xori	x3,x1,-293
    8000281c:	00214133          	xor	x2,x2,x2
    80002820:	90c1e013          	ori	x0,x3,-1780
    80002824:	61e56137          	lui	x2,0x61e56
    80002828:	0223e133          	rem	x2,x7,x2
    8000282c:	7bc16093          	ori	x1,x2,1980
    80002830:	bc532117          	auipc	x2,0xbc532
    80002834:	faa54137          	lui	x2,0xfaa54
    80002838:	15fb7117          	auipc	x2,0x15fb7
    8000283c:	0244f1b3          	remu	x3,x9,x4
    80002840:	0017c133          	xor	x2,x15,x1
    80002844:	021101b3          	mul	x3,x2,x1
    80002848:	c951009b          	addiw	x1,x2,-875 # ffffffff95fb94cd <_binary_lab3_extra_test_bin_end+0xffffffff15f90999>
    8000284c:	403150bb          	sraw	x1,x2,x3
    80002850:	021081bb          	mulw	x3,x1,x1
    80002854:	40115bbb          	sraw	x23,x2,x1
    80002858:	0031c4b3          	xor	x9,x3,x3
    8000285c:	0031c133          	xor	x2,x3,x3
    80002860:	0061f0b3          	and	x1,x3,x6
    80002864:	cc2c2113          	slti	x2,x24,-830
    80002868:	400080b7          	lui	x1,0x40008
    8000286c:	001080b3          	add	x1,x1,x1
    80002870:	f880b103          	ld	x2,-120(x1) # 40007f88 <_binary_lab3_extra_test_bin_size+0x3ffdf454>
    80002874:	025891b7          	lui	x3,0x2589
    80002878:	003121b3          	slt	x3,x2,x3
    8000287c:	40008137          	lui	x2,0x40008
    80002880:	00210133          	add	x2,x2,x2
    80002884:	f8a12023          	sw	x10,-128(x2) # 40007f80 <_binary_lab3_extra_test_bin_size+0x3ffdf44c>
    80002888:	00008393          	mv	x7,x1
    8000288c:	ba1384e3          	beq	x7,x1,80002434 <_binary_lab3_extra_test_bin_start+0x2434>
    80002890:	0161511b          	srliw	x2,x2,0x16
    80002894:	7b22d237          	lui	x4,0x7b22d
    80002898:	023154bb          	divuw	x9,x2,x3
    8000289c:	0051529b          	srliw	x5,x2,0x5
    800028a0:	01831093          	slli	x1,x6,0x18
    800028a4:	1bf2d337          	lui	x6,0x1bf2d
    800028a8:	02016333          	rem	x6,x2,x0
    800028ac:	0211e03b          	remw	x0,x3,x1
    800028b0:	021081bb          	mulw	x3,x1,x1
    800028b4:	26c1a093          	slti	x1,x3,620
    800028b8:	0020d0b3          	srl	x1,x1,x2
    800028bc:	0030e333          	or	x6,x1,x3
    800028c0:	4030d133          	sra	x2,x1,x3
    800028c4:	02119113          	slli	x2,x3,0x21
    800028c8:	89a18193          	addi	x3,x3,-1894 # 258889a <_binary_lab3_extra_test_bin_size+0x255fd66>
    800028cc:	402081b3          	sub	x3,x1,x2
    800028d0:	a425b093          	sltiu	x1,x11,-1470
    800028d4:	36c2e093          	ori	x1,x5,876
    800028d8:	01809113          	slli	x2,x1,0x18
    800028dc:	40008237          	lui	x4,0x40008
    800028e0:	00420233          	add	x4,x4,x4
    800028e4:	f8f20203          	lb	x4,-113(x4) # 40007f8f <_binary_lab3_extra_test_bin_size+0x3ffdf45b>
    800028e8:	403151bb          	sraw	x3,x2,x3
    800028ec:	4021513b          	sraw	x2,x2,x2
    800028f0:	2d44a1b7          	lui	x3,0x2d44a
    800028f4:	403203b3          	sub	x7,x4,x3
    800028f8:	c4bed2b7          	lui	x5,0xc4bed
    800028fc:	03126313          	ori	x6,x4,49
    80002900:	95640093          	addi	x1,x8,-1706
    80002904:	00116133          	or	x2,x2,x1
    80002908:	0221e1b3          	rem	x3,x3,x2
    8000290c:	0073a0b3          	slt	x1,x7,x7
    80002910:	0211e333          	rem	x6,x3,x1
    80002914:	0251003b          	mulw	x0,x2,x5
    80002918:	00000197          	auipc	x3,0x0
    8000291c:	ee4183e7          	jalr	x7,-284(x3) # 800027fc <_binary_lab3_extra_test_bin_start+0x27fc>
    80002920:	005091b3          	sll	x3,x1,x5
    80002924:	f5090097          	auipc	x1,0xf5090
    80002928:	400086b7          	lui	x13,0x40008
    8000292c:	00d686b3          	add	x13,x13,x13
    80002930:	f8069323          	sh	x0,-122(x13) # 40007f86 <_binary_lab3_extra_test_bin_size+0x3ffdf452>
    80002934:	002110b3          	sll	x1,x2,x2
    80002938:	400089b7          	lui	x19,0x40008
    8000293c:	013989b3          	add	x19,x19,x19
    80002940:	f8c99083          	lh	x1,-116(x19) # 40007f8c <_binary_lab3_extra_test_bin_size+0x3ffdf458>
    80002944:	400089b7          	lui	x19,0x40008
    80002948:	013989b3          	add	x19,x19,x19
    8000294c:	f809b083          	ld	x1,-128(x19) # 40007f80 <_binary_lab3_extra_test_bin_size+0x3ffdf44c>
    80002950:	400081b7          	lui	x3,0x40008
    80002954:	003181b3          	add	x3,x3,x3
    80002958:	f881b083          	ld	x1,-120(x3) # 40007f88 <_binary_lab3_extra_test_bin_size+0x3ffdf454>
    8000295c:	4e0fc237          	lui	x4,0x4e0fc
    80002960:	0231fc3b          	remuw	x24,x3,x3
    80002964:	0071b033          	sltu	x0,x3,x7
    80002968:	002081bb          	addw	x3,x1,x2
    8000296c:	0042919b          	slliw	x3,x5,0x4
    80002970:	0032d1bb          	srlw	x3,x5,x3
    80002974:	023165b3          	rem	x11,x2,x3
    80002978:	001d11b3          	sll	x3,x26,x1
    8000297c:	022300b3          	mul	x1,x6,x2
    80002980:	3a6b8117          	auipc	x2,0x3a6b8
    80002984:	19e47137          	lui	x2,0x19e47
    80002988:	002080b3          	add	x1,x1,x2
    8000298c:	022140bb          	divw	x1,x2,x2
    80002990:	0281f233          	remu	x4,x3,x8
    80002994:	002110bb          	sllw	x1,x2,x2
    80002998:	4073d0b3          	sra	x1,x7,x7
    8000299c:	01a1d6bb          	srlw	x13,x3,x26
    800029a0:	0070b1b3          	sltu	x3,x1,x7
    800029a4:	0021919b          	slliw	x3,x3,0x2
    800029a8:	003100b3          	add	x1,x2,x3
    800029ac:	823102e3          	beq	x2,x3,800021d0 <_binary_lab3_extra_test_bin_start+0x21d0>
    800029b0:	821ff0ef          	jal	800021d0 <_binary_lab3_extra_test_bin_start+0x21d0>
    800029b4:	400080b7          	lui	x1,0x40008
    800029b8:	001080b3          	add	x1,x1,x1
    800029bc:	f810b023          	sd	x1,-128(x1) # 40007f80 <_binary_lab3_extra_test_bin_size+0x3ffdf44c>
    800029c0:	015cd39b          	srliw	x7,x25,0x15
    800029c4:	00214133          	xor	x2,x2,x2
    800029c8:	00b1511b          	srliw	x2,x2,0xb
    800029cc:	03423213          	sltiu	x4,x4,52
    800029d0:	412182bb          	subw	x5,x3,x18
    800029d4:	01a11c3b          	sllw	x24,x2,x26
    800029d8:	400081b7          	lui	x3,0x40008
    800029dc:	003181b3          	add	x3,x3,x3
    800029e0:	f801b083          	ld	x1,-128(x3) # 40007f80 <_binary_lab3_extra_test_bin_size+0x3ffdf44c>
    800029e4:	7fce3117          	auipc	x2,0x7fce3
    800029e8:	d9e1a093          	slti	x1,x3,-610
    800029ec:	03e0c133          	div	x2,x1,x30
    800029f0:	0020511b          	srliw	x2,x0,0x2
    800029f4:	00809013          	slli	x0,x1,0x8
    800029f8:	b44500b7          	lui	x1,0xb4450
    800029fc:	4c513113          	sltiu	x2,x2,1221
    80002a00:	003049b3          	xor	x19,x0,x3
    80002a04:	0210c1b3          	div	x3,x1,x1
    80002a08:	1c4d8197          	auipc	x3,0x1c4d8
    80002a0c:	002110b3          	sll	x1,x2,x2
    80002a10:	400081b7          	lui	x3,0x40008
    80002a14:	003181b3          	add	x3,x3,x3
    80002a18:	f891c003          	lbu	x0,-119(x3) # 40007f89 <_binary_lab3_extra_test_bin_size+0x3ffdf455>
    80002a1c:	401302b3          	sub	x5,x6,x1
    80002a20:	022377b3          	remu	x15,x6,x2
    80002a24:	1360b093          	sltiu	x1,x1,310
    80002a28:	3d98a337          	lui	x6,0x3d98a
    80002a2c:	5c917313          	andi	x6,x2,1481
    80002a30:	40008337          	lui	x6,0x40008
    80002a34:	00630333          	add	x6,x6,x6
    80002a38:	f8133423          	sd	x1,-120(x6) # 40007f88 <_binary_lab3_extra_test_bin_size+0x3ffdf454>
    80002a3c:	402100bb          	subw	x1,x2,x2
    80002a40:	0860f263          	bgeu	x1,x6,80002ac4 <_binary_lab3_extra_test_bin_start+0x2ac4>
    80002a44:	0860e063          	bltu	x1,x6,80002ac4 <_binary_lab3_extra_test_bin_start+0x2ac4>
    80002a48:	ebf3d217          	auipc	x4,0xebf3d
    80002a4c:	0213c2b3          	div	x5,x7,x1
    80002a50:	020182b3          	mul	x5,x3,x0
    80002a54:	0031a0b3          	slt	x1,x3,x3
    80002a58:	61410093          	addi	x1,x2,1556 # ffce5ff8 <_binary_lab3_extra_test_bin_end+0x7fcbd4c4>
    80002a5c:	026151bb          	divuw	x3,x2,x6
    80002a60:	0211f33b          	remuw	x6,x3,x1
    80002a64:	00114333          	xor	x6,x2,x1
    80002a68:	01b280bb          	addw	x1,x5,x27
    80002a6c:	01669113          	slli	x2,x13,0x16
    80002a70:	c380f193          	andi	x3,x1,-968
    80002a74:	c7c74137          	lui	x2,0xc7c74
    80002a78:	400081b7          	lui	x3,0x40008
    80002a7c:	003181b3          	add	x3,x3,x3
    80002a80:	f8b1c483          	lbu	x9,-117(x3) # 40007f8b <_binary_lab3_extra_test_bin_size+0x3ffdf457>
    80002a84:	ab643137          	lui	x2,0xab643
    80002a88:	0010909b          	slliw	x1,x1,0x1
    80002a8c:	6b56e0b7          	lui	x1,0x6b56e
    80002a90:	002081bb          	addw	x3,x1,x2
    80002a94:	40008137          	lui	x2,0x40008
    80002a98:	00210133          	add	x2,x2,x2
    80002a9c:	f8113023          	sd	x1,-128(x2) # 40007f80 <_binary_lab3_extra_test_bin_size+0x3ffdf44c>
    80002aa0:	0211c333          	div	x6,x3,x1
    80002aa4:	4030d2bb          	sraw	x5,x1,x3
    80002aa8:	40008137          	lui	x2,0x40008
    80002aac:	00210133          	add	x2,x2,x2
    80002ab0:	f8d13423          	sd	x13,-120(x2) # 40007f88 <_binary_lab3_extra_test_bin_size+0x3ffdf454>
    80002ab4:	002091b3          	sll	x3,x1,x2
    80002ab8:	f2425137          	lui	x2,0xf2425
    80002abc:	005d8263          	beq	x27,x5,80002ac0 <_binary_lab3_extra_test_bin_start+0x2ac0>
    80002ac0:	2110016f          	jal	x2,800034d0 <_binary_lab3_extra_test_bin_start+0x34d0>
    80002ac4:	400081b7          	lui	x3,0x40008
    80002ac8:	003181b3          	add	x3,x3,x3
    80002acc:	f841e283          	lwu	x5,-124(x3) # 40007f84 <_binary_lab3_extra_test_bin_size+0x3ffdf450>
    80002ad0:	40008137          	lui	x2,0x40008
    80002ad4:	00210133          	add	x2,x2,x2
    80002ad8:	f8613023          	sd	x6,-128(x2) # 40007f80 <_binary_lab3_extra_test_bin_size+0x3ffdf44c>
    80002adc:	00d1509b          	srliw	x1,x2,0xd
    80002ae0:	0070f133          	and	x2,x1,x7
    80002ae4:	0220d1bb          	divuw	x3,x1,x2
    80002ae8:	0221c1b3          	div	x3,x3,x2
    80002aec:	003491bb          	sllw	x3,x9,x3
    80002af0:	42118113          	addi	x2,x3,1057
    80002af4:	0013813b          	addw	x2,x7,x1
    80002af8:	38d30293          	addi	x5,x6,909
    80002afc:	835b2137          	lui	x2,0x835b2
    80002b00:	40008337          	lui	x6,0x40008
    80002b04:	00630333          	add	x6,x6,x6
    80002b08:	f8133423          	sd	x1,-120(x6) # 40007f88 <_binary_lab3_extra_test_bin_size+0x3ffdf454>
    80002b0c:	0231d4b3          	divu	x9,x3,x3
    80002b10:	76212113          	slti	x2,x2,1890
    80002b14:	400080b7          	lui	x1,0x40008
    80002b18:	001080b3          	add	x1,x1,x1
    80002b1c:	f830b423          	sd	x3,-120(x1) # 40007f88 <_binary_lab3_extra_test_bin_size+0x3ffdf454>
    80002b20:	f089d1b7          	lui	x3,0xf089d
    80002b24:	0a02031b          	addiw	x6,x4,160 # 6bf3fae8 <_binary_lab3_extra_test_bin_size+0x6bf16fb4>
    80002b28:	d1e21117          	auipc	x2,0xd1e21
    80002b2c:	514d7097          	auipc	x1,0x514d7
    80002b30:	026160bb          	remw	x1,x2,x6
    80002b34:	03709093          	slli	x1,x1,0x37
    80002b38:	00f0e1b3          	or	x3,x1,x15
    80002b3c:	ef55a093          	slti	x1,x11,-267
    80002b40:	01b0d19b          	srliw	x3,x1,0x1b
    80002b44:	4010d0bb          	sraw	x1,x1,x1
    80002b48:	023175bb          	remuw	x11,x2,x3
    80002b4c:	0030f2b3          	and	x5,x1,x3
    80002b50:	00408263          	beq	x1,x4,80002b54 <_binary_lab3_extra_test_bin_start+0x2b54>
    80002b54:	f18ff16f          	jal	x2,8000226c <_binary_lab3_extra_test_bin_start+0x226c>
    80002b58:	40e0d093          	srai	x1,x1,0xe
    80002b5c:	0002d1bb          	srlw	x3,x5,x0
    80002b60:	40008137          	lui	x2,0x40008
    80002b64:	00210133          	add	x2,x2,x2
    80002b68:	f8211023          	sh	x2,-128(x2) # 40007f80 <_binary_lab3_extra_test_bin_size+0x3ffdf44c>
    80002b6c:	9b63efb7          	lui	x31,0x9b63e
    80002b70:	63e44113          	xori	x2,x8,1598
    80002b74:	002000b3          	add	x1,x0,x2
    80002b78:	0231c0bb          	divw	x1,x3,x3
    80002b7c:	9b31011b          	addiw	x2,x2,-1613
    80002b80:	022c523b          	divuw	x4,x24,x2
    80002b84:	0220e2bb          	remw	x5,x1,x2
    80002b88:	0181909b          	slliw	x1,x3,0x18
    80002b8c:	0270d0bb          	divuw	x1,x1,x7
    80002b90:	40008237          	lui	x4,0x40008
    80002b94:	00420233          	add	x4,x4,x4
    80002b98:	f8720423          	sb	x7,-120(x4) # 40007f88 <_binary_lab3_extra_test_bin_size+0x3ffdf454>
    80002b9c:	406380b3          	sub	x1,x7,x6
    80002ba0:	f0b0021b          	addiw	x4,x0,-245
    80002ba4:	4000d13b          	sraw	x2,x1,x0
    80002ba8:	02315113          	srli	x2,x2,0x23
    80002bac:	402083bb          	subw	x7,x1,x2
    80002bb0:	21114113          	xori	x2,x2,529
    80002bb4:	43115093          	srai	x1,x2,0x31
    80002bb8:	400083b7          	lui	x7,0x40008
    80002bbc:	007383b3          	add	x7,x7,x7
    80002bc0:	f883bc83          	ld	x25,-120(x7) # 40007f88 <_binary_lab3_extra_test_bin_size+0x3ffdf454>
    80002bc4:	023101b3          	mul	x3,x2,x3
    80002bc8:	02217133          	remu	x2,x2,x2
    80002bcc:	0031113b          	sllw	x2,x2,x3
    80002bd0:	01d19093          	slli	x1,x3,0x1d
    80002bd4:	0011d03b          	srlw	x0,x3,x1
    80002bd8:	1cd5c0b7          	lui	x1,0x1cd5c
    80002bdc:	00000117          	auipc	x2,0x0
    80002be0:	d44102e7          	jalr	x5,-700(x2) # 80002920 <_binary_lab3_extra_test_bin_start+0x2920>
    80002be4:	027746bb          	divw	x13,x14,x7
    80002be8:	0210013b          	mulw	x2,x0,x1
    80002bec:	022080bb          	mulw	x1,x1,x2
    80002bf0:	00111133          	sll	x2,x2,x1
    80002bf4:	002294bb          	sllw	x9,x5,x2
    80002bf8:	00b1111b          	slliw	x2,x2,0xb
    80002bfc:	40008137          	lui	x2,0x40008
    80002c00:	00210133          	add	x2,x2,x2
    80002c04:	f8c16083          	lwu	x1,-116(x2) # 40007f8c <_binary_lab3_extra_test_bin_size+0x3ffdf458>
    80002c08:	a1b0b193          	sltiu	x3,x1,-1509
    80002c0c:	400081b7          	lui	x3,0x40008
    80002c10:	003181b3          	add	x3,x3,x3
    80002c14:	f821d103          	lhu	x2,-126(x3) # 40007f82 <_binary_lab3_extra_test_bin_size+0x3ffdf44e>
    80002c18:	0220813b          	mulw	x2,x1,x2
    80002c1c:	021341b3          	div	x3,x6,x1
    80002c20:	0202723b          	remuw	x4,x4,x0
    80002c24:	adf0b113          	sltiu	x2,x1,-1313
    80002c28:	400080b7          	lui	x1,0x40008
    80002c2c:	001080b3          	add	x1,x1,x1
    80002c30:	f830b423          	sd	x3,-120(x1) # 40007f88 <_binary_lab3_extra_test_bin_size+0x3ffdf454>
    80002c34:	00415133          	srl	x2,x2,x4
    80002c38:	4014813b          	subw	x2,x9,x1
    80002c3c:	112fb1b7          	lui	x3,0x112fb
    80002c40:	003191bb          	sllw	x3,x3,x3
    80002c44:	0236f2bb          	remuw	x5,x13,x3
    80002c48:	400081b7          	lui	x3,0x40008
    80002c4c:	003181b3          	add	x3,x3,x3
    80002c50:	f891a223          	sw	x9,-124(x3) # 40007f84 <_binary_lab3_extra_test_bin_size+0x3ffdf450>
    80002c54:	003b51bb          	srlw	x3,x22,x3
    80002c58:	01a0909b          	slliw	x1,x1,0x1a
    80002c5c:	0030e1b3          	or	x3,x1,x3
    80002c60:	8410dee3          	bge	x1,x1,800024bc <_binary_lab3_extra_test_bin_start+0x24bc>
    80002c64:	8410cce3          	blt	x1,x1,800024bc <_binary_lab3_extra_test_bin_start+0x24bc>
    80002c68:	0221c4b3          	div	x9,x3,x2
    80002c6c:	00d0a133          	slt	x2,x1,x13
    80002c70:	21c2d0b7          	lui	x1,0x21c2d
    80002c74:	003100b3          	add	x1,x2,x3
    80002c78:	002691bb          	sllw	x3,x13,x2
    80002c7c:	00212233          	slt	x4,x2,x2
    80002c80:	26662097          	auipc	x1,0x26662
    80002c84:	400080b7          	lui	x1,0x40008
    80002c88:	001080b3          	add	x1,x1,x1
    80002c8c:	f800b083          	ld	x1,-128(x1) # 40007f80 <_binary_lab3_extra_test_bin_size+0x3ffdf44c>
    80002c90:	acce2137          	lui	x2,0xacce2
    80002c94:	4020d0b3          	sra	x1,x1,x2
    80002c98:	021250b3          	divu	x1,x4,x1
    80002c9c:	6751829b          	addiw	x5,x3,1653
    80002ca0:	e153e137          	lui	x2,0xe153e
    80002ca4:	400081b7          	lui	x3,0x40008
    80002ca8:	003181b3          	add	x3,x3,x3
    80002cac:	f841b023          	sd	x4,-128(x3) # 40007f80 <_binary_lab3_extra_test_bin_size+0x3ffdf44c>
    80002cb0:	0064d19b          	srliw	x3,x9,0x6
    80002cb4:	0061e113          	ori	x2,x3,6
    80002cb8:	022171bb          	remuw	x3,x2,x2
    80002cbc:	021171bb          	remuw	x3,x2,x1
    80002cc0:	403100bb          	subw	x1,x2,x3
    80002cc4:	0005d0bb          	srlw	x1,x11,x0
    80002cc8:	00510033          	add	x0,x2,x5
    80002ccc:	0230823b          	mulw	x4,x1,x3
    80002cd0:	003194bb          	sllw	x9,x3,x3
    80002cd4:	027081bb          	mulw	x3,x1,x7
    80002cd8:	21584117          	auipc	x2,0x21584
    80002cdc:	004191bb          	sllw	x3,x3,x4
    80002ce0:	407100b3          	sub	x1,x2,x7
    80002ce4:	40600133          	neg	x2,x6
    80002ce8:	0230d3bb          	divuw	x7,x1,x3
    80002cec:	4016d29b          	sraiw	x5,x13,0x1
    80002cf0:	2f302193          	slti	x3,x0,755
    80002cf4:	843156e3          	bge	x2,x3,80002540 <_binary_lab3_extra_test_bin_start+0x2540>
    80002cf8:	843144e3          	blt	x2,x3,80002540 <_binary_lab3_extra_test_bin_start+0x2540>
    80002cfc:	001351bb          	srlw	x3,x6,x1
    80002d00:	405081bb          	subw	x3,x1,x5
    80002d04:	0290c133          	div	x2,x1,x9
    80002d08:	0030a133          	slt	x2,x1,x3
    80002d0c:	03f10193          	addi	x3,x2,63 # a1586d17 <_binary_lab3_extra_test_bin_end+0x2155e1e3>
    80002d10:	02425bb3          	divu	x23,x4,x4
    80002d14:	03211213          	slli	x4,x2,0x32
    80002d18:	0020b233          	sltu	x4,x1,x2
    80002d1c:	0173111b          	slliw	x2,x6,0x17
    80002d20:	edecc117          	auipc	x2,0xedecc
    80002d24:	0020b0b3          	sltu	x1,x1,x2
    80002d28:	0021f133          	and	x2,x3,x2
    80002d2c:	0011d133          	srl	x2,x3,x1
    80002d30:	00615333          	srl	x6,x2,x6
    80002d34:	40008137          	lui	x2,0x40008
    80002d38:	00210133          	add	x2,x2,x2
    80002d3c:	f8012423          	sw	x0,-120(x2) # 40007f88 <_binary_lab3_extra_test_bin_size+0x3ffdf454>
    80002d40:	002152b3          	srl	x5,x2,x2
    80002d44:	0224f233          	remu	x4,x9,x2
    80002d48:	02711393          	slli	x7,x2,0x27
    80002d4c:	0173939b          	slliw	x7,x7,0x17
    80002d50:	400081b7          	lui	x3,0x40008
    80002d54:	003181b3          	add	x3,x3,x3
    80002d58:	f881a183          	lw	x3,-120(x3) # 40007f88 <_binary_lab3_extra_test_bin_size+0x3ffdf454>
    80002d5c:	40b188bb          	subw	x17,x3,x11
    80002d60:	c48c0097          	auipc	x1,0xc48c0
    80002d64:	041041b7          	lui	x3,0x4104
    80002d68:	8ae8f617          	auipc	x12,0x8ae8f
    80002d6c:	49997597          	auipc	x11,0x49997
    80002d70:	40008237          	lui	x4,0x40008
    80002d74:	00420233          	add	x4,x4,x4
    80002d78:	f9c23023          	sd	x28,-128(x4) # 40007f80 <_binary_lab3_extra_test_bin_size+0x3ffdf44c>
    80002d7c:	73814097          	auipc	x1,0x73814
    80002d80:	c9d6d137          	lui	x2,0xc9d6d
    80002d84:	00000097          	auipc	x1,0x0
    80002d88:	2c4080e7          	jalr	708(x1) # 80003048 <_binary_lab3_extra_test_bin_start+0x3048>
    80002d8c:	009141b3          	xor	x3,x2,x9
    80002d90:	3d8226b7          	lui	x13,0x3d822
    80002d94:	0070f0b3          	and	x1,x1,x7
    80002d98:	e0a16693          	ori	x13,x2,-502
    80002d9c:	61e07297          	auipc	x5,0x61e07
    80002da0:	0230f33b          	remuw	x6,x1,x3
    80002da4:	03a19313          	slli	x6,x3,0x3a
    80002da8:	e7e5f0b7          	lui	x1,0xe7e5f
    80002dac:	c5a20193          	addi	x3,x4,-934 # fffffffffffffc5a <_binary_lab3_extra_test_bin_end+0xffffffff7ffd7126>
    80002db0:	00320133          	add	x2,x4,x3
    80002db4:	cbdd01b7          	lui	x3,0xcbdd0
    80002db8:	dc41e393          	ori	x7,x3,-572
    80002dbc:	02516133          	rem	x2,x2,x5
    80002dc0:	a1c6a117          	auipc	x2,0xa1c6a
    80002dc4:	00303333          	snez	x6,x3
    80002dc8:	02217133          	remu	x2,x2,x2
    80002dcc:	e7812093          	slti	x1,x2,-392
    80002dd0:	bc6cf1b7          	lui	x3,0xbc6cf
    80002dd4:	401d01bb          	subw	x3,x26,x1
    80002dd8:	998060b7          	lui	x1,0x99806
    80002ddc:	0221f0bb          	remuw	x1,x3,x2
    80002de0:	9d0da097          	auipc	x1,0x9d0da
    80002de4:	3f40a213          	slti	x4,x1,1012
    80002de8:	0033d0bb          	srlw	x1,x7,x3
    80002dec:	40115133          	sra	x2,x2,x1
    80002df0:	006380bb          	addw	x1,x7,x6
    80002df4:	5ad1e593          	ori	x11,x3,1453
    80002df8:	4021813b          	subw	x2,x3,x2
    80002dfc:	0820f463          	bgeu	x1,x2,80002e84 <_binary_lab3_extra_test_bin_start+0x2e84>
    80002e00:	0820e263          	bltu	x1,x2,80002e84 <_binary_lab3_extra_test_bin_start+0x2e84>
    80002e04:	0231f0bb          	remuw	x1,x3,x3
    80002e08:	c4bc8113          	addi	x2,x25,-949
    80002e0c:	0031f033          	and	x0,x3,x3
    80002e10:	03c09093          	slli	x1,x1,0x3c
    80002e14:	0061e133          	or	x2,x3,x6
    80002e18:	0033d03b          	srlw	x0,x7,x3
    80002e1c:	022080b3          	mul	x1,x1,x2
    80002e20:	0211513b          	divuw	x2,x2,x1
    80002e24:	006d52b7          	lui	x5,0x6d5
    80002e28:	ed071117          	auipc	x2,0xed071
    80002e2c:	002510b3          	sll	x1,x10,x2
    80002e30:	40008137          	lui	x2,0x40008
    80002e34:	00210133          	add	x2,x2,x2
    80002e38:	f8113023          	sd	x1,-128(x2) # 40007f80 <_binary_lab3_extra_test_bin_size+0x3ffdf44c>
    80002e3c:	0141d19b          	srliw	x3,x3,0x14
    80002e40:	0011f2b3          	and	x5,x3,x1
    80002e44:	0050b1b3          	sltu	x3,x1,x5
    80002e48:	40408033          	sub	x0,x1,x4
    80002e4c:	4a11c113          	xori	x2,x3,1185
    80002e50:	021343bb          	divw	x7,x6,x1
    80002e54:	001150bb          	srlw	x1,x2,x1
    80002e58:	c0f1019b          	addiw	x3,x2,-1009
    80002e5c:	0220e333          	rem	x6,x1,x2
    80002e60:	cc10f393          	andi	x7,x1,-831
    80002e64:	03f1813b          	mulw	x2,x3,x31
    80002e68:	09333213          	sltiu	x4,x6,147
    80002e6c:	400080b7          	lui	x1,0x40008
    80002e70:	001080b3          	add	x1,x1,x1
    80002e74:	f8608723          	sb	x6,-114(x1) # 40007f8e <_binary_lab3_extra_test_bin_size+0x3ffdf45a>
    80002e78:	2472b113          	sltiu	x2,x5,583
    80002e7c:	40401c63          	bne	x0,x4,80003294 <_binary_lab3_extra_test_bin_start+0x3294>
    80002e80:	40400a63          	beq	x0,x4,80003294 <_binary_lab3_extra_test_bin_start+0x3294>
    80002e84:	001151bb          	srlw	x3,x2,x1
    80002e88:	40a0d09b          	sraiw	x1,x1,0xa
    80002e8c:	0330f0bb          	remuw	x1,x1,x19
    80002e90:	0221f1bb          	remuw	x3,x3,x2
    80002e94:	01a180bb          	addw	x1,x3,x26
    80002e98:	80f1e093          	ori	x1,x3,-2033
    80002e9c:	0230f3bb          	remuw	x7,x1,x3
    80002ea0:	0210603b          	remw	x0,x0,x1
    80002ea4:	0040d133          	srl	x2,x1,x4
    80002ea8:	0130d31b          	srliw	x6,x1,0x13
    80002eac:	021241bb          	divw	x3,x4,x1
    80002eb0:	918bd1b7          	lui	x3,0x918bd
    80002eb4:	0020c333          	xor	x6,x1,x2
    80002eb8:	02327c3b          	remuw	x24,x4,x3
    80002ebc:	40008137          	lui	x2,0x40008
    80002ec0:	00210133          	add	x2,x2,x2
    80002ec4:	f8013103          	ld	x2,-128(x2) # 40007f80 <_binary_lab3_extra_test_bin_size+0x3ffdf44c>
    80002ec8:	00515093          	srli	x1,x2,0x5
    80002ecc:	f8150093          	addi	x1,x10,-127 # ffffffffa9980f81 <_binary_lab3_extra_test_bin_end+0xffffffff2995844d>
    80002ed0:	001180bb          	addw	x1,x3,x1
    80002ed4:	0261f13b          	remuw	x2,x3,x6
    80002ed8:	0025d1b3          	srl	x3,x11,x2
    80002edc:	40008137          	lui	x2,0x40008
    80002ee0:	00210133          	add	x2,x2,x2
    80002ee4:	f8212023          	sw	x2,-128(x2) # 40007f80 <_binary_lab3_extra_test_bin_size+0x3ffdf44c>
    80002ee8:	0131109b          	slliw	x1,x2,0x13
    80002eec:	00312133          	slt	x2,x2,x3
    80002ef0:	401100b3          	sub	x1,x2,x1
    80002ef4:	021140bb          	divw	x1,x2,x1
    80002ef8:	0211e2bb          	remw	x5,x3,x1
    80002efc:	00113133          	sltu	x2,x2,x1
    80002f00:	b321809b          	addiw	x1,x3,-1230 # ffffffff918bcb32 <_binary_lab3_extra_test_bin_end+0xffffffff11893ffe>
    80002f04:	0211f1b3          	remu	x3,x3,x1
    80002f08:	0071b1b3          	sltu	x3,x3,x7
    80002f0c:	02310233          	mul	x4,x2,x3
    80002f10:	03208333          	mul	x6,x1,x18
    80002f14:	1c211863          	bne	x2,x2,800030e4 <_binary_lab3_extra_test_bin_start+0x30e4>
    80002f18:	1c210663          	beq	x2,x2,800030e4 <_binary_lab3_extra_test_bin_start+0x30e4>
    80002f1c:	0221f033          	remu	x0,x3,x2
    80002f20:	0220f0b3          	remu	x1,x1,x2
    80002f24:	31456317          	auipc	x6,0x31456
    80002f28:	40008e37          	lui	x28,0x40008
    80002f2c:	01ce0e33          	add	x28,x28,x28
    80002f30:	f81e3423          	sd	x1,-120(x28) # 40007f88 <_binary_lab3_extra_test_bin_size+0x3ffdf454>
    80002f34:	40008137          	lui	x2,0x40008
    80002f38:	00210133          	add	x2,x2,x2
    80002f3c:	f8411003          	lh	x0,-124(x2) # 40007f84 <_binary_lab3_extra_test_bin_size+0x3ffdf450>
    80002f40:	002ab133          	sltu	x2,x21,x2
    80002f44:	005041b3          	xor	x3,x0,x5
    80002f48:	002191b3          	sll	x3,x3,x2
    80002f4c:	085be1b7          	lui	x3,0x85be
    80002f50:	0030c1b3          	xor	x3,x1,x3
    80002f54:	0011a133          	slt	x2,x3,x1
    80002f58:	02d19193          	slli	x3,x3,0x2d
    80002f5c:	7a972117          	auipc	x2,0x7a972
    80002f60:	00212133          	slt	x2,x2,x2
    80002f64:	0241f033          	remu	x0,x3,x4
    80002f68:	d0486017          	auipc	x0,0xd0486
    80002f6c:	0025c133          	xor	x2,x11,x2
    80002f70:	4021813b          	subw	x2,x3,x2
    80002f74:	02116133          	rem	x2,x2,x1
    80002f78:	02215133          	divu	x2,x2,x2
    80002f7c:	00115293          	srli	x5,x2,0x1
    80002f80:	64bdc137          	lui	x2,0x64bdc
    80002f84:	e1043117          	auipc	x2,0xe1043
    80002f88:	24a13693          	sltiu	x13,x2,586
    80002f8c:	bdf30137          	lui	x2,0xbdf30
    80002f90:	0230c0bb          	divw	x1,x1,x3
    80002f94:	405081b3          	sub	x3,x1,x5
    80002f98:	4021d13b          	sraw	x2,x3,x2
    80002f9c:	002181b3          	add	x3,x3,x2
    80002fa0:	30c1009b          	addiw	x1,x2,780 # ffffffffbdf3030c <_binary_lab3_extra_test_bin_end+0xffffffff3df077d8>
    80002fa4:	03627133          	remu	x2,x4,x22
    80002fa8:	4021d1b3          	sra	x3,x3,x2
    80002fac:	72168c63          	beq	x13,x1,800036e4 <_binary_lab3_extra_test_bin_start+0x36e4>
    80002fb0:	7340026f          	jal	x4,800036e4 <_binary_lab3_extra_test_bin_start+0x36e4>
    80002fb4:	00b1909b          	slliw	x1,x3,0xb
    80002fb8:	0211d13b          	divuw	x2,x3,x1
    80002fbc:	4052d13b          	sraw	x2,x5,x5
    80002fc0:	1ebd9317          	auipc	x6,0x1ebd9
    80002fc4:	400081bb          	subw	x3,x1,x0
    80002fc8:	71f04193          	xori	x3,x0,1823
    80002fcc:	e8010093          	addi	x1,x2,-384
    80002fd0:	da606e97          	auipc	x29,0xda606
    80002fd4:	0130521b          	srliw	x4,x0,0x13
    80002fd8:	400081b7          	lui	x3,0x40008
    80002fdc:	003181b3          	add	x3,x3,x3
    80002fe0:	f811a023          	sw	x1,-128(x3) # 40007f80 <_binary_lab3_extra_test_bin_size+0x3ffdf44c>
    80002fe4:	0030e0b3          	or	x1,x1,x3
    80002fe8:	46ab7037          	lui	x0,0x46ab7
    80002fec:	40008137          	lui	x2,0x40008
    80002ff0:	00210133          	add	x2,x2,x2
    80002ff4:	f8013103          	ld	x2,-128(x2) # 40007f80 <_binary_lab3_extra_test_bin_size+0x3ffdf44c>
    80002ff8:	0270c1b3          	div	x3,x1,x7
    80002ffc:	0253813b          	mulw	x2,x7,x5
    80003000:	8820e137          	lui	x2,0x8820e
    80003004:	022141bb          	divw	x3,x2,x2
    80003008:	401050b3          	sra	x1,x0,x1
    8000300c:	02265017          	auipc	x0,0x2265
    80003010:	fee39197          	auipc	x3,0xfee39
    80003014:	4cb95317          	auipc	x6,0x4cb95
    80003018:	0050813b          	addw	x2,x1,x5
    8000301c:	4187de9b          	sraiw	x29,x15,0x18
    80003020:	94c16193          	ori	x3,x2,-1716
    80003024:	0220d0b3          	divu	x1,x1,x2
    80003028:	19a6f1b7          	lui	x3,0x19a6f
    8000302c:	023100b3          	mul	x1,x2,x3
    80003030:	400083b7          	lui	x7,0x40008
    80003034:	007383b3          	add	x7,x7,x7
    80003038:	f8339423          	sh	x3,-120(x7) # 40007f88 <_binary_lab3_extra_test_bin_size+0x3ffdf454>
    8000303c:	0010813b          	addw	x2,x1,x1
    80003040:	00008293          	mv	x5,x1
    80003044:	d41284e3          	beq	x5,x1,80002d8c <_binary_lab3_extra_test_bin_start+0x2d8c>
    80003048:	0220e0bb          	remw	x1,x1,x2
    8000304c:	003130b3          	sltu	x1,x2,x3
    80003050:	0214c0bb          	divw	x1,x9,x1
    80003054:	0071119b          	slliw	x3,x2,0x7
    80003058:	40008137          	lui	x2,0x40008
    8000305c:	00210133          	add	x2,x2,x2
    80003060:	f8113023          	sd	x1,-128(x2) # 40007f80 <_binary_lab3_extra_test_bin_size+0x3ffdf44c>
    80003064:	0031003b          	addw	x0,x2,x3
    80003068:	11214c93          	xori	x25,x2,274
    8000306c:	3af18113          	addi	x2,x3,943 # 19a6f3af <_binary_lab3_extra_test_bin_size+0x19a4687b>
    80003070:	4700801b          	addiw	x0,x1,1136
    80003074:	400080b7          	lui	x1,0x40008
    80003078:	001080b3          	add	x1,x1,x1
    8000307c:	f810b023          	sd	x1,-128(x1) # 40007f80 <_binary_lab3_extra_test_bin_size+0x3ffdf44c>
    80003080:	02b0f133          	remu	x2,x1,x11
    80003084:	ecacc0b7          	lui	x1,0xecacc
    80003088:	4033013b          	subw	x2,x6,x3
    8000308c:	0024d13b          	srlw	x2,x9,x2
    80003090:	4030d0b3          	sra	x1,x1,x3
    80003094:	400080b7          	lui	x1,0x40008
    80003098:	001080b3          	add	x1,x1,x1
    8000309c:	f810b423          	sd	x1,-120(x1) # 40007f88 <_binary_lab3_extra_test_bin_size+0x3ffdf454>
    800030a0:	11c0b993          	sltiu	x19,x1,284
    800030a4:	0031913b          	sllw	x2,x3,x3
    800030a8:	a6e15317          	auipc	x6,0xa6e15
    800030ac:	00113133          	sltu	x2,x2,x1
    800030b0:	23b44317          	auipc	x6,0x23b44
    800030b4:	021360bb          	remw	x1,x6,x1
    800030b8:	001150bb          	srlw	x1,x2,x1
    800030bc:	5890a193          	slti	x3,x1,1417
    800030c0:	00413133          	sltu	x2,x2,x4
    800030c4:	0021d2b3          	srl	x5,x3,x2
    800030c8:	009364b3          	or	x9,x6,x9
    800030cc:	41be00b7          	lui	x1,0x41be0
    800030d0:	0051e3b3          	or	x7,x3,x5
    800030d4:	6e1c1137          	lui	x2,0x6e1c1
    800030d8:	0b707093          	andi	x1,x0,183
    800030dc:	12620263          	beq	x4,x6,80003200 <_binary_lab3_extra_test_bin_start+0x3200>
    800030e0:	120001ef          	jal	x3,80003200 <_binary_lab3_extra_test_bin_start+0x3200>
    800030e4:	9bbc0197          	auipc	x3,0x9bbc0
    800030e8:	c151b193          	sltiu	x3,x3,-1003
    800030ec:	0211c1bb          	divw	x3,x3,x1
    800030f0:	0231f0bb          	remuw	x1,x3,x3
    800030f4:	4a944137          	lui	x2,0x4a944
    800030f8:	80032117          	auipc	x2,0x80032
    800030fc:	4051d13b          	sraw	x2,x3,x5
    80003100:	d5c1e113          	ori	x2,x3,-676
    80003104:	6ec17113          	andi	x2,x2,1772
    80003108:	0210fa3b          	remuw	x20,x1,x1
    8000310c:	817e01b7          	lui	x3,0x817e0
    80003110:	403181bb          	subw	x3,x3,x3
    80003114:	0d510093          	addi	x1,x2,213 # 351cd <_binary_lab3_extra_test_bin_size+0xc699>
    80003118:	adbf41b7          	lui	x3,0xadbf4
    8000311c:	d1673193          	sltiu	x3,x14,-746
    80003120:	00815093          	srli	x1,x2,0x8
    80003124:	00214233          	xor	x4,x2,x2
    80003128:	2f2960b7          	lui	x1,0x2f296
    8000312c:	f72b6117          	auipc	x2,0xf72b6
    80003130:	f90c4117          	auipc	x2,0xf90c4
    80003134:	400081b7          	lui	x3,0x40008
    80003138:	003181b3          	add	x3,x3,x3
    8000313c:	f83180a3          	sb	x3,-127(x3) # 40007f81 <_binary_lab3_extra_test_bin_size+0x3ffdf44d>
    80003140:	ffb45017          	auipc	x0,0xffb45
    80003144:	0252633b          	remw	x6,x4,x5
    80003148:	97217093          	andi	x1,x2,-1678
    8000314c:	400081b7          	lui	x3,0x40008
    80003150:	003181b3          	add	x3,x3,x3
    80003154:	f881b203          	ld	x4,-120(x3) # 40007f88 <_binary_lab3_extra_test_bin_size+0x3ffdf454>
    80003158:	236e1137          	lui	x2,0x236e1
    8000315c:	00d0d2b3          	srl	x5,x1,x13
    80003160:	0211c133          	div	x2,x3,x1
    80003164:	0321e1b3          	rem	x3,x3,x18
    80003168:	00000197          	auipc	x3,0x0
    8000316c:	00818267          	jalr	x4,8(x3) # 80003170 <_binary_lab3_extra_test_bin_start+0x3170>
    80003170:	5266a0b7          	lui	x1,0x5266a
    80003174:	4171509b          	sraiw	x1,x2,0x17
    80003178:	01f0d3bb          	srlw	x7,x1,x31
    8000317c:	f9426197          	auipc	x3,0xf9426
    80003180:	020160bb          	remw	x1,x2,x0
    80003184:	40008137          	lui	x2,0x40008
    80003188:	00210133          	add	x2,x2,x2
    8000318c:	f8512623          	sw	x5,-116(x2) # 40007f8c <_binary_lab3_extra_test_bin_size+0x3ffdf458>
    80003190:	c6613e93          	sltiu	x29,x2,-922
    80003194:	35d13113          	sltiu	x2,x2,861
    80003198:	1d48f213          	andi	x4,x17,468
    8000319c:	01a0919b          	slliw	x3,x1,0x1a
    800031a0:	68ab2797          	auipc	x15,0x68ab2
    800031a4:	021081b3          	mul	x3,x1,x1
    800031a8:	400080b7          	lui	x1,0x40008
    800031ac:	001080b3          	add	x1,x1,x1
    800031b0:	f8009523          	sh	x0,-118(x1) # 40007f8a <_binary_lab3_extra_test_bin_size+0x3ffdf456>
    800031b4:	62074197          	auipc	x3,0x62074
    800031b8:	0211f1b3          	remu	x3,x3,x1
    800031bc:	4054813b          	subw	x2,x9,x5
    800031c0:	000010bb          	sllw	x1,x0,x0
    800031c4:	00483033          	sltu	x0,x16,x4
    800031c8:	02b41013          	slli	x0,x8,0x2b
    800031cc:	0211d0bb          	divuw	x1,x3,x1
    800031d0:	cf038297          	auipc	x5,0xcf038
    800031d4:	40008137          	lui	x2,0x40008
    800031d8:	00210133          	add	x2,x2,x2
    800031dc:	f8311123          	sh	x3,-126(x2) # 40007f82 <_binary_lab3_extra_test_bin_size+0x3ffdf44e>
    800031e0:	e062f693          	andi	x13,x5,-506
    800031e4:	400081b7          	lui	x3,0x40008
    800031e8:	003181b3          	add	x3,x3,x3
    800031ec:	f8d1b023          	sd	x13,-128(x3) # 40007f80 <_binary_lab3_extra_test_bin_size+0x3ffdf44c>
    800031f0:	4291a193          	slti	x3,x3,1065
    800031f4:	003149b3          	xor	x19,x2,x3
    800031f8:	00120263          	beq	x4,x1,800031fc <_binary_lab3_extra_test_bin_start+0x31fc>
    800031fc:	0410006f          	j	80003a3c <_binary_lab3_extra_test_bin_start+0x3a3c>
    80003200:	d9514193          	xori	x3,x2,-619
    80003204:	400080b7          	lui	x1,0x40008
    80003208:	001080b3          	add	x1,x1,x1
    8000320c:	f8608303          	lb	x6,-122(x1) # 40007f86 <_binary_lab3_extra_test_bin_size+0x3ffdf452>
    80003210:	a2898197          	auipc	x3,0xa2898
    80003214:	03e150b3          	divu	x1,x2,x30
    80003218:	00327133          	and	x2,x4,x3
    8000321c:	0231f133          	remu	x2,x3,x3
    80003220:	0033d133          	srl	x2,x7,x3
    80003224:	afd1031b          	addiw	x6,x2,-1283
    80003228:	9e517193          	andi	x3,x2,-1563
    8000322c:	0031b133          	sltu	x2,x3,x3
    80003230:	40008337          	lui	x6,0x40008
    80003234:	00630333          	add	x6,x6,x6
    80003238:	f8033583          	ld	x11,-128(x6) # 40007f80 <_binary_lab3_extra_test_bin_size+0x3ffdf44c>
    8000323c:	021172b3          	remu	x5,x2,x1
    80003240:	0040909b          	slliw	x1,x1,0x4
    80003244:	0231e13b          	remw	x2,x3,x3
    80003248:	ad382197          	auipc	x3,0xad382
    8000324c:	4003d1bb          	sraw	x3,x7,x0
    80003250:	01021393          	slli	x7,x4,0x10
    80003254:	400080b7          	lui	x1,0x40008
    80003258:	001080b3          	add	x1,x1,x1
    8000325c:	f830b423          	sd	x3,-120(x1) # 40007f88 <_binary_lab3_extra_test_bin_size+0x3ffdf454>
    80003260:	403282b3          	sub	x5,x5,x3
    80003264:	000151bb          	srlw	x3,x2,x0
    80003268:	9fe61117          	auipc	x2,0x9fe61
    8000326c:	26cf4137          	lui	x2,0x26cf4
    80003270:	0026c2b3          	xor	x5,x13,x2
    80003274:	41c3d09b          	sraiw	x1,x7,0x1c
    80003278:	293601b7          	lui	x3,0x29360
    8000327c:	23b20237          	lui	x4,0x23b20
    80003280:	0011d0bb          	srlw	x1,x3,x1
    80003284:	27fdd1b7          	lui	x3,0x27fdd
    80003288:	52726c13          	ori	x24,x4,1319
    8000328c:	2c310863          	beq	x2,x3,8000355c <_binary_lab3_extra_test_bin_start+0x355c>
    80003290:	2cc0026f          	jal	x4,8000355c <_binary_lab3_extra_test_bin_start+0x355c>
    80003294:	023180bb          	mulw	x1,x3,x3
    80003298:	0010d11b          	srliw	x2,x1,0x1
    8000329c:	400080b7          	lui	x1,0x40008
    800032a0:	001080b3          	add	x1,x1,x1
    800032a4:	f800a103          	lw	x2,-128(x1) # 40007f80 <_binary_lab3_extra_test_bin_size+0x3ffdf44c>
    800032a8:	0022d29b          	srliw	x5,x5,0x2
    800032ac:	c7a1819b          	addiw	x3,x3,-902 # 27fdcc7a <_binary_lab3_extra_test_bin_size+0x27fb4146>
    800032b0:	c13e9117          	auipc	x2,0xc13e9
    800032b4:	10d6e117          	auipc	x2,0x10d6e
    800032b8:	4f9e6137          	lui	x2,0x4f9e6
    800032bc:	0023c033          	xor	x0,x7,x2
    800032c0:	03708133          	mul	x2,x1,x23
    800032c4:	2b602093          	slti	x1,x0,694
    800032c8:	47e1819b          	addiw	x3,x3,1150
    800032cc:	5b507337          	lui	x6,0x5b507
    800032d0:	10c1811b          	addiw	x2,x3,268
    800032d4:	0211ffbb          	remuw	x31,x3,x1
    800032d8:	0b26b117          	auipc	x2,0xb26b
    800032dc:	400084b7          	lui	x9,0x40008
    800032e0:	009484b3          	add	x9,x9,x9
    800032e4:	f854b423          	sd	x5,-120(x9) # 40007f88 <_binary_lab3_extra_test_bin_size+0x3ffdf454>
    800032e8:	9fb57097          	auipc	x1,0x9fb57
    800032ec:	1782b693          	sltiu	x13,x5,376
    800032f0:	0d268097          	auipc	x1,0xd268
    800032f4:	0090d39b          	srliw	x7,x1,0x9
    800032f8:	400080b7          	lui	x1,0x40008
    800032fc:	001080b3          	add	x1,x1,x1
    80003300:	f800b103          	ld	x2,-128(x1) # 40007f80 <_binary_lab3_extra_test_bin_size+0x3ffdf44c>
    80003304:	c0700013          	li	x0,-1017
    80003308:	0011f3b3          	and	x7,x3,x1
    8000330c:	0121921b          	slliw	x4,x3,0x12
    80003310:	0200d1b3          	divu	x3,x1,x0
    80003314:	f1f6e0b7          	lui	x1,0xf1f6e
    80003318:	00018093          	mv	x1,x3
    8000331c:	46308063          	beq	x1,x3,8000377c <_binary_lab3_extra_test_bin_start+0x377c>
    80003320:	4d7a4097          	auipc	x1,0x4d7a4
    80003324:	4011523b          	sraw	x4,x2,x1
    80003328:	c498e197          	auipc	x3,0xc498e
    8000332c:	403181bb          	subw	x3,x3,x3
    80003330:	400080b7          	lui	x1,0x40008
    80003334:	001080b3          	add	x1,x1,x1
    80003338:	f800b083          	ld	x1,-128(x1) # 40007f80 <_binary_lab3_extra_test_bin_size+0x3ffdf44c>
    8000333c:	01d3d193          	srli	x3,x7,0x1d
    80003340:	0211f1bb          	remuw	x3,x3,x1
    80003344:	405382b3          	sub	x5,x7,x5
    80003348:	403300bb          	subw	x1,x6,x3
    8000334c:	00c2111b          	slliw	x2,x4,0xc
    80003350:	0230f33b          	remuw	x6,x1,x3
    80003354:	02220033          	mul	x0,x4,x2
    80003358:	024151b3          	divu	x3,x2,x4
    8000335c:	023240b3          	div	x1,x4,x3
    80003360:	0060a0b3          	slt	x1,x1,x6
    80003364:	0200e0b7          	lui	x1,0x200e
    80003368:	400081b7          	lui	x3,0x40008
    8000336c:	003181b3          	add	x3,x3,x3
    80003370:	f811a023          	sw	x1,-128(x3) # 40007f80 <_binary_lab3_extra_test_bin_size+0x3ffdf44c>
    80003374:	7fe17213          	andi	x4,x2,2046
    80003378:	400080b7          	lui	x1,0x40008
    8000337c:	001080b3          	add	x1,x1,x1
    80003380:	f8d0b023          	sd	x13,-128(x1) # 40007f80 <_binary_lab3_extra_test_bin_size+0x3ffdf44c>
    80003384:	34916113          	ori	x2,x2,841
    80003388:	4031013b          	subw	x2,x2,x3
    8000338c:	1ee0809b          	addiw	x1,x1,494
    80003390:	400080b7          	lui	x1,0x40008
    80003394:	001080b3          	add	x1,x1,x1
    80003398:	f8209083          	lh	x1,-126(x1) # 40007f82 <_binary_lab3_extra_test_bin_size+0x3ffdf44e>
    8000339c:	41d6d11b          	sraiw	x2,x13,0x1d
    800033a0:	00148463          	beq	x9,x1,800033a8 <_binary_lab3_extra_test_bin_start+0x33a8>
    800033a4:	0040006f          	j	800033a8 <_binary_lab3_extra_test_bin_start+0x33a8>
    800033a8:	002180b3          	add	x1,x3,x2
    800033ac:	4021d0b3          	sra	x1,x3,x2
    800033b0:	13d93437          	lui	x8,0x13d93
    800033b4:	01f3d09b          	srliw	x1,x7,0x1f
    800033b8:	0031133b          	sllw	x6,x2,x3
    800033bc:	52808013          	addi	x0,x1,1320
    800033c0:	002090b3          	sll	x1,x1,x2
    800033c4:	62785137          	lui	x2,0x62785
    800033c8:	400081b7          	lui	x3,0x40008
    800033cc:	003181b3          	add	x3,x3,x3
    800033d0:	f881b203          	ld	x4,-120(x3) # 40007f88 <_binary_lab3_extra_test_bin_size+0x3ffdf454>
    800033d4:	eee22293          	slti	x5,x4,-274
    800033d8:	02210133          	mul	x2,x2,x2
    800033dc:	003120b3          	slt	x1,x2,x3
    800033e0:	de923017          	auipc	x0,0xde923
    800033e4:	7240059b          	addiw	x11,x0,1828
    800033e8:	97107217          	auipc	x4,0x97107
    800033ec:	022000b3          	mul	x1,x0,x2
    800033f0:	401057b3          	sra	x15,x0,x1
    800033f4:	3cc0e313          	ori	x6,x1,972
    800033f8:	002090bb          	sllw	x1,x1,x2
    800033fc:	03b12093          	slti	x1,x2,59
    80003400:	400087b7          	lui	x15,0x40008
    80003404:	00f787b3          	add	x15,x15,x15
    80003408:	f8179123          	sh	x1,-126(x15) # 40007f82 <_binary_lab3_extra_test_bin_size+0x3ffdf44e>
    8000340c:	0021813b          	addw	x2,x3,x2
    80003410:	a7f2c097          	auipc	x1,0xa7f2c
    80003414:	00d1109b          	slliw	x1,x2,0xd
    80003418:	0211f03b          	remuw	x0,x3,x1
    8000341c:	02f1e133          	rem	x2,x3,x15
    80003420:	2381819b          	addiw	x3,x3,568
    80003424:	001141b3          	xor	x3,x2,x1
    80003428:	9f6b0a37          	lui	x20,0x9f6b0
    8000342c:	8910a093          	slti	x1,x1,-1903
    80003430:	00010113          	mv	x2,x2
    80003434:	1a210a63          	beq	x2,x2,800035e8 <_binary_lab3_extra_test_bin_start+0x35e8>
    80003438:	0030a233          	slt	x4,x1,x3
    8000343c:	4116e1b7          	lui	x3,0x4116e
    80003440:	61b7b113          	sltiu	x2,x15,1563
    80003444:	0210d233          	divu	x4,x1,x1
    80003448:	0219d333          	divu	x6,x19,x1
    8000344c:	d8be1117          	auipc	x2,0xd8be1
    80003450:	ad33c137          	lui	x2,0xad33c
    80003454:	02125333          	divu	x6,x4,x1
    80003458:	32f82393          	slti	x7,x16,815
    8000345c:	a2b67097          	auipc	x1,0xa2b67
    80003460:	01c2909b          	slliw	x1,x5,0x1c
    80003464:	00f1113b          	sllw	x2,x2,x15
    80003468:	0170d09b          	srliw	x1,x1,0x17
    8000346c:	4021d0bb          	sraw	x1,x3,x2
    80003470:	a7514313          	xori	x6,x2,-1419
    80003474:	35b1821b          	addiw	x4,x3,859 # 4116e35b <_binary_lab3_extra_test_bin_size+0x41145827>
    80003478:	9c2ed8b7          	lui	x17,0x9c2ed
    8000347c:	40008137          	lui	x2,0x40008
    80003480:	00210133          	add	x2,x2,x2
    80003484:	f8513423          	sd	x5,-120(x2) # 40007f88 <_binary_lab3_extra_test_bin_size+0x3ffdf454>
    80003488:	0111111b          	slliw	x2,x2,0x11
    8000348c:	002190bb          	sllw	x1,x3,x2
    80003490:	06941837          	lui	x16,0x6941
    80003494:	400086b7          	lui	x13,0x40008
    80003498:	00d686b3          	add	x13,x13,x13
    8000349c:	f826b423          	sd	x2,-120(x13) # 40007f88 <_binary_lab3_extra_test_bin_size+0x3ffdf454>
    800034a0:	400080b7          	lui	x1,0x40008
    800034a4:	001080b3          	add	x1,x1,x1
    800034a8:	f800b383          	ld	x7,-128(x1) # 40007f80 <_binary_lab3_extra_test_bin_size+0x3ffdf44c>
    800034ac:	0203e33b          	remw	x6,x7,x0
    800034b0:	4073d0bb          	sraw	x1,x7,x7
    800034b4:	0061e133          	or	x2,x3,x6
    800034b8:	0011d1bb          	srlw	x3,x3,x1
    800034bc:	40a0d11b          	sraiw	x2,x1,0xa
    800034c0:	0121121b          	slliw	x4,x2,0x12
    800034c4:	003161b3          	or	x3,x2,x3
    800034c8:	00000013          	nop
    800034cc:	e4000ae3          	beqz	x0,80003320 <_binary_lab3_extra_test_bin_start+0x3320>
    800034d0:	038151b3          	divu	x3,x2,x24
    800034d4:	400081b7          	lui	x3,0x40008
    800034d8:	003181b3          	add	x3,x3,x3
    800034dc:	f881b103          	ld	x2,-120(x3) # 40007f88 <_binary_lab3_extra_test_bin_size+0x3ffdf454>
    800034e0:	33eebb97          	auipc	x23,0x33eeb
    800034e4:	ed017113          	andi	x2,x2,-304
    800034e8:	0121131b          	slliw	x6,x2,0x12
    800034ec:	0322d113          	srli	x2,x5,0x32
    800034f0:	00bd139b          	slliw	x7,x26,0xb
    800034f4:	021150b3          	divu	x1,x2,x1
    800034f8:	7dc26317          	auipc	x6,0x7dc26
    800034fc:	0230e1b3          	rem	x3,x1,x3
    80003500:	003381bb          	addw	x3,x7,x3
    80003504:	02106133          	rem	x2,x0,x1
    80003508:	023171b3          	remu	x3,x2,x3
    8000350c:	403bd1b7          	lui	x3,0x403bd
    80003510:	f8f0809b          	addiw	x1,x1,-113
    80003514:	40008137          	lui	x2,0x40008
    80003518:	00210133          	add	x2,x2,x2
    8000351c:	f8813803          	ld	x16,-120(x2) # 40007f88 <_binary_lab3_extra_test_bin_size+0x3ffdf454>
    80003520:	002121b3          	slt	x3,x2,x2
    80003524:	0b6ad237          	lui	x4,0xb6ad
    80003528:	020108bb          	mulw	x17,x2,x0
    8000352c:	f73af097          	auipc	x1,0xf73af
    80003530:	78f2b193          	sltiu	x3,x5,1935
    80003534:	0347c0b3          	div	x1,x15,x20
    80003538:	4173569b          	sraiw	x13,x6,0x17
    8000353c:	400080b7          	lui	x1,0x40008
    80003540:	001080b3          	add	x1,x1,x1
    80003544:	f880b103          	ld	x2,-120(x1) # 40007f88 <_binary_lab3_extra_test_bin_size+0x3ffdf454>
    80003548:	40008237          	lui	x4,0x40008
    8000354c:	00420233          	add	x4,x4,x4
    80003550:	f8123423          	sd	x1,-120(x4) # 40007f88 <_binary_lab3_extra_test_bin_size+0x3ffdf454>
    80003554:	9c3214e3          	bne	x4,x3,80002f1c <_binary_lab3_extra_test_bin_start+0x2f1c>
    80003558:	9c3202e3          	beq	x4,x3,80002f1c <_binary_lab3_extra_test_bin_start+0x2f1c>
    8000355c:	ffa1011b          	addiw	x2,x2,-6
    80003560:	0771e193          	ori	x3,x3,119
    80003564:	4130d493          	srai	x9,x1,0x13
    80003568:	003202bb          	addw	x5,x4,x3
    8000356c:	7c808113          	addi	x2,x1,1992
    80003570:	40008437          	lui	x8,0x40008
    80003574:	00840433          	add	x8,x8,x8
    80003578:	f8240183          	lb	x3,-126(x8) # 40007f82 <_binary_lab3_extra_test_bin_size+0x3ffdf44e>
    8000357c:	505dd0b7          	lui	x1,0x505dd
    80003580:	00218133          	add	x2,x3,x2
    80003584:	1575d037          	lui	x0,0x1575d
    80003588:	f5452317          	auipc	x6,0xf5452
    8000358c:	4061d09b          	sraiw	x1,x3,0x6
    80003590:	a76f10b7          	lui	x1,0xa76f1
    80003594:	0202c133          	div	x2,x5,x0
    80003598:	401101b3          	sub	x3,x2,x1
    8000359c:	0012f333          	and	x6,x5,x1
    800035a0:	40b181bb          	subw	x3,x3,x11
    800035a4:	d8b275b7          	lui	x11,0xd8b27
    800035a8:	4031d5bb          	sraw	x11,x3,x3
    800035ac:	0261c0bb          	divw	x1,x3,x6
    800035b0:	40110133          	sub	x2,x2,x1
    800035b4:	5a11849b          	addiw	x9,x3,1441 # 403bd5a1 <_binary_lab3_extra_test_bin_size+0x40394a6d>
    800035b8:	fece3197          	auipc	x3,0xfece3
    800035bc:	40b1003b          	subw	x0,x2,x11
    800035c0:	3f71a217          	auipc	x4,0x3f71a
    800035c4:	01312233          	slt	x4,x2,x19
    800035c8:	2e526093          	ori	x1,x4,741
    800035cc:	02212193          	slti	x3,x2,34
    800035d0:	0213c5b3          	div	x11,x7,x1
    800035d4:	f29f8137          	lui	x2,0xf29f8
    800035d8:	19030193          	addi	x3,x6,400 # 75455718 <_binary_lab3_extra_test_bin_size+0x7542cbe4>
    800035dc:	022181b3          	mul	x3,x3,x2
    800035e0:	000e8113          	mv	x2,x29
    800035e4:	9dd108e3          	beq	x2,x29,80002fb4 <_binary_lab3_extra_test_bin_start+0x2fb4>
    800035e8:	022052bb          	divuw	x5,x0,x2
    800035ec:	022140b3          	div	x1,x2,x2
    800035f0:	0010f4b3          	and	x9,x1,x1
    800035f4:	400081b7          	lui	x3,0x40008
    800035f8:	003181b3          	add	x3,x3,x3
    800035fc:	f831b023          	sd	x3,-128(x3) # 40007f80 <_binary_lab3_extra_test_bin_size+0x3ffdf44c>
    80003600:	f01bb1b7          	lui	x3,0xf01bb
    80003604:	10a22117          	auipc	x2,0x10a22
    80003608:	400082b7          	lui	x5,0x40008
    8000360c:	005282b3          	add	x5,x5,x5
    80003610:	f8b28083          	lb	x1,-117(x5) # 40007f8b <_binary_lab3_extra_test_bin_size+0x3ffdf457>
    80003614:	003192b3          	sll	x5,x3,x3
    80003618:	7d61b193          	sltiu	x3,x3,2006
    8000361c:	0020d03b          	srlw	x0,x1,x2
    80003620:	0040549b          	srliw	x9,x0,0x4
    80003624:	cb20c113          	xori	x2,x1,-846
    80003628:	005122b3          	slt	x5,x2,x5
    8000362c:	06e8d0b7          	lui	x1,0x6e8d
    80003630:	021181bb          	mulw	x3,x3,x1
    80003634:	00c1119b          	slliw	x3,x2,0xc
    80003638:	242b7213          	andi	x4,x22,578
    8000363c:	02009113          	slli	x2,x1,0x20
    80003640:	415ed09b          	sraiw	x1,x29,0x15
    80003644:	00137133          	and	x2,x6,x1
    80003648:	01a1911b          	slliw	x2,x3,0x1a
    8000364c:	405b5097          	auipc	x1,0x405b5
    80003650:	0011f0b3          	and	x1,x3,x1
    80003654:	0230f13b          	remuw	x2,x1,x3
    80003658:	00b17463          	bgeu	x2,x11,80003660 <_binary_lab3_extra_test_bin_start+0x3660>
    8000365c:	00b16263          	bltu	x2,x11,80003660 <_binary_lab3_extra_test_bin_start+0x3660>
    80003660:	0010933b          	sllw	x6,x1,x1
    80003664:	40008237          	lui	x4,0x40008
    80003668:	00420233          	add	x4,x4,x4
    8000366c:	f8323423          	sd	x3,-120(x4) # 40007f88 <_binary_lab3_extra_test_bin_size+0x3ffdf454>
    80003670:	0220e2b3          	rem	x5,x1,x2
    80003674:	40008237          	lui	x4,0x40008
    80003678:	00420233          	add	x4,x4,x4
    8000367c:	f8123023          	sd	x1,-128(x4) # 40007f80 <_binary_lab3_extra_test_bin_size+0x3ffdf44c>
    80003680:	400081b7          	lui	x3,0x40008
    80003684:	003181b3          	add	x3,x3,x3
    80003688:	f8c1e383          	lwu	x7,-116(x3) # 40007f8c <_binary_lab3_extra_test_bin_size+0x3ffdf458>
    8000368c:	0020c0b3          	xor	x1,x1,x2
    80003690:	0220d2b3          	divu	x5,x1,x2
    80003694:	01f1139b          	slliw	x7,x2,0x1f
    80003698:	94e0801b          	addiw	x0,x1,-1714 # ffffffffc05b7f9a <_binary_lab3_extra_test_bin_end+0xffffffff4058f466>
    8000369c:	fb2fb117          	auipc	x2,0xfb2fb
    800036a0:	0231613b          	remw	x2,x2,x3
    800036a4:	40008137          	lui	x2,0x40008
    800036a8:	00210133          	add	x2,x2,x2
    800036ac:	f8310523          	sb	x3,-118(x2) # 40007f8a <_binary_lab3_extra_test_bin_size+0x3ffdf456>
    800036b0:	40008337          	lui	x6,0x40008
    800036b4:	00630333          	add	x6,x6,x6
    800036b8:	f8033083          	ld	x1,-128(x6) # 40007f80 <_binary_lab3_extra_test_bin_size+0x3ffdf44c>
    800036bc:	02d0c13b          	divw	x2,x1,x13
    800036c0:	003390b3          	sll	x1,x7,x3
    800036c4:	001b51bb          	srlw	x3,x22,x1
    800036c8:	400081b7          	lui	x3,0x40008
    800036cc:	003181b3          	add	x3,x3,x3
    800036d0:	f831b023          	sd	x3,-128(x3) # 40007f80 <_binary_lab3_extra_test_bin_size+0x3ffdf44c>
    800036d4:	cf100093          	li	x1,-783
    800036d8:	17313013          	sltiu	x0,x2,371
    800036dc:	00110263          	beq	x2,x1,800036e0 <_binary_lab3_extra_test_bin_start+0x36e0>
    800036e0:	e1cff36f          	jal	x6,80002cfc <_binary_lab3_extra_test_bin_start+0x2cfc>
    800036e4:	0250c1bb          	divw	x3,x1,x5
    800036e8:	00124233          	xor	x4,x4,x1
    800036ec:	4044d133          	sra	x2,x9,x4
    800036f0:	3179d097          	auipc	x1,0x3179d
    800036f4:	03b250bb          	divuw	x1,x4,x27
    800036f8:	0e8db037          	lui	x0,0xe8db
    800036fc:	9ae2b337          	lui	x6,0x9ae2b
    80003700:	022081b3          	mul	x3,x1,x2
    80003704:	42e7d393          	srai	x7,x15,0x2e
    80003708:	9a5df197          	auipc	x3,0x9a5df
    8000370c:	6d5a8097          	auipc	x1,0x6d5a8
    80003710:	400080b7          	lui	x1,0x40008
    80003714:	001080b3          	add	x1,x1,x1
    80003718:	f8508223          	sb	x5,-124(x1) # 40007f84 <_binary_lab3_extra_test_bin_size+0x3ffdf450>
    8000371c:	401083b3          	sub	x7,x1,x1
    80003720:	aff1e093          	ori	x1,x3,-1281
    80003724:	0220d233          	divu	x4,x1,x2
    80003728:	400087b7          	lui	x15,0x40008
    8000372c:	00f787b3          	add	x15,x15,x15
    80003730:	f807b083          	ld	x1,-128(x15) # 40007f80 <_binary_lab3_extra_test_bin_size+0x3ffdf44c>
    80003734:	0013b0b3          	sltu	x1,x7,x1
    80003738:	0016c1b3          	xor	x3,x13,x1
    8000373c:	452521b7          	lui	x3,0x45252
    80003740:	d99772b7          	lui	x5,0xd9977
    80003744:	02318133          	mul	x2,x3,x3
    80003748:	40008bb7          	lui	x23,0x40008
    8000374c:	017b8bb3          	add	x23,x23,x23
    80003750:	f80bb103          	ld	x2,-128(x23) # 40007f80 <_binary_lab3_extra_test_bin_size+0x3ffdf44c>
    80003754:	400081b7          	lui	x3,0x40008
    80003758:	003181b3          	add	x3,x3,x3
    8000375c:	f881b183          	ld	x3,-120(x3) # 40007f88 <_binary_lab3_extra_test_bin_size+0x3ffdf454>
    80003760:	022151bb          	divuw	x3,x2,x2
    80003764:	0011a1b3          	slt	x3,x3,x1
    80003768:	e091811b          	addiw	x2,x3,-503
    8000376c:	40c3d09b          	sraiw	x1,x7,0xc
    80003770:	005104b3          	add	x9,x2,x5
    80003774:	00110263          	beq	x2,x1,80003778 <_binary_lab3_extra_test_bin_start+0x3778>
    80003778:	e8cff16f          	jal	x2,80002e04 <_binary_lab3_extra_test_bin_start+0x2e04>
    8000377c:	3ed0c093          	xori	x1,x1,1005
    80003780:	0250d133          	divu	x2,x1,x5
    80003784:	4040d1bb          	sraw	x3,x1,x4
    80003788:	8c6cb117          	auipc	x2,0x8c6cb
    8000378c:	e2105137          	lui	x2,0xe2105
    80003790:	400083b7          	lui	x7,0x40008
    80003794:	007383b3          	add	x7,x7,x7
    80003798:	f823a223          	sw	x2,-124(x7) # 40007f84 <_binary_lab3_extra_test_bin_size+0x3ffdf450>
    8000379c:	4151d21b          	sraiw	x4,x3,0x15
    800037a0:	02516eb3          	rem	x29,x2,x5
    800037a4:	40c4d193          	srai	x3,x9,0xc
    800037a8:	400081b7          	lui	x3,0x40008
    800037ac:	003181b3          	add	x3,x3,x3
    800037b0:	f821b023          	sd	x2,-128(x3) # 40007f80 <_binary_lab3_extra_test_bin_size+0x3ffdf44c>
    800037b4:	400080b7          	lui	x1,0x40008
    800037b8:	001080b3          	add	x1,x1,x1
    800037bc:	f8c0e183          	lwu	x3,-116(x1) # 40007f8c <_binary_lab3_extra_test_bin_size+0x3ffdf458>
    800037c0:	003000b3          	add	x1,x0,x3
    800037c4:	8bbf8097          	auipc	x1,0x8bbf8
    800037c8:	0037beb3          	sltu	x29,x15,x3
    800037cc:	1fd710b7          	lui	x1,0x1fd71
    800037d0:	e9f52117          	auipc	x2,0xe9f52
    800037d4:	0230e1b3          	rem	x3,x1,x3
    800037d8:	0100d09b          	srliw	x1,x1,0x10
    800037dc:	e8f41397          	auipc	x7,0xe8f41
    800037e0:	020061b3          	rem	x3,x0,x0
    800037e4:	d120a213          	slti	x4,x1,-750
    800037e8:	400083b7          	lui	x7,0x40008
    800037ec:	007383b3          	add	x7,x7,x7
    800037f0:	f8138283          	lb	x5,-127(x7) # 40007f81 <_binary_lab3_extra_test_bin_size+0x3ffdf44d>
    800037f4:	f97844b7          	lui	x9,0xf9784
    800037f8:	004041b3          	xor	x3,x0,x4
    800037fc:	b0517013          	andi	x0,x2,-1275
    80003800:	c222dce3          	bge	x5,x2,80003438 <_binary_lab3_extra_test_bin_start+0x3438>
    80003804:	c222cae3          	blt	x5,x2,80003438 <_binary_lab3_extra_test_bin_start+0x3438>
    80003808:	0211e1bb          	remw	x3,x3,x1
    8000380c:	400080b7          	lui	x1,0x40008
    80003810:	001080b3          	add	x1,x1,x1
    80003814:	f860b023          	sd	x6,-128(x1) # 40007f80 <_binary_lab3_extra_test_bin_size+0x3ffdf44c>
    80003818:	e88f40b7          	lui	x1,0xe88f4
    8000381c:	038170b3          	remu	x1,x2,x24
    80003820:	40008337          	lui	x6,0x40008
    80003824:	00630333          	add	x6,x6,x6
    80003828:	f8833203          	ld	x4,-120(x6) # 40007f88 <_binary_lab3_extra_test_bin_size+0x3ffdf454>
    8000382c:	021072b3          	remu	x5,x0,x1
    80003830:	0037b133          	sltu	x2,x15,x3
    80003834:	0223c0bb          	divw	x1,x7,x2
    80003838:	f34ee037          	lui	x0,0xf34ee
    8000383c:	400080b7          	lui	x1,0x40008
    80003840:	001080b3          	add	x1,x1,x1
    80003844:	f81087a3          	sb	x1,-113(x1) # 40007f8f <_binary_lab3_extra_test_bin_size+0x3ffdf45b>
    80003848:	00af3197          	auipc	x3,0xaf3
    8000384c:	3e2bc117          	auipc	x2,0x3e2bc
    80003850:	400081b7          	lui	x3,0x40008
    80003854:	003181b3          	add	x3,x3,x3
    80003858:	f821b023          	sd	x2,-128(x3) # 40007f80 <_binary_lab3_extra_test_bin_size+0x3ffdf44c>
    8000385c:	c027f117          	auipc	x2,0xc027f
    80003860:	001fb0b3          	sltu	x1,x31,x1
    80003864:	0071e0b3          	or	x1,x3,x7
    80003868:	00311f93          	slli	x31,x2,0x3
    8000386c:	60408193          	addi	x3,x1,1540
    80003870:	cfb1811b          	addiw	x2,x3,-773
    80003874:	c1111137          	lui	x2,0xc1111
    80003878:	4161511b          	sraiw	x2,x2,0x16
    8000387c:	40120233          	sub	x4,x4,x1
    80003880:	40008137          	lui	x2,0x40008
    80003884:	00210133          	add	x2,x2,x2
    80003888:	f8113023          	sd	x1,-128(x2) # 40007f80 <_binary_lab3_extra_test_bin_size+0x3ffdf44c>
    8000388c:	4721869b          	addiw	x13,x3,1138
    80003890:	01a1d19b          	srliw	x3,x3,0x1a
    80003894:	00038193          	mv	x3,x7
    80003898:	00718263          	beq	x3,x7,8000389c <_binary_lab3_extra_test_bin_start+0x389c>
    8000389c:	d580a093          	slti	x1,x1,-680
    800038a0:	e4b0a137          	lui	x2,0xe4b0a
    800038a4:	40138233          	sub	x4,x7,x1
    800038a8:	49fbc3b7          	lui	x7,0x49fbc
    800038ac:	027150b3          	divu	x1,x2,x7
    800038b0:	400081b7          	lui	x3,0x40008
    800038b4:	003181b3          	add	x3,x3,x3
    800038b8:	f821b023          	sd	x2,-128(x3) # 40007f80 <_binary_lab3_extra_test_bin_size+0x3ffdf44c>
    800038bc:	4070d13b          	sraw	x2,x1,x7
    800038c0:	02336233          	rem	x4,x6,x3
    800038c4:	137f6797          	auipc	x15,0x137f6
    800038c8:	400080b7          	lui	x1,0x40008
    800038cc:	001080b3          	add	x1,x1,x1
    800038d0:	f800c083          	lbu	x1,-128(x1) # 40007f80 <_binary_lab3_extra_test_bin_size+0x3ffdf44c>
    800038d4:	400081b7          	lui	x3,0x40008
    800038d8:	003181b3          	add	x3,x3,x3
    800038dc:	f821b023          	sd	x2,-128(x3) # 40007f80 <_binary_lab3_extra_test_bin_size+0x3ffdf44c>
    800038e0:	0011503b          	srlw	x0,x2,x1
    800038e4:	0220d0bb          	divuw	x1,x1,x2
    800038e8:	49400297          	auipc	x5,0x49400
    800038ec:	92317293          	andi	x5,x2,-1757
    800038f0:	9601811b          	addiw	x2,x3,-1696
    800038f4:	003110bb          	sllw	x1,x2,x3
    800038f8:	02110133          	mul	x2,x2,x1
    800038fc:	c950b0b7          	lui	x1,0xc950b
    80003900:	4023013b          	subw	x2,x6,x2
    80003904:	e390b193          	sltiu	x3,x1,-455
    80003908:	02116133          	rem	x2,x2,x1
    8000390c:	0231613b          	remw	x2,x2,x3
    80003910:	40208a63          	beq	x1,x2,80003d24 <_binary_lab3_extra_test_bin_start+0x3d24>
    80003914:	410001ef          	jal	x3,80003d24 <_binary_lab3_extra_test_bin_start+0x3d24>
    80003918:	dc320113          	addi	x2,x4,-573 # fffffffffffffdc3 <_binary_lab3_extra_test_bin_end+0xffffffff7ffd728f>
    8000391c:	403280b3          	sub	x1,x5,x3
    80003920:	cb86a0b7          	lui	x1,0xcb86a
    80003924:	003183bb          	addw	x7,x3,x3
    80003928:	01509193          	slli	x3,x1,0x15
    8000392c:	cd90c093          	xori	x1,x1,-807
    80003930:	038224b7          	lui	x9,0x3822
    80003934:	00413133          	sltu	x2,x2,x4
    80003938:	1a13021b          	addiw	x4,x6,417
    8000393c:	f7334313          	xori	x6,x6,-141
    80003940:	68d6c397          	auipc	x7,0x68d6c
    80003944:	40008237          	lui	x4,0x40008
    80003948:	00420233          	add	x4,x4,x4
    8000394c:	f8823703          	ld	x14,-120(x4) # 40007f88 <_binary_lab3_extra_test_bin_size+0x3ffdf454>
    80003950:	fc2be1b7          	lui	x3,0xfc2be
    80003954:	006301b3          	add	x3,x6,x6
    80003958:	021041b3          	div	x3,x0,x1
    8000395c:	010171b3          	and	x3,x2,x16
    80003960:	400081b7          	lui	x3,0x40008
    80003964:	003181b3          	add	x3,x3,x3
    80003968:	f801b003          	ld	x0,-128(x3) # 40007f80 <_binary_lab3_extra_test_bin_size+0x3ffdf44c>
    8000396c:	00217cb3          	and	x25,x2,x2
    80003970:	400080b7          	lui	x1,0x40008
    80003974:	001080b3          	add	x1,x1,x1
    80003978:	f8c0c103          	lbu	x2,-116(x1) # 40007f8c <_binary_lab3_extra_test_bin_size+0x3ffdf458>
    8000397c:	006250b3          	srl	x1,x4,x6
    80003980:	00113133          	sltu	x2,x2,x1
    80003984:	03c01093          	slli	x1,x0,0x3c
    80003988:	4111d11b          	sraiw	x2,x3,0x11
    8000398c:	0040abb3          	slt	x23,x1,x4
    80003990:	00217133          	and	x2,x2,x2
    80003994:	0221d13b          	divuw	x2,x3,x2
    80003998:	c32ba137          	lui	x2,0xc32ba
    8000399c:	403281bb          	subw	x3,x5,x3
    800039a0:	00338463          	beq	x7,x3,800039a8 <_binary_lab3_extra_test_bin_start+0x39a8>
    800039a4:	004000ef          	jal	800039a8 <_binary_lab3_extra_test_bin_start+0x39a8>
    800039a8:	0081509b          	srliw	x1,x2,0x8
    800039ac:	40315133          	sra	x2,x2,x3
    800039b0:	4da70097          	auipc	x1,0x4da70
    800039b4:	02610133          	mul	x2,x2,x6
    800039b8:	40ee81b3          	sub	x3,x29,x14
    800039bc:	40008137          	lui	x2,0x40008
    800039c0:	00210133          	add	x2,x2,x2
    800039c4:	f8013283          	ld	x5,-128(x2) # 40007f80 <_binary_lab3_extra_test_bin_size+0x3ffdf44c>
    800039c8:	400081b7          	lui	x3,0x40008
    800039cc:	003181b3          	add	x3,x3,x3
    800039d0:	f801e083          	lwu	x1,-128(x3) # 40007f80 <_binary_lab3_extra_test_bin_size+0x3ffdf44c>
    800039d4:	001ef7b3          	and	x15,x29,x1
    800039d8:	884080b7          	lui	x1,0x88408
    800039dc:	0221e13b          	remw	x2,x3,x2
    800039e0:	0071e7b3          	or	x15,x3,x7
    800039e4:	f565c0b7          	lui	x1,0xf565c
    800039e8:	40008137          	lui	x2,0x40008
    800039ec:	00210133          	add	x2,x2,x2
    800039f0:	f8613023          	sd	x6,-128(x2) # 40007f80 <_binary_lab3_extra_test_bin_size+0x3ffdf44c>
    800039f4:	4b4c2137          	lui	x2,0x4b4c2
    800039f8:	aaa96137          	lui	x2,0xaaa96
    800039fc:	40008137          	lui	x2,0x40008
    80003a00:	00210133          	add	x2,x2,x2
    80003a04:	f8814003          	lbu	x0,-120(x2) # 40007f88 <_binary_lab3_extra_test_bin_size+0x3ffdf454>
    80003a08:	00fce133          	or	x2,x25,x15
    80003a0c:	0232c13b          	divw	x2,x5,x3
    80003a10:	01779313          	slli	x6,x15,0x17
    80003a14:	401050b3          	sra	x1,x0,x1
    80003a18:	0f90b113          	sltiu	x2,x1,249
    80003a1c:	0080539b          	srliw	x7,x0,0x8
    80003a20:	eb70b593          	sltiu	x11,x1,-329
    80003a24:	400181bb          	subw	x3,x3,x0
    80003a28:	0250c0b3          	div	x1,x1,x5
    80003a2c:	002141b3          	xor	x3,x2,x2
    80003a30:	b5fd90b7          	lui	x1,0xb5fd9
    80003a34:	3e20dc63          	bge	x1,x2,80003e2c <_binary_lab3_extra_test_bin_start+0x3e2c>
    80003a38:	3e20ca63          	blt	x1,x2,80003e2c <_binary_lab3_extra_test_bin_start+0x3e2c>
    80003a3c:	400081b7          	lui	x3,0x40008
    80003a40:	003181b3          	add	x3,x3,x3
    80003a44:	f87187a3          	sb	x7,-113(x3) # 40007f8f <_binary_lab3_extra_test_bin_size+0x3ffdf45b>
    80003a48:	402151bb          	sraw	x3,x2,x2
    80003a4c:	e4cd31b7          	lui	x3,0xe4cd3
    80003a50:	e3e0a193          	slti	x3,x1,-450
    80003a54:	00f6833b          	addw	x6,x13,x15
    80003a58:	400080b7          	lui	x1,0x40008
    80003a5c:	001080b3          	add	x1,x1,x1
    80003a60:	f8109223          	sh	x1,-124(x1) # 40007f84 <_binary_lab3_extra_test_bin_size+0x3ffdf450>
    80003a64:	00d0919b          	slliw	x3,x1,0xd
    80003a68:	40008137          	lui	x2,0x40008
    80003a6c:	00210133          	add	x2,x2,x2
    80003a70:	f8512223          	sw	x5,-124(x2) # 40007f84 <_binary_lab3_extra_test_bin_size+0x3ffdf450>
    80003a74:	400081b7          	lui	x3,0x40008
    80003a78:	003181b3          	add	x3,x3,x3
    80003a7c:	f8419103          	lh	x2,-124(x3) # 40007f84 <_binary_lab3_extra_test_bin_size+0x3ffdf450>
    80003a80:	03915113          	srli	x2,x2,0x39
    80003a84:	022161b3          	rem	x3,x2,x2
    80003a88:	021180b3          	mul	x1,x3,x1
    80003a8c:	400081b7          	lui	x3,0x40008
    80003a90:	003181b3          	add	x3,x3,x3
    80003a94:	f8719423          	sh	x7,-120(x3) # 40007f88 <_binary_lab3_extra_test_bin_size+0x3ffdf454>
    80003a98:	001130b3          	sltu	x1,x2,x1
    80003a9c:	400081b7          	lui	x3,0x40008
    80003aa0:	003181b3          	add	x3,x3,x3
    80003aa4:	f881b783          	ld	x15,-120(x3) # 40007f88 <_binary_lab3_extra_test_bin_size+0x3ffdf454>
    80003aa8:	0021b133          	sltu	x2,x3,x2
    80003aac:	9421b113          	sltiu	x2,x3,-1726
    80003ab0:	c3e002b7          	lui	x5,0xc3e00
    80003ab4:	0172109b          	slliw	x1,x4,0x17
    80003ab8:	8d9c8137          	lui	x2,0x8d9c8
    80003abc:	0031f033          	and	x0,x3,x3
    80003ac0:	0230d0bb          	divuw	x1,x1,x3
    80003ac4:	0030909b          	slliw	x1,x1,0x3
    80003ac8:	0011d133          	srl	x2,x3,x1
    80003acc:	0031c1b3          	xor	x3,x3,x3
    80003ad0:	4107d313          	srai	x6,x15,0x10
    80003ad4:	0000d03b          	srlw	x0,x1,x0
    80003ad8:	00010093          	mv	x1,x2
    80003adc:	00208263          	beq	x1,x2,80003ae0 <_binary_lab3_extra_test_bin_start+0x3ae0>
    80003ae0:	4080d01b          	sraiw	x0,x1,0x8
    80003ae4:	d999b1b7          	lui	x3,0xd999b
    80003ae8:	0221c0b3          	div	x1,x3,x2
    80003aec:	02214333          	div	x6,x2,x2
    80003af0:	40008337          	lui	x6,0x40008
    80003af4:	00630333          	add	x6,x6,x6
    80003af8:	f8031123          	sh	x0,-126(x6) # 40007f82 <_binary_lab3_extra_test_bin_size+0x3ffdf44e>
    80003afc:	dd657197          	auipc	x3,0xdd657
    80003b00:	022150b3          	divu	x1,x2,x2
    80003b04:	0211c13b          	divw	x2,x3,x1
    80003b08:	5d4341b7          	lui	x3,0x5d434
    80003b0c:	400081b7          	lui	x3,0x40008
    80003b10:	003181b3          	add	x3,x3,x3
    80003b14:	f841e083          	lwu	x1,-124(x3) # 40007f84 <_binary_lab3_extra_test_bin_size+0x3ffdf450>
    80003b18:	005103bb          	addw	x7,x2,x5
    80003b1c:	660d7117          	auipc	x2,0x660d7
    80003b20:	002bc133          	xor	x2,x23,x2
    80003b24:	0202f7bb          	remuw	x15,x5,x0
    80003b28:	0071533b          	srlw	x6,x2,x7
    80003b2c:	0046a133          	slt	x2,x13,x4
    80003b30:	40008137          	lui	x2,0x40008
    80003b34:	00210133          	add	x2,x2,x2
    80003b38:	f8812283          	lw	x5,-120(x2) # 40007f88 <_binary_lab3_extra_test_bin_size+0x3ffdf454>
    80003b3c:	0250d1b3          	divu	x3,x1,x5
    80003b40:	9ced67b7          	lui	x15,0x9ced6
    80003b44:	0293d0bb          	divuw	x1,x7,x9
    80003b48:	4c595337          	lui	x6,0x4c595
    80003b4c:	0261f03b          	remuw	x0,x3,x6
    80003b50:	4fae4197          	auipc	x3,0x4fae4
    80003b54:	002110bb          	sllw	x1,x2,x2
    80003b58:	98a17193          	andi	x3,x2,-1654
    80003b5c:	da20dee3          	bge	x1,x2,80003918 <_binary_lab3_extra_test_bin_start+0x3918>
    80003b60:	da20cce3          	blt	x1,x2,80003918 <_binary_lab3_extra_test_bin_start+0x3918>
    80003b64:	400080b7          	lui	x1,0x40008
    80003b68:	001080b3          	add	x1,x1,x1
    80003b6c:	f8109323          	sh	x1,-122(x1) # 40007f86 <_binary_lab3_extra_test_bin_size+0x3ffdf452>
    80003b70:	c008f017          	auipc	x0,0xc008f
    80003b74:	01a1511b          	srliw	x2,x2,0x1a
    80003b78:	dd20e197          	auipc	x3,0xdd20e
    80003b7c:	0220f0b3          	remu	x1,x1,x2
    80003b80:	01e11293          	slli	x5,x2,0x1e
    80003b84:	400081b7          	lui	x3,0x40008
    80003b88:	003181b3          	add	x3,x3,x3
    80003b8c:	f821b023          	sd	x2,-128(x3) # 40007f80 <_binary_lab3_extra_test_bin_size+0x3ffdf44c>
    80003b90:	0171a333          	slt	x6,x3,x23
    80003b94:	b6517793          	andi	x15,x2,-1179
    80003b98:	0063d0b3          	srl	x1,x7,x6
    80003b9c:	0032f133          	and	x2,x5,x3
    80003ba0:	0081909b          	slliw	x1,x3,0x8
    80003ba4:	400081b7          	lui	x3,0x40008
    80003ba8:	003181b3          	add	x3,x3,x3
    80003bac:	f821b023          	sd	x2,-128(x3) # 40007f80 <_binary_lab3_extra_test_bin_size+0x3ffdf44c>
    80003bb0:	407471b7          	lui	x3,0x40747
    80003bb4:	0210d0bb          	divuw	x1,x1,x1
    80003bb8:	3ee1839b          	addiw	x7,x3,1006 # 407473ee <_binary_lab3_extra_test_bin_size+0x4071e8ba>
    80003bbc:	a56a2117          	auipc	x2,0xa56a2
    80003bc0:	00d0911b          	slliw	x2,x1,0xd
    80003bc4:	00015333          	srl	x6,x2,x0
    80003bc8:	68e6f137          	lui	x2,0x68e6f
    80003bcc:	0231d73b          	divuw	x14,x3,x3
    80003bd0:	59927213          	andi	x4,x4,1433
    80003bd4:	0021d0b3          	srl	x1,x3,x2
    80003bd8:	400080b7          	lui	x1,0x40008
    80003bdc:	001080b3          	add	x1,x1,x1
    80003be0:	f860b423          	sd	x6,-120(x1) # 40007f88 <_binary_lab3_extra_test_bin_size+0x3ffdf454>
    80003be4:	6a110e63          	beq	x2,x1,800042a0 <_binary_lab3_extra_test_bin_start+0x42a0>
    80003be8:	6b8000ef          	jal	800042a0 <_binary_lab3_extra_test_bin_start+0x42a0>
    80003bec:	02335133          	divu	x2,x6,x3
    80003bf0:	003233b3          	sltu	x7,x4,x3
    80003bf4:	400080b7          	lui	x1,0x40008
    80003bf8:	001080b3          	add	x1,x1,x1
    80003bfc:	f830b023          	sd	x3,-128(x1) # 40007f80 <_binary_lab3_extra_test_bin_size+0x3ffdf44c>
    80003c00:	030a811b          	addiw	x2,x21,48 # ffffffffa57ba820 <_binary_lab3_extra_test_bin_end+0xffffffff25791cec>
    80003c04:	007116b3          	sll	x13,x2,x7
    80003c08:	40008137          	lui	x2,0x40008
    80003c0c:	00210133          	add	x2,x2,x2
    80003c10:	f8c11183          	lh	x3,-116(x2) # 40007f8c <_binary_lab3_extra_test_bin_size+0x3ffdf458>
    80003c14:	400081b7          	lui	x3,0x40008
    80003c18:	003181b3          	add	x3,x3,x3
    80003c1c:	f8118223          	sb	x1,-124(x3) # 40007f84 <_binary_lab3_extra_test_bin_size+0x3ffdf450>
    80003c20:	002031b3          	snez	x3,x2
    80003c24:	0232813b          	mulw	x2,x5,x3
    80003c28:	9170e293          	ori	x5,x1,-1769
    80003c2c:	00d09013          	slli	x0,x1,0xd
    80003c30:	0040d1bb          	srlw	x3,x1,x4
    80003c34:	024041b3          	div	x3,x0,x4
    80003c38:	43d0e113          	ori	x2,x1,1085
    80003c3c:	c6c10213          	addi	x4,x2,-916
    80003c40:	0053e0b3          	or	x1,x7,x5
    80003c44:	46f1811b          	addiw	x2,x3,1135
    80003c48:	3020811b          	addiw	x2,x1,770
    80003c4c:	02101313          	slli	x6,x0,0x21
    80003c50:	02334133          	div	x2,x6,x3
    80003c54:	40008137          	lui	x2,0x40008
    80003c58:	00210133          	add	x2,x2,x2
    80003c5c:	f8313423          	sd	x3,-120(x2) # 40007f88 <_binary_lab3_extra_test_bin_size+0x3ffdf454>
    80003c60:	400081b7          	lui	x3,0x40008
    80003c64:	003181b3          	add	x3,x3,x3
    80003c68:	f8c1e303          	lwu	x6,-116(x3) # 40007f8c <_binary_lab3_extra_test_bin_size+0x3ffdf458>
    80003c6c:	00000117          	auipc	x2,0x0
    80003c70:	ef8100e7          	jalr	-264(x2) # 80003b64 <_binary_lab3_extra_test_bin_start+0x3b64>
    80003c74:	002311bb          	sllw	x3,x6,x2
    80003c78:	0230d133          	divu	x2,x1,x3
    80003c7c:	0026919b          	slliw	x3,x13,0x2
    80003c80:	0038b1b3          	sltu	x3,x17,x3
    80003c84:	01c11213          	slli	x4,x2,0x1c
    80003c88:	400083b7          	lui	x7,0x40008
    80003c8c:	007383b3          	add	x7,x7,x7
    80003c90:	f8439623          	sh	x4,-116(x7) # 40007f8c <_binary_lab3_extra_test_bin_size+0x3ffdf458>
    80003c94:	0028933b          	sllw	x6,x17,x2
    80003c98:	4371d013          	srai	x0,x3,0x37
    80003c9c:	bc4760b7          	lui	x1,0xbc476
    80003ca0:	0031b0b3          	sltu	x1,x3,x3
    80003ca4:	0201f033          	remu	x0,x3,x0
    80003ca8:	3f626117          	auipc	x2,0x3f626
    80003cac:	40008237          	lui	x4,0x40008
    80003cb0:	00420233          	add	x4,x4,x4
    80003cb4:	f9221723          	sh	x18,-114(x4) # 40007f8e <_binary_lab3_extra_test_bin_size+0x3ffdf45a>
    80003cb8:	2521a093          	slti	x1,x3,594
    80003cbc:	8a879117          	auipc	x2,0x8a879
    80003cc0:	0091d193          	srli	x3,x3,0x9
    80003cc4:	40008137          	lui	x2,0x40008
    80003cc8:	00210133          	add	x2,x2,x2
    80003ccc:	f8810083          	lb	x1,-120(x2) # 40007f88 <_binary_lab3_extra_test_bin_size+0x3ffdf454>
    80003cd0:	001100bb          	addw	x1,x2,x1
    80003cd4:	400080b7          	lui	x1,0x40008
    80003cd8:	001080b3          	add	x1,x1,x1
    80003cdc:	f8b08183          	lb	x3,-117(x1) # 40007f8b <_binary_lab3_extra_test_bin_size+0x3ffdf457>
    80003ce0:	01d1909b          	slliw	x1,x3,0x1d
    80003ce4:	08316b37          	lui	x22,0x8316
    80003ce8:	0223f133          	remu	x2,x7,x2
    80003cec:	de420197          	auipc	x3,0xde420
    80003cf0:	04f0811b          	addiw	x2,x1,79
    80003cf4:	001181b3          	add	x3,x3,x1
    80003cf8:	0020013b          	addw	x2,x0,x2
    80003cfc:	0210d2b3          	divu	x5,x1,x1
    80003d00:	0241d3b3          	divu	x7,x3,x4
    80003d04:	e21c9197          	auipc	x3,0xe21c9
    80003d08:	66718a1b          	addiw	x20,x3,1639 # 621cd36b <_binary_lab3_extra_test_bin_size+0x621a4837>
    80003d0c:	f6cab137          	lui	x2,0xf6cab
    80003d10:	023160bb          	remw	x1,x2,x3
    80003d14:	eb407093          	andi	x1,x0,-332
    80003d18:	4340d193          	srai	x3,x1,0x34
    80003d1c:	00000093          	li	x1,0
    80003d20:	44008a63          	beqz	x1,80004174 <_binary_lab3_extra_test_bin_start+0x4174>
    80003d24:	402101bb          	subw	x3,x2,x2
    80003d28:	002230b3          	sltu	x1,x4,x2
    80003d2c:	d0d493b7          	lui	x7,0xd0d49
    80003d30:	56c0a093          	slti	x1,x1,1388
    80003d34:	2dc1c313          	xori	x6,x3,732
    80003d38:	0015923b          	sllw	x4,x11,x1
    80003d3c:	f4718113          	addi	x2,x3,-185
    80003d40:	9c90a093          	slti	x1,x1,-1591
    80003d44:	400080b7          	lui	x1,0x40008
    80003d48:	001080b3          	add	x1,x1,x1
    80003d4c:	f8309223          	sh	x3,-124(x1) # 40007f84 <_binary_lab3_extra_test_bin_size+0x3ffdf450>
    80003d50:	400080b7          	lui	x1,0x40008
    80003d54:	001080b3          	add	x1,x1,x1
    80003d58:	f8109223          	sh	x1,-124(x1) # 40007f84 <_binary_lab3_extra_test_bin_size+0x3ffdf450>
    80003d5c:	5b03b193          	sltiu	x3,x7,1456
    80003d60:	40008137          	lui	x2,0x40008
    80003d64:	00210133          	add	x2,x2,x2
    80003d68:	f8211423          	sh	x2,-120(x2) # 40007f88 <_binary_lab3_extra_test_bin_size+0x3ffdf454>
    80003d6c:	0221d0bb          	divuw	x1,x3,x2
    80003d70:	400080b7          	lui	x1,0x40008
    80003d74:	001080b3          	add	x1,x1,x1
    80003d78:	f8309423          	sh	x3,-120(x1) # 40007f88 <_binary_lab3_extra_test_bin_size+0x3ffdf454>
    80003d7c:	047571b7          	lui	x3,0x4757
    80003d80:	00310133          	add	x2,x2,x3
    80003d84:	40208133          	sub	x2,x1,x2
    80003d88:	85320037          	lui	x0,0x85320
    80003d8c:	400080b7          	lui	x1,0x40008
    80003d90:	001080b3          	add	x1,x1,x1
    80003d94:	f860d103          	lhu	x2,-122(x1) # 40007f86 <_binary_lab3_extra_test_bin_size+0x3ffdf452>
    80003d98:	022081bb          	mulw	x3,x1,x2
    80003d9c:	003070b3          	and	x1,x0,x3
    80003da0:	0231d33b          	divuw	x6,x3,x3
    80003da4:	403256b3          	sra	x13,x4,x3
    80003da8:	848ce0b7          	lui	x1,0x848ce
    80003dac:	00320263          	beq	x4,x3,80003db0 <_binary_lab3_extra_test_bin_start+0x3db0>
    80003db0:	5dd0016f          	jal	x2,80004b8c <_binary_lab3_extra_test_bin_start+0x4b8c>
    80003db4:	402100b3          	sub	x1,x2,x2
    80003db8:	ade16793          	ori	x15,x2,-1314
    80003dbc:	403080b3          	sub	x1,x1,x3
    80003dc0:	400081b7          	lui	x3,0x40008
    80003dc4:	003181b3          	add	x3,x3,x3
    80003dc8:	f801b183          	ld	x3,-128(x3) # 40007f80 <_binary_lab3_extra_test_bin_size+0x3ffdf44c>
    80003dcc:	026141b3          	div	x3,x2,x6
    80003dd0:	0000b0b3          	sltu	x1,x1,x0
    80003dd4:	0230d33b          	divuw	x6,x1,x3
    80003dd8:	9db1811b          	addiw	x2,x3,-1573
    80003ddc:	4026d1bb          	sraw	x3,x13,x2
    80003de0:	0020a133          	slt	x2,x1,x2
    80003de4:	0021b0b3          	sltu	x1,x3,x2
    80003de8:	001092bb          	sllw	x5,x1,x1
    80003dec:	c92cf017          	auipc	x0,0xc92cf
    80003df0:	400080b7          	lui	x1,0x40008
    80003df4:	001080b3          	add	x1,x1,x1
    80003df8:	f800b103          	ld	x2,-128(x1) # 40007f80 <_binary_lab3_extra_test_bin_size+0x3ffdf44c>
    80003dfc:	03d1d193          	srli	x3,x3,0x3d
    80003e00:	d4255097          	auipc	x1,0xd4255
    80003e04:	1a39e1b7          	lui	x3,0x1a39e
    80003e08:	8d83f093          	andi	x1,x7,-1832
    80003e0c:	006164b3          	or	x9,x2,x6
    80003e10:	03a1e03b          	remw	x0,x3,x26
    80003e14:	0001a7b3          	sltz	x15,x3
    80003e18:	0211d133          	divu	x2,x3,x1
    80003e1c:	0230d1b3          	divu	x3,x1,x3
    80003e20:	0151009b          	addiw	x1,x2,21
    80003e24:	dc1154e3          	bge	x2,x1,80003bec <_binary_lab3_extra_test_bin_start+0x3bec>
    80003e28:	dc1142e3          	blt	x2,x1,80003bec <_binary_lab3_extra_test_bin_start+0x3bec>
    80003e2c:	e1d0c113          	xori	x2,x1,-483
    80003e30:	0210c13b          	divw	x2,x1,x1
    80003e34:	0020f133          	and	x2,x1,x2
    80003e38:	01c0d113          	srli	x2,x1,0x1c
    80003e3c:	03a11113          	slli	x2,x2,0x3a
    80003e40:	0231f0bb          	remuw	x1,x3,x3
    80003e44:	745ad1b7          	lui	x3,0x745ad
    80003e48:	400089b7          	lui	x19,0x40008
    80003e4c:	013989b3          	add	x19,x19,x19
    80003e50:	f8d9c183          	lbu	x3,-115(x19) # 40007f8d <_binary_lab3_extra_test_bin_size+0x3ffdf459>
    80003e54:	4027813b          	subw	x2,x15,x2
    80003e58:	b293e093          	ori	x1,x7,-1239
    80003e5c:	00f2109b          	slliw	x1,x4,0xf
    80003e60:	42f1d113          	srai	x2,x3,0x2f
    80003e64:	ddc13013          	sltiu	x0,x2,-548
    80003e68:	a2a0c193          	xori	x3,x1,-1494
    80003e6c:	06f06237          	lui	x4,0x6f06
    80003e70:	36816193          	ori	x3,x2,872
    80003e74:	289bb117          	auipc	x2,0x289bb
    80003e78:	bac18093          	addi	x1,x3,-1108 # 745acbac <_binary_lab3_extra_test_bin_size+0x74584078>
    80003e7c:	02125133          	divu	x2,x4,x1
    80003e80:	2af2d097          	auipc	x1,0x2af2d
    80003e84:	002005bb          	addw	x11,x0,x2
    80003e88:	0010559b          	srliw	x11,x0,0x1
    80003e8c:	40008137          	lui	x2,0x40008
    80003e90:	00210133          	add	x2,x2,x2
    80003e94:	f8815083          	lhu	x1,-120(x2) # 40007f88 <_binary_lab3_extra_test_bin_size+0x3ffdf454>
    80003e98:	400081b7          	lui	x3,0x40008
    80003e9c:	003181b3          	add	x3,x3,x3
    80003ea0:	f871b423          	sd	x7,-120(x3) # 40007f88 <_binary_lab3_extra_test_bin_size+0x3ffdf454>
    80003ea4:	40008137          	lui	x2,0x40008
    80003ea8:	00210133          	add	x2,x2,x2
    80003eac:	f8013183          	ld	x3,-128(x2) # 40007f80 <_binary_lab3_extra_test_bin_size+0x3ffdf44c>
    80003eb0:	0070a333          	slt	x6,x1,x7
    80003eb4:	00000317          	auipc	x6,0x0
    80003eb8:	35830167          	jalr	x2,856(x6) # 8000420c <_binary_lab3_extra_test_bin_start+0x420c>
    80003ebc:	0200c1bb          	divw	x3,x1,x0
    80003ec0:	1e208113          	addi	x2,x1,482 # aaf31062 <_binary_lab3_extra_test_bin_end+0x2af0852e>
    80003ec4:	02316133          	rem	x2,x2,x3
    80003ec8:	40700133          	neg	x2,x7
    80003ecc:	3d11a113          	slti	x2,x3,977
    80003ed0:	00310333          	add	x6,x2,x3
    80003ed4:	01721393          	slli	x7,x4,0x17
    80003ed8:	005153b3          	srl	x7,x2,x5
    80003edc:	d8c3a593          	slti	x11,x7,-628
    80003ee0:	b00850b7          	lui	x1,0xb0085
    80003ee4:	4371e093          	ori	x1,x3,1079
    80003ee8:	00337033          	and	x0,x6,x3
    80003eec:	404083b3          	sub	x7,x1,x4
    80003ef0:	9fe84097          	auipc	x1,0x9fe84
    80003ef4:	400081b7          	lui	x3,0x40008
    80003ef8:	003181b3          	add	x3,x3,x3
    80003efc:	f8019023          	sh	x0,-128(x3) # 40007f80 <_binary_lab3_extra_test_bin_size+0x3ffdf44c>
    80003f00:	fff1e193          	ori	x3,x3,-1
    80003f04:	401053b3          	sra	x7,x0,x1
    80003f08:	40008137          	lui	x2,0x40008
    80003f0c:	00210133          	add	x2,x2,x2
    80003f10:	f8013083          	ld	x1,-128(x2) # 40007f80 <_binary_lab3_extra_test_bin_size+0x3ffdf44c>
    80003f14:	0251503b          	divuw	x0,x2,x5
    80003f18:	8764bb13          	sltiu	x22,x9,-1930
    80003f1c:	4261dd93          	srai	x27,x3,0x26
    80003f20:	40008137          	lui	x2,0x40008
    80003f24:	00210133          	add	x2,x2,x2
    80003f28:	f8713423          	sd	x7,-120(x2) # 40007f88 <_binary_lab3_extra_test_bin_size+0x3ffdf454>
    80003f2c:	00b0d61b          	srliw	x12,x1,0xb
    80003f30:	00000097          	auipc	x1,0x0
    80003f34:	1c0081e7          	jalr	x3,448(x1) # 800040f0 <_binary_lab3_extra_test_bin_start+0x40f0>
    80003f38:	00312133          	slt	x2,x2,x3
    80003f3c:	0011a0b3          	slt	x1,x3,x1
    80003f40:	400084b7          	lui	x9,0x40008
    80003f44:	009484b3          	add	x9,x9,x9
    80003f48:	f844d283          	lhu	x5,-124(x9) # 40007f84 <_binary_lab3_extra_test_bin_size+0x3ffdf450>
    80003f4c:	73d1c193          	xori	x3,x3,1853
    80003f50:	400081b7          	lui	x3,0x40008
    80003f54:	003181b3          	add	x3,x3,x3
    80003f58:	f8819083          	lh	x1,-120(x3) # 40007f88 <_binary_lab3_extra_test_bin_size+0x3ffdf454>
    80003f5c:	0460e393          	ori	x7,x1,70
    80003f60:	022180bb          	mulw	x1,x3,x2
    80003f64:	26e4e0b7          	lui	x1,0x26e4e
    80003f68:	001131b3          	sltu	x3,x2,x1
    80003f6c:	0013113b          	sllw	x2,x6,x1
    80003f70:	02115133          	divu	x2,x2,x1
    80003f74:	003093bb          	sllw	x7,x1,x3
    80003f78:	4010813b          	subw	x2,x1,x1
    80003f7c:	0221703b          	remuw	x0,x2,x2
    80003f80:	0032b133          	sltu	x2,x5,x3
    80003f84:	0032d03b          	srlw	x0,x5,x3
    80003f88:	0231e5b3          	rem	x11,x3,x3
    80003f8c:	002184b3          	add	x9,x3,x2
    80003f90:	ba8942b7          	lui	x5,0xba894
    80003f94:	4011d3b3          	sra	x7,x3,x1
    80003f98:	26a08113          	addi	x2,x1,618 # 26e4e26a <_binary_lab3_extra_test_bin_size+0x26e25736>
    80003f9c:	00109333          	sll	x6,x1,x1
    80003fa0:	05308f93          	addi	x31,x1,83
    80003fa4:	009100bb          	addw	x1,x2,x9
    80003fa8:	002050bb          	srlw	x1,x0,x2
    80003fac:	002181b3          	add	x3,x3,x2
    80003fb0:	5d72009b          	addiw	x1,x4,1495 # 6f065d7 <_binary_lab3_extra_test_bin_size+0x6eddaa3>
    80003fb4:	0020a633          	slt	x12,x1,x2
    80003fb8:	0021c333          	xor	x6,x3,x2
    80003fbc:	00030193          	mv	x3,x6
    80003fc0:	00618263          	beq	x3,x6,80003fc4 <_binary_lab3_extra_test_bin_start+0x3fc4>
    80003fc4:	4310d193          	srai	x3,x1,0x31
    80003fc8:	00b0911b          	slliw	x2,x1,0xb
    80003fcc:	4007d13b          	sraw	x2,x15,x0
    80003fd0:	02f140bb          	divw	x1,x2,x15
    80003fd4:	2ad6f097          	auipc	x1,0x2ad6f
    80003fd8:	0041503b          	srlw	x0,x2,x4
    80003fdc:	0240c4b3          	div	x9,x1,x4
    80003fe0:	002240b3          	xor	x1,x4,x2
    80003fe4:	1713011b          	addiw	x2,x6,369
    80003fe8:	08da0137          	lui	x2,0x8da0
    80003fec:	00210033          	add	x0,x2,x2
    80003ff0:	0020a233          	slt	x4,x1,x2
    80003ff4:	0021b0b3          	sltu	x1,x3,x2
    80003ff8:	0a0781b7          	lui	x3,0xa078
    80003ffc:	0230e13b          	remw	x2,x1,x3
    80004000:	40318133          	sub	x2,x3,x3
    80004004:	40008237          	lui	x4,0x40008
    80004008:	00420233          	add	x4,x4,x4
    8000400c:	f8823e03          	ld	x28,-120(x4) # 40007f88 <_binary_lab3_extra_test_bin_size+0x3ffdf454>
    80004010:	03d171bb          	remuw	x3,x2,x29
    80004014:	00516233          	or	x4,x2,x5
    80004018:	00a2509b          	srliw	x1,x4,0xa
    8000401c:	00d0d11b          	srliw	x2,x1,0xd
    80004020:	fdcc7297          	auipc	x5,0xfdcc7
    80004024:	01c11193          	slli	x3,x2,0x1c
    80004028:	40008137          	lui	x2,0x40008
    8000402c:	00210133          	add	x2,x2,x2
    80004030:	f8013083          	ld	x1,-128(x2) # 40007f80 <_binary_lab3_extra_test_bin_size+0x3ffdf44c>
    80004034:	0a277697          	auipc	x13,0xa277
    80004038:	e73f9237          	lui	x4,0xe73f9
    8000403c:	0106939b          	slliw	x7,x13,0x10
    80004040:	400080b7          	lui	x1,0x40008
    80004044:	001080b3          	add	x1,x1,x1
    80004048:	f8a0d383          	lhu	x7,-118(x1) # 40007f8a <_binary_lab3_extra_test_bin_size+0x3ffdf456>
    8000404c:	00b1c1b3          	xor	x3,x3,x11
    80004050:	00018113          	mv	x2,x3
    80004054:	e63104e3          	beq	x2,x3,80003ebc <_binary_lab3_extra_test_bin_start+0x3ebc>
    80004058:	00e0d29b          	srliw	x5,x1,0xe
    8000405c:	e00d3197          	auipc	x3,0xe00d3
    80004060:	40008137          	lui	x2,0x40008
    80004064:	00210133          	add	x2,x2,x2
    80004068:	f8813083          	ld	x1,-120(x2) # 40007f88 <_binary_lab3_extra_test_bin_size+0x3ffdf454>
    8000406c:	021201b3          	mul	x3,x4,x1
    80004070:	400081b7          	lui	x3,0x40008
    80004074:	003181b3          	add	x3,x3,x3
    80004078:	f811b023          	sd	x1,-128(x3) # 40007f80 <_binary_lab3_extra_test_bin_size+0x3ffdf44c>
    8000407c:	026300b3          	mul	x1,x6,x6
    80004080:	b741009b          	addiw	x1,x2,-1164
    80004084:	483e5397          	auipc	x7,0x483e5
    80004088:	0210e0b3          	rem	x1,x1,x1
    8000408c:	022162bb          	remw	x5,x2,x2
    80004090:	5072f593          	andi	x11,x5,1287
    80004094:	40008337          	lui	x6,0x40008
    80004098:	00630333          	add	x6,x6,x6
    8000409c:	f8833103          	ld	x2,-120(x6) # 40007f88 <_binary_lab3_extra_test_bin_size+0x3ffdf454>
    800040a0:	00201133          	sll	x2,x0,x2
    800040a4:	0010a233          	slt	x4,x1,x1
    800040a8:	611990b7          	lui	x1,0x61199
    800040ac:	54d13193          	sltiu	x3,x2,1357
    800040b0:	400081b7          	lui	x3,0x40008
    800040b4:	003181b3          	add	x3,x3,x3
    800040b8:	f8319623          	sh	x3,-116(x3) # 40007f8c <_binary_lab3_extra_test_bin_size+0x3ffdf458>
    800040bc:	003361b3          	or	x3,x6,x3
    800040c0:	89f3b117          	auipc	x2,0x89f3b
    800040c4:	01e1111b          	slliw	x2,x2,0x1e
    800040c8:	f8991117          	auipc	x2,0xf8991
    800040cc:	001111b3          	sll	x3,x2,x1
    800040d0:	003791b3          	sll	x3,x15,x3
    800040d4:	4051511b          	sraiw	x2,x2,0x5
    800040d8:	0031d6b3          	srl	x13,x3,x3
    800040dc:	003180bb          	addw	x1,x3,x3
    800040e0:	b1f2b193          	sltiu	x3,x5,-1249
    800040e4:	521a81b7          	lui	x3,0x521a8
    800040e8:	00008113          	mv	x2,x1
    800040ec:	e41106e3          	beq	x2,x1,80003f38 <_binary_lab3_extra_test_bin_start+0x3f38>
    800040f0:	400080b7          	lui	x1,0x40008
    800040f4:	001080b3          	add	x1,x1,x1
    800040f8:	f830b423          	sd	x3,-120(x1) # 40007f88 <_binary_lab3_extra_test_bin_size+0x3ffdf454>
    800040fc:	3951c193          	xori	x3,x3,917
    80004100:	400080b7          	lui	x1,0x40008
    80004104:	001080b3          	add	x1,x1,x1
    80004108:	f800b203          	ld	x4,-128(x1) # 40007f80 <_binary_lab3_extra_test_bin_size+0x3ffdf44c>
    8000410c:	0210c0bb          	divw	x1,x1,x1
    80004110:	b081b113          	sltiu	x2,x3,-1272
    80004114:	35c40d97          	auipc	x27,0x35c40
    80004118:	9013e137          	lui	x2,0x9013e
    8000411c:	76923293          	sltiu	x5,x4,1897
    80004120:	01e1111b          	slliw	x2,x2,0x1e
    80004124:	9ad59097          	auipc	x1,0x9ad59
    80004128:	b8742c37          	lui	x24,0xb8742
    8000412c:	002151bb          	srlw	x3,x2,x2
    80004130:	01f100bb          	addw	x1,x2,x31
    80004134:	02336233          	rem	x4,x6,x3
    80004138:	400080b7          	lui	x1,0x40008
    8000413c:	001080b3          	add	x1,x1,x1
    80004140:	f8209023          	sh	x2,-128(x1) # 40007f80 <_binary_lab3_extra_test_bin_size+0x3ffdf44c>
    80004144:	3ed0a193          	slti	x3,x1,1005
    80004148:	01d00193          	li	x3,29
    8000414c:	0011929b          	slliw	x5,x3,0x1
    80004150:	b6928f13          	addi	x30,x5,-1175 # 7dccab89 <_binary_lab3_extra_test_bin_size+0x7dca2055>
    80004154:	0031e0b3          	or	x1,x3,x3
    80004158:	40008137          	lui	x2,0x40008
    8000415c:	00210133          	add	x2,x2,x2
    80004160:	f8412183          	lw	x3,-124(x2) # 40007f84 <_binary_lab3_extra_test_bin_size+0x3ffdf450>
    80004164:	b889b097          	auipc	x1,0xb889b
    80004168:	001091bb          	sllw	x3,x1,x1
    8000416c:	00350263          	beq	x10,x3,80004170 <_binary_lab3_extra_test_bin_start+0x4170>
    80004170:	e98ff1ef          	jal	x3,80003808 <_binary_lab3_extra_test_bin_start+0x3808>
    80004174:	0101919b          	slliw	x3,x3,0x10
    80004178:	0211803b          	mulw	x0,x3,x1
    8000417c:	02527133          	remu	x2,x4,x5
    80004180:	02801093          	slli	x1,x0,0x28
    80004184:	41a0559b          	sraiw	x11,x0,0x1a
    80004188:	d8403193          	sltiu	x3,x0,-636
    8000418c:	4033d0b3          	sra	x1,x7,x3
    80004190:	0233e0bb          	remw	x1,x7,x3
    80004194:	40697197          	auipc	x3,0x40697
    80004198:	403150b3          	sra	x1,x2,x3
    8000419c:	0072033b          	addw	x6,x4,x7
    800041a0:	01a0e1b3          	or	x3,x1,x26
    800041a4:	0033a2b3          	slt	x5,x7,x3
    800041a8:	0213f133          	remu	x2,x7,x1
    800041ac:	400083b7          	lui	x7,0x40008
    800041b0:	007383b3          	add	x7,x7,x7
    800041b4:	f883b183          	ld	x3,-120(x7) # 40007f88 <_binary_lab3_extra_test_bin_size+0x3ffdf454>
    800041b8:	21a12113          	slti	x2,x2,538
    800041bc:	0061111b          	slliw	x2,x2,0x6
    800041c0:	001300b3          	add	x1,x6,x1
    800041c4:	400080b7          	lui	x1,0x40008
    800041c8:	001080b3          	add	x1,x1,x1
    800041cc:	f800be83          	ld	x29,-128(x1) # 40007f80 <_binary_lab3_extra_test_bin_size+0x3ffdf44c>
    800041d0:	400080b7          	lui	x1,0x40008
    800041d4:	001080b3          	add	x1,x1,x1
    800041d8:	f820b423          	sd	x2,-120(x1) # 40007f88 <_binary_lab3_extra_test_bin_size+0x3ffdf454>
    800041dc:	0012d0bb          	srlw	x1,x5,x1
    800041e0:	4276e197          	auipc	x3,0x4276e
    800041e4:	0253c13b          	divw	x2,x7,x5
    800041e8:	3237e1b7          	lui	x3,0x3237e
    800041ec:	40008137          	lui	x2,0x40008
    800041f0:	00210133          	add	x2,x2,x2
    800041f4:	f8013183          	ld	x3,-128(x2) # 40007f80 <_binary_lab3_extra_test_bin_size+0x3ffdf44c>
    800041f8:	002080bb          	addw	x1,x1,x2
    800041fc:	001296b3          	sll	x13,x5,x1
    80004200:	0021933b          	sllw	x6,x3,x2
    80004204:	ba40f8e3          	bgeu	x1,x4,80003db4 <_binary_lab3_extra_test_bin_start+0x3db4>
    80004208:	ba40e6e3          	bltu	x1,x4,80003db4 <_binary_lab3_extra_test_bin_start+0x3db4>
    8000420c:	0230e23b          	remw	x4,x1,x3
    80004210:	40008137          	lui	x2,0x40008
    80004214:	00210133          	add	x2,x2,x2
    80004218:	f8013183          	ld	x3,-128(x2) # 40007f80 <_binary_lab3_extra_test_bin_size+0x3ffdf44c>
    8000421c:	002061b3          	or	x3,x0,x2
    80004220:	001120b3          	slt	x1,x2,x1
    80004224:	400082b7          	lui	x5,0x40008
    80004228:	005282b3          	add	x5,x5,x5
    8000422c:	f832b423          	sd	x3,-120(x5) # 40007f88 <_binary_lab3_extra_test_bin_size+0x3ffdf454>
    80004230:	0150909b          	slliw	x1,x1,0x15
    80004234:	400080b7          	lui	x1,0x40008
    80004238:	001080b3          	add	x1,x1,x1
    8000423c:	f880b183          	ld	x3,-120(x1) # 40007f88 <_binary_lab3_extra_test_bin_size+0x3ffdf454>
    80004240:	0060939b          	slliw	x7,x1,0x6
    80004244:	0030113b          	sllw	x2,x0,x3
    80004248:	02b19213          	slli	x4,x3,0x2b
    8000424c:	4070813b          	subw	x2,x1,x7
    80004250:	0211c3b3          	div	x7,x3,x1
    80004254:	b7535297          	auipc	x5,0xb7535
    80004258:	0033023b          	addw	x4,x6,x3
    8000425c:	400080b7          	lui	x1,0x40008
    80004260:	001080b3          	add	x1,x1,x1
    80004264:	f8209323          	sh	x2,-122(x1) # 40007f86 <_binary_lab3_extra_test_bin_size+0x3ffdf452>
    80004268:	001dd1b3          	srl	x3,x27,x1
    8000426c:	403301b3          	sub	x3,x6,x3
    80004270:	002091b3          	sll	x3,x1,x2
    80004274:	39f0e613          	ori	x12,x1,927
    80004278:	e3b1e213          	ori	x4,x3,-453
    8000427c:	01209093          	slli	x1,x1,0x12
    80004280:	8680c193          	xori	x3,x1,-1944
    80004284:	0247c0bb          	divw	x1,x15,x4
    80004288:	ee1491b7          	lui	x3,0xee149
    8000428c:	0230e033          	rem	x0,x1,x3
    80004290:	f8e92197          	auipc	x3,0xf8e92
    80004294:	021141bb          	divw	x3,x2,x1
    80004298:	9c239ee3          	bne	x7,x2,80003c74 <_binary_lab3_extra_test_bin_start+0x3c74>
    8000429c:	9c238ce3          	beq	x7,x2,80003c74 <_binary_lab3_extra_test_bin_start+0x3c74>
    800042a0:	4041d23b          	sraw	x4,x3,x4
    800042a4:	40008137          	lui	x2,0x40008
    800042a8:	00210133          	add	x2,x2,x2
    800042ac:	f8215103          	lhu	x2,-126(x2) # 40007f82 <_binary_lab3_extra_test_bin_size+0x3ffdf44e>
    800042b0:	7b252097          	auipc	x1,0x7b252
    800042b4:	5b042197          	auipc	x3,0x5b042
    800042b8:	400086b7          	lui	x13,0x40008
    800042bc:	00d686b3          	add	x13,x13,x13
    800042c0:	f876c183          	lbu	x3,-121(x13) # 40007f87 <_binary_lab3_extra_test_bin_size+0x3ffdf453>
    800042c4:	f9e22137          	lui	x2,0xf9e22
    800042c8:	02106133          	rem	x2,x0,x1
    800042cc:	400081b7          	lui	x3,0x40008
    800042d0:	003181b3          	add	x3,x3,x3
    800042d4:	f8119223          	sh	x1,-124(x3) # 40007f84 <_binary_lab3_extra_test_bin_size+0x3ffdf450>
    800042d8:	0076d0bb          	srlw	x1,x13,x7
    800042dc:	400082b7          	lui	x5,0x40008
    800042e0:	005282b3          	add	x5,x5,x5
    800042e4:	f802b103          	ld	x2,-128(x5) # 40007f80 <_binary_lab3_extra_test_bin_size+0x3ffdf44c>
    800042e8:	003140b3          	xor	x1,x2,x3
    800042ec:	02216133          	rem	x2,x2,x2
    800042f0:	003181bb          	addw	x3,x3,x3
    800042f4:	0070d23b          	srlw	x4,x1,x7
    800042f8:	029174b3          	remu	x9,x2,x9
    800042fc:	271a01b7          	lui	x3,0x271a0
    80004300:	723dd017          	auipc	x0,0x723dd
    80004304:	400080b7          	lui	x1,0x40008
    80004308:	001080b3          	add	x1,x1,x1
    8000430c:	f830b023          	sd	x3,-128(x1) # 40007f80 <_binary_lab3_extra_test_bin_size+0x3ffdf44c>
    80004310:	400080b7          	lui	x1,0x40008
    80004314:	001080b3          	add	x1,x1,x1
    80004318:	f860c183          	lbu	x3,-122(x1) # 40007f86 <_binary_lab3_extra_test_bin_size+0x3ffdf452>
    8000431c:	4160d19b          	sraiw	x3,x1,0x16
    80004320:	efd36097          	auipc	x1,0xefd36
    80004324:	d2218ae3          	beq	x3,x2,80004058 <_binary_lab3_extra_test_bin_start+0x4058>
    80004328:	d31ff06f          	j	80004058 <_binary_lab3_extra_test_bin_start+0x4058>
    8000432c:	02015333          	divu	x6,x2,x0
    80004330:	ed33819b          	addiw	x3,x7,-301
    80004334:	4000d33b          	sraw	x6,x1,x0
    80004338:	0020eb33          	or	x22,x1,x2
    8000433c:	b91f4097          	auipc	x1,0xb91f4
    80004340:	cdc2a213          	slti	x4,x5,-804
    80004344:	400081b7          	lui	x3,0x40008
    80004348:	003181b3          	add	x3,x3,x3
    8000434c:	f881d103          	lhu	x2,-120(x3) # 40007f88 <_binary_lab3_extra_test_bin_size+0x3ffdf454>
    80004350:	400080b7          	lui	x1,0x40008
    80004354:	001080b3          	add	x1,x1,x1
    80004358:	f8608603          	lb	x12,-122(x1) # 40007f86 <_binary_lab3_extra_test_bin_size+0x3ffdf452>
    8000435c:	c0f0be13          	sltiu	x28,x1,-1009
    80004360:	405001bb          	negw	x3,x5
    80004364:	0271d0bb          	divuw	x1,x3,x7
    80004368:	001260b3          	or	x1,x4,x1
    8000436c:	7c12011b          	addiw	x2,x4,1985 # ffffffffe73f97c1 <_binary_lab3_extra_test_bin_end+0xffffffff673d0c8d>
    80004370:	023140bb          	divw	x1,x2,x3
    80004374:	8ae14013          	xori	x0,x2,-1874
    80004378:	0001bd33          	sltu	x26,x3,x0
    8000437c:	e5ef7213          	andi	x4,x30,-418
    80004380:	4001d13b          	sraw	x2,x3,x0
    80004384:	9d414393          	xori	x7,x2,-1580
    80004388:	003110bb          	sllw	x1,x2,x3
    8000438c:	003081bb          	addw	x3,x1,x3
    80004390:	73367197          	auipc	x3,0x73367
    80004394:	0231723b          	remuw	x4,x2,x3
    80004398:	0020a7b3          	slt	x15,x1,x2
    8000439c:	025361b3          	rem	x3,x6,x5
    800043a0:	00008593          	mv	x11,x1
    800043a4:	2c158c63          	beq	x11,x1,8000467c <_binary_lab3_extra_test_bin_start+0x467c>
    800043a8:	46b26093          	ori	x1,x4,1131
    800043ac:	02330133          	mul	x2,x6,x3
    800043b0:	40f2513b          	sraw	x2,x4,x15
    800043b4:	0220813b          	mulw	x2,x1,x2
    800043b8:	2f51b313          	sltiu	x6,x3,757
    800043bc:	003090bb          	sllw	x1,x1,x3
    800043c0:	0e60c013          	xori	x0,x1,230
    800043c4:	40008137          	lui	x2,0x40008
    800043c8:	00210133          	add	x2,x2,x2
    800043cc:	f8010083          	lb	x1,-128(x2) # 40007f80 <_binary_lab3_extra_test_bin_size+0x3ffdf44c>
    800043d0:	7cf16293          	ori	x5,x2,1999
    800043d4:	353961b7          	lui	x3,0x35396
    800043d8:	8a0bd097          	auipc	x1,0x8a0bd
    800043dc:	021f80bb          	mulw	x1,x31,x1
    800043e0:	005150bb          	srlw	x1,x2,x5
    800043e4:	023a01bb          	mulw	x3,x20,x3
    800043e8:	00107133          	and	x2,x0,x1
    800043ec:	020180bb          	mulw	x1,x3,x0
    800043f0:	0040911b          	slliw	x2,x1,0x4
    800043f4:	40008137          	lui	x2,0x40008
    800043f8:	00210133          	add	x2,x2,x2
    800043fc:	f8213423          	sd	x2,-120(x2) # 40007f88 <_binary_lab3_extra_test_bin_size+0x3ffdf454>
    80004400:	4000d13b          	sraw	x2,x1,x0
    80004404:	65e33193          	sltiu	x3,x6,1630
    80004408:	40310333          	sub	x6,x2,x3
    8000440c:	0022f2b3          	and	x5,x5,x2
    80004410:	a004c337          	lui	x6,0xa004c
    80004414:	0221723b          	remuw	x4,x2,x2
    80004418:	02614133          	div	x2,x2,x6
    8000441c:	96e2f497          	auipc	x9,0x96e2f
    80004420:	0223c1b3          	div	x3,x7,x2
    80004424:	1d313193          	sltiu	x3,x2,467
    80004428:	02909013          	slli	x0,x1,0x29
    8000442c:	00020113          	mv	x2,x4
    80004430:	48410463          	beq	x2,x4,800048b8 <_binary_lab3_extra_test_bin_start+0x48b8>
    80004434:	58724193          	xori	x3,x4,1415
    80004438:	400087b7          	lui	x15,0x40008
    8000443c:	00f787b3          	add	x15,x15,x15
    80004440:	f8378523          	sb	x3,-118(x15) # 40007f8a <_binary_lab3_extra_test_bin_size+0x3ffdf456>
    80004444:	0344801b          	addiw	x0,x9,52 # 16e33450 <_binary_lab3_extra_test_bin_size+0x16e0a91c>
    80004448:	400081b7          	lui	x3,0x40008
    8000444c:	003181b3          	add	x3,x3,x3
    80004450:	f8318023          	sb	x3,-128(x3) # 40007f80 <_binary_lab3_extra_test_bin_size+0x3ffdf44c>
    80004454:	0021113b          	sllw	x2,x2,x2
    80004458:	9121d117          	auipc	x2,0x9121d
    8000445c:	f8abc397          	auipc	x7,0xf8abc
    80004460:	0030e1b3          	or	x3,x1,x3
    80004464:	4000d093          	srai	x1,x1,0x0
    80004468:	2dc1819b          	addiw	x3,x3,732
    8000446c:	0270c0bb          	divw	x1,x1,x7
    80004470:	9770b113          	sltiu	x2,x1,-1673
    80004474:	00d1c0b3          	xor	x1,x3,x13
    80004478:	01a0d19b          	srliw	x3,x1,0x1a
    8000447c:	00e8f137          	lui	x2,0xe8f
    80004480:	0241cabb          	divw	x21,x3,x4
    80004484:	14909117          	auipc	x2,0x14909
    80004488:	e8f5e113          	ori	x2,x11,-369
    8000448c:	0031c0b3          	xor	x1,x3,x3
    80004490:	a6fc7137          	lui	x2,0xa6fc7
    80004494:	75b8e337          	lui	x6,0x75b8e
    80004498:	03f271b3          	remu	x3,x4,x31
    8000449c:	3e70a117          	auipc	x2,0x3e70a
    800044a0:	01ed119b          	slliw	x3,x26,0x1e
    800044a4:	6a41f093          	andi	x1,x3,1700
    800044a8:	0230f0bb          	remuw	x1,x1,x3
    800044ac:	400201bb          	subw	x3,x4,x0
    800044b0:	0233c0bb          	divw	x1,x7,x3
    800044b4:	8f218493          	addi	x9,x3,-1806
    800044b8:	00000117          	auipc	x2,0x0
    800044bc:	0a4100e7          	jalr	164(x2) # 8000455c <_binary_lab3_extra_test_bin_start+0x455c>
    800044c0:	1a424117          	auipc	x2,0x1a424
    800044c4:	0252d1b3          	divu	x3,x5,x5
    800044c8:	0153519b          	srliw	x3,x6,0x15
    800044cc:	003150b3          	srl	x1,x2,x3
    800044d0:	001191bb          	sllw	x3,x3,x1
    800044d4:	0161131b          	slliw	x6,x2,0x16
    800044d8:	00c19c1b          	slliw	x24,x3,0xc
    800044dc:	cc917213          	andi	x4,x2,-823
    800044e0:	03e11093          	slli	x1,x2,0x3e
    800044e4:	1d300293          	li	x5,467
    800044e8:	0016911b          	slliw	x2,x13,0x1
    800044ec:	02334133          	div	x2,x6,x3
    800044f0:	cee67197          	auipc	x3,0xcee67
    800044f4:	40d183bb          	subw	x7,x3,x13
    800044f8:	bd814497          	auipc	x9,0xbd814
    800044fc:	00108233          	add	x4,x1,x1
    80004500:	2c680097          	auipc	x1,0x2c680
    80004504:	0232d1bb          	divuw	x3,x5,x3
    80004508:	00039a1b          	slliw	x20,x7,0x0
    8000450c:	006007b3          	add	x15,x0,x6
    80004510:	0030d0bb          	srlw	x1,x1,x3
    80004514:	550c1337          	lui	x6,0x550c1
    80004518:	fb93b093          	sltiu	x1,x7,-71
    8000451c:	43f1d193          	srai	x3,x3,0x3f
    80004520:	0021e133          	or	x2,x3,x2
    80004524:	40008137          	lui	x2,0x40008
    80004528:	00210133          	add	x2,x2,x2
    8000452c:	f8013b83          	ld	x23,-128(x2) # 40007f80 <_binary_lab3_extra_test_bin_size+0x3ffdf44c>
    80004530:	00319133          	sll	x2,x3,x3
    80004534:	4000513b          	sraw	x2,x0,x0
    80004538:	0020d1bb          	srlw	x3,x1,x2
    8000453c:	022e9193          	slli	x3,x29,0x22
    80004540:	83da30b7          	lui	x1,0x83da3
    80004544:	40435133          	sra	x2,x6,x4
    80004548:	400080b7          	lui	x1,0x40008
