
lab3-test.elf:     file format elf64-littleriscv


Disassembly of section .text:

0000000080000000 <_binary_lab3_test_bin_start>:
    80000000:	00000093          	li	x1,0
    80000004:	00000113          	li	x2,0
    80000008:	00000193          	li	x3,0
    8000000c:	0011d1b3          	srl	x3,x3,x1
    80000010:	e0b86197          	auipc	x3,0xe0b86
    80000014:	f2516113          	ori	x2,x2,-219
    80000018:	40008fb7          	lui	x31,0x40008
    8000001c:	01ff8fb3          	add	x31,x31,x31
    80000020:	f8ff9523          	sh	x15,-118(x31) # 40007f8a <_binary_lab3_test_bin_size+0x3ffdf456>
    80000024:	f6d1019b          	addiw	x3,x2,-147
    80000028:	0023113b          	sllw	x2,x6,x2
    8000002c:	00208033          	add	x0,x1,x2
    80000030:	4590c113          	xori	x2,x1,1113
    80000034:	0100901b          	slliw	x0,x1,0x10
    80000038:	239ba1b7          	lui	x3,0x239ba
    8000003c:	4031013b          	subw	x2,x2,x3
    80000040:	40835193          	srai	x3,x6,0x8
    80000044:	f8200093          	li	x1,-126
    80000048:	000013bb          	sllw	x7,x0,x0
    8000004c:	ed41009b          	addiw	x1,x2,-300
    80000050:	d6e72797          	auipc	x15,0xd6e72
    80000054:	1a03e193          	ori	x3,x7,416
    80000058:	0041a133          	slt	x2,x3,x4
    8000005c:	401ed0bb          	sraw	x1,x29,x1
    80000060:	c4c24193          	xori	x3,x4,-948
    80000064:	eb8fd017          	auipc	x0,0xeb8fd
    80000068:	0030b133          	sltu	x2,x1,x3
    8000006c:	0020e133          	or	x2,x1,x2
    80000070:	01811193          	slli	x3,x2,0x18
    80000074:	1d69e097          	auipc	x1,0x1d69e
    80000078:	1c11f293          	andi	x5,x3,449
    8000007c:	0060c133          	xor	x2,x1,x6
    80000080:	4213e0b7          	lui	x1,0x4213e
    80000084:	01e0139b          	slliw	x7,x0,0x1e
    80000088:	56109263          	bne	x1,x1,800005ec <_binary_lab3_test_bin_start+0x5ec>
    8000008c:	56108063          	beq	x1,x1,800005ec <_binary_lab3_test_bin_start+0x5ec>
    80000090:	c0b0c217          	auipc	x4,0xc0b0c
    80000094:	0038e333          	or	x6,x17,x3
    80000098:	0163921b          	slliw	x4,x7,0x16
    8000009c:	00213133          	sltu	x2,x2,x2
    800000a0:	40215133          	sra	x2,x2,x2
    800000a4:	4039d1bb          	sraw	x3,x19,x3
    800000a8:	90d17393          	andi	x7,x2,-1779
    800000ac:	006173b3          	and	x7,x2,x6
    800000b0:	37d84137          	lui	x2,0x37d84
    800000b4:	401200b3          	sub	x1,x4,x1
    800000b8:	11706093          	ori	x1,x0,279
    800000bc:	007251b3          	srl	x3,x4,x7
    800000c0:	ee502093          	slti	x1,x0,-283
    800000c4:	02735493          	srli	x9,x6,0x27
    800000c8:	0071909b          	slliw	x1,x3,0x7
    800000cc:	83e13093          	sltiu	x1,x2,-1986
    800000d0:	28772197          	auipc	x3,0x28772
    800000d4:	0020f133          	and	x2,x1,x2
    800000d8:	0001a133          	sltz	x2,x3
    800000dc:	40215133          	sra	x2,x2,x2
    800000e0:	ee708213          	addi	x4,x1,-281 # 4213dee7 <_binary_lab3_test_bin_size+0x421153b3>
    800000e4:	02839213          	slli	x4,x7,0x28
    800000e8:	4cbb80b7          	lui	x1,0x4cbb8
    800000ec:	820b5137          	lui	x2,0x820b5
    800000f0:	40d083bb          	subw	x7,x1,x13
    800000f4:	0183909b          	slliw	x1,x7,0x18
    800000f8:	0131119b          	slliw	x3,x2,0x13
    800000fc:	00718233          	add	x4,x3,x7
    80000100:	001170b3          	and	x1,x2,x1
    80000104:	001650b3          	srl	x1,x12,x1
    80000108:	001190b3          	sll	x1,x3,x1
    8000010c:	40118133          	sub	x2,x3,x1
    80000110:	4013d1bb          	sraw	x3,x7,x1
    80000114:	00358263          	beq	x11,x3,80000118 <_binary_lab3_test_bin_start+0x118>
    80000118:	04d0016f          	jal	x2,80000964 <_binary_lab3_test_bin_start+0x964>
    8000011c:	400080b7          	lui	x1,0x40008
    80000120:	001080b3          	add	x1,x1,x1
    80000124:	f800bd83          	ld	x27,-128(x1) # 40007f80 <_binary_lab3_test_bin_size+0x3ffdf44c>
    80000128:	9951e193          	ori	x3,x3,-1643
    8000012c:	71b57097          	auipc	x1,0x71b57
    80000130:	d9e37113          	andi	x2,x6,-610
    80000134:	03f0811b          	addiw	x2,x1,63 # fffffffff1b5716b <_binary_lab3_test_bin_end+0xffffffff71b2e637>
    80000138:	0020d0b3          	srl	x1,x1,x2
    8000013c:	de813013          	sltiu	x0,x2,-536
    80000140:	6371b193          	sltiu	x3,x3,1591
    80000144:	001270b3          	and	x1,x4,x1
    80000148:	01104133          	xor	x2,x0,x17
    8000014c:	ff8f9137          	lui	x2,0xff8f9
    80000150:	40c1d11b          	sraiw	x2,x3,0xc
    80000154:	00127133          	and	x2,x4,x1
    80000158:	353a3217          	auipc	x4,0x353a3
    8000015c:	40008337          	lui	x6,0x40008
    80000160:	00630333          	add	x6,x6,x6
    80000164:	f81305a3          	sb	x1,-117(x6) # 40007f8b <_binary_lab3_test_bin_size+0x3ffdf457>
    80000168:	40200033          	neg	x0,x2
    8000016c:	4031d13b          	sraw	x2,x3,x3
    80000170:	1d80c193          	xori	x3,x1,472
    80000174:	f10b9097          	auipc	x1,0xf10b9
    80000178:	6e9a5117          	auipc	x2,0x6e9a5
    8000017c:	005101b3          	add	x3,x2,x5
    80000180:	002111bb          	sllw	x3,x2,x2
    80000184:	bc70f113          	andi	x2,x1,-1081
    80000188:	4010d03b          	sraw	x0,x1,x1
    8000018c:	3bf1b313          	sltiu	x6,x3,959
    80000190:	ed5b60b7          	lui	x1,0xed5b6
    80000194:	58128063          	beq	x5,x1,80000714 <_binary_lab3_test_bin_start+0x714>
    80000198:	57c00d6f          	jal	x26,80000714 <_binary_lab3_test_bin_start+0x714>
    8000019c:	0330d193          	srli	x3,x1,0x33
    800001a0:	65b1f113          	andi	x2,x3,1627
    800001a4:	02729293          	slli	x5,x5,0x27
    800001a8:	4011d13b          	sraw	x2,x3,x1
    800001ac:	f7267397          	auipc	x7,0xf7267
    800001b0:	400081b7          	lui	x3,0x40008
    800001b4:	003181b3          	add	x3,x3,x3
    800001b8:	f881e283          	lwu	x5,-120(x3) # 40007f88 <_binary_lab3_test_bin_size+0x3ffdf454>
    800001bc:	0020983b          	sllw	x16,x1,x2
    800001c0:	05c9b117          	auipc	x2,0x5c9b
    800001c4:	002241b3          	xor	x3,x4,x2
    800001c8:	00114233          	xor	x4,x2,x1
    800001cc:	418ad11b          	sraiw	x2,x21,0x18
    800001d0:	4061513b          	sraw	x2,x2,x6
    800001d4:	00103133          	snez	x2,x1
    800001d8:	40008137          	lui	x2,0x40008
    800001dc:	00210133          	add	x2,x2,x2
    800001e0:	f8012423          	sw	x0,-120(x2) # 40007f88 <_binary_lab3_test_bin_size+0x3ffdf454>
    800001e4:	0030b133          	sltu	x2,x1,x3
    800001e8:	02b11093          	slli	x1,x2,0x2b
    800001ec:	00b0d3b3          	srl	x7,x1,x11
    800001f0:	afaa9397          	auipc	x7,0xafaa9
    800001f4:	400081b7          	lui	x3,0x40008
    800001f8:	003181b3          	add	x3,x3,x3
    800001fc:	f841c003          	lbu	x0,-124(x3) # 40007f84 <_binary_lab3_test_bin_size+0x3ffdf450>
    80000200:	400080b7          	lui	x1,0x40008
    80000204:	001080b3          	add	x1,x1,x1
    80000208:	f8109723          	sh	x1,-114(x1) # 40007f8e <_binary_lab3_test_bin_size+0x3ffdf45a>
    8000020c:	49208113          	addi	x2,x1,1170
    80000210:	0f00c093          	xori	x1,x1,240
    80000214:	a0d8d137          	lui	x2,0xa0d8d
    80000218:	001081b3          	add	x3,x1,x1
    8000021c:	0161519b          	srliw	x3,x2,0x16
    80000220:	0a510063          	beq	x2,x5,800002c0 <_binary_lab3_test_bin_start+0x2c0>
    80000224:	09c0016f          	jal	x2,800002c0 <_binary_lab3_test_bin_start+0x2c0>
    80000228:	002100b3          	add	x1,x2,x2
    8000022c:	3bb371b7          	lui	x3,0x3bb37
    80000230:	001191bb          	sllw	x3,x3,x1
    80000234:	a2b07193          	andi	x3,x0,-1493
    80000238:	580d01b7          	lui	x3,0x580d0
    8000023c:	00715133          	srl	x2,x2,x7
    80000240:	40008137          	lui	x2,0x40008
    80000244:	00210133          	add	x2,x2,x2
    80000248:	f8313023          	sd	x3,-128(x2) # 40007f80 <_binary_lab3_test_bin_size+0x3ffdf44c>
    8000024c:	0001d33b          	srlw	x6,x3,x0
    80000250:	0191109b          	slliw	x1,x2,0x19
    80000254:	40115333          	sra	x6,x2,x1
    80000258:	b07d51b7          	lui	x3,0xb07d5
    8000025c:	40e0d09b          	sraiw	x1,x1,0xe
    80000260:	0010debb          	srlw	x29,x1,x1
    80000264:	0010919b          	slliw	x3,x1,0x1
    80000268:	00123b33          	sltu	x22,x4,x1
    8000026c:	a2f676b7          	lui	x13,0xa2f67
    80000270:	e442019b          	addiw	x3,x4,-444 # ffffffffb53a2f9c <_binary_lab3_test_bin_end+0xffffffff3537a468>
    80000274:	d4814413          	xori	x8,x2,-696
    80000278:	4041541b          	sraiw	x8,x2,0x4
    8000027c:	4190d29b          	sraiw	x5,x1,0x19
    80000280:	02115013          	srli	x0,x2,0x21
    80000284:	fe01f093          	andi	x1,x3,-32
    80000288:	0010f133          	and	x2,x1,x1
    8000028c:	40008337          	lui	x6,0x40008
    80000290:	00630333          	add	x6,x6,x6
    80000294:	f8033083          	ld	x1,-128(x6) # 40007f80 <_binary_lab3_test_bin_size+0x3ffdf44c>
    80000298:	400083b7          	lui	x7,0x40008
    8000029c:	007383b3          	add	x7,x7,x7
    800002a0:	f813a423          	sw	x1,-120(x7) # 40007f88 <_binary_lab3_test_bin_size+0x3ffdf454>
    800002a4:	002280b3          	add	x1,x5,x2
    800002a8:	0081111b          	slliw	x2,x2,0x8
    800002ac:	0081d01b          	srliw	x0,x3,0x8
    800002b0:	40115133          	sra	x2,x2,x1
    800002b4:	d9de8197          	auipc	x3,0xd9de8
    800002b8:	00310263          	beq	x2,x3,800002bc <_binary_lab3_test_bin_start+0x2bc>
    800002bc:	04d0026f          	jal	x4,80000b08 <_binary_lab3_test_bin_start+0xb08>
    800002c0:	400080b7          	lui	x1,0x40008
    800002c4:	001080b3          	add	x1,x1,x1
    800002c8:	f84083a3          	sb	x4,-121(x1) # 40007f87 <_binary_lab3_test_bin_size+0x3ffdf453>
    800002cc:	401180bb          	subw	x1,x3,x1
    800002d0:	4012509b          	sraiw	x1,x4,0x1
    800002d4:	0393d013          	srli	x0,x7,0x39
    800002d8:	403101b3          	sub	x3,x2,x3
    800002dc:	004310b3          	sll	x1,x6,x4
    800002e0:	50f14113          	xori	x2,x2,1295
    800002e4:	003160b3          	or	x1,x2,x3
    800002e8:	01094113          	xori	x2,x18,16
    800002ec:	0083909b          	slliw	x1,x7,0x8
    800002f0:	40008137          	lui	x2,0x40008
    800002f4:	00210133          	add	x2,x2,x2
    800002f8:	f84100a3          	sb	x4,-127(x2) # 40007f81 <_binary_lab3_test_bin_size+0x3ffdf44d>
    800002fc:	01c15093          	srli	x1,x2,0x1c
    80000300:	27d2a393          	slti	x7,x5,637
    80000304:	6ba30217          	auipc	x4,0x6ba30
    80000308:	002150bb          	srlw	x1,x2,x2
    8000030c:	75e30f9b          	addiw	x31,x6,1886
    80000310:	1ea1b293          	sltiu	x5,x3,490
    80000314:	c563d097          	auipc	x1,0xc563d
    80000318:	40420133          	sub	x2,x4,x4
    8000031c:	0011d0bb          	srlw	x1,x3,x1
    80000320:	001091bb          	sllw	x3,x1,x1
    80000324:	e743011b          	addiw	x2,x6,-396
    80000328:	0073519b          	srliw	x3,x6,0x7
    8000032c:	0010913b          	sllw	x2,x1,x1
    80000330:	be110193          	addi	x3,x2,-1055
    80000334:	40525e9b          	sraiw	x29,x4,0x5
    80000338:	00000097          	auipc	x1,0x0
    8000033c:	ef008167          	jalr	x2,-272(x1) # 80000228 <_binary_lab3_test_bin_start+0x228>
    80000340:	d4117093          	andi	x1,x2,-703
    80000344:	40008337          	lui	x6,0x40008
    80000348:	00630333          	add	x6,x6,x6
    8000034c:	f8a31283          	lh	x5,-118(x6) # 40007f8a <_binary_lab3_test_bin_size+0x3ffdf456>
    80000350:	0023d133          	srl	x2,x7,x2
    80000354:	f4b56117          	auipc	x2,0xf4b56
    80000358:	0011523b          	srlw	x4,x2,x1
    8000035c:	f101849b          	addiw	x9,x3,-240 # 59de81c4 <_binary_lab3_test_bin_size+0x59dbf690>
    80000360:	4011d13b          	sraw	x2,x3,x1
    80000364:	40b25333          	sra	x6,x4,x11
    80000368:	bf013513          	sltiu	x10,x2,-1040
    8000036c:	90e1031b          	addiw	x6,x2,-1778 # 74b55c62 <_binary_lab3_test_bin_size+0x74b2d12e>
    80000370:	7b91c393          	xori	x7,x3,1977
    80000374:	8bc3b297          	auipc	x5,0x8bc3b
    80000378:	40008137          	lui	x2,0x40008
    8000037c:	00210133          	add	x2,x2,x2
    80000380:	f8e10183          	lb	x3,-114(x2) # 40007f8e <_binary_lab3_test_bin_size+0x3ffdf45a>
    80000384:	0022b133          	sltu	x2,x5,x2
    80000388:	58138137          	lui	x2,0x58138
    8000038c:	0061113b          	sllw	x2,x2,x6
    80000390:	8142f113          	andi	x2,x5,-2028
    80000394:	000080b3          	add	x1,x1,x0
    80000398:	cb61c113          	xori	x2,x3,-842
    8000039c:	0010b133          	sltu	x2,x1,x1
    800003a0:	00379133          	sll	x2,x15,x3
    800003a4:	f061001b          	addiw	x0,x2,-250 # 58137f06 <_binary_lab3_test_bin_size+0x5810f3d2>
    800003a8:	003e07b3          	add	x15,x28,x3
    800003ac:	009131b3          	sltu	x3,x2,x9
    800003b0:	40d1511b          	sraiw	x2,x2,0xd
    800003b4:	0051f333          	and	x6,x3,x5
    800003b8:	00a1119b          	slliw	x3,x2,0xa
    800003bc:	400081b7          	lui	x3,0x40008
    800003c0:	003181b3          	add	x3,x3,x3
    800003c4:	f8d18103          	lb	x2,-115(x3) # 40007f8d <_binary_lab3_test_bin_size+0x3ffdf459>
    800003c8:	dc218ae3          	beq	x3,x2,8000019c <_binary_lab3_test_bin_start+0x19c>
    800003cc:	dd1ff16f          	jal	x2,8000019c <_binary_lab3_test_bin_start+0x19c>
    800003d0:	40715233          	sra	x4,x2,x7
    800003d4:	02c79013          	slli	x0,x15,0x2c
    800003d8:	0031f833          	and	x16,x3,x3
    800003dc:	8839d597          	auipc	x11,0x8839d
    800003e0:	4091813b          	subw	x2,x3,x9
    800003e4:	b230e093          	ori	x1,x1,-1245
    800003e8:	03619093          	slli	x1,x3,0x36
    800003ec:	01715193          	srli	x3,x2,0x17
    800003f0:	400081b7          	lui	x3,0x40008
    800003f4:	003181b3          	add	x3,x3,x3
    800003f8:	f811b023          	sd	x1,-128(x3) # 40007f80 <_binary_lab3_test_bin_size+0x3ffdf44c>
    800003fc:	403181b3          	sub	x3,x3,x3
    80000400:	00e09193          	slli	x3,x1,0xe
    80000404:	003d11b3          	sll	x3,x26,x3
    80000408:	8590e113          	ori	x2,x1,-1959
    8000040c:	4031d13b          	sraw	x2,x3,x3
    80000410:	0150911b          	slliw	x2,x1,0x15
    80000414:	9ade6497          	auipc	x9,0x9ade6
    80000418:	aad9e0b7          	lui	x1,0xaad9e
    8000041c:	03419093          	slli	x1,x3,0x34
    80000420:	aed28393          	addi	x7,x5,-1299 # bc3ae61 <_binary_lab3_test_bin_size+0xbc1232d>
    80000424:	402180bb          	subw	x1,x3,x2
    80000428:	0031913b          	sllw	x2,x3,x3
    8000042c:	400082b7          	lui	x5,0x40008
    80000430:	005282b3          	add	x5,x5,x5
    80000434:	f8c2e183          	lwu	x3,-116(x5) # 40007f8c <_binary_lab3_test_bin_size+0x3ffdf458>
    80000438:	003180b3          	add	x1,x3,x3
    8000043c:	b8236213          	ori	x4,x6,-1150
    80000440:	40e3d233          	sra	x4,x7,x14
    80000444:	00e1909b          	slliw	x1,x3,0xe
    80000448:	77522017          	auipc	x0,0x77522
    8000044c:	a8dc3297          	auipc	x5,0xa8dc3
    80000450:	00000217          	auipc	x4,0x0
    80000454:	090201e7          	jalr	x3,144(x4) # 90 <_binary_lab3_test_bin_size-0x28aa4>
    80000458:	01913133          	sltu	x2,x2,x25
    8000045c:	40008137          	lui	x2,0x40008
    80000460:	00210133          	add	x2,x2,x2
    80000464:	f8314883          	lbu	x17,-125(x2) # 40007f83 <_binary_lab3_test_bin_size+0x3ffdf44f>
    80000468:	400080b7          	lui	x1,0x40008
    8000046c:	001080b3          	add	x1,x1,x1
    80000470:	f8c0b423          	sd	x12,-120(x1) # 40007f88 <_binary_lab3_test_bin_size+0x3ffdf454>
    80000474:	6e23a417          	auipc	x8,0x6e23a
    80000478:	4011513b          	sraw	x2,x2,x1
    8000047c:	0020f1b3          	and	x3,x1,x2
    80000480:	400080b7          	lui	x1,0x40008
    80000484:	001080b3          	add	x1,x1,x1
    80000488:	f830b423          	sd	x3,-120(x1) # 40007f88 <_binary_lab3_test_bin_size+0x3ffdf454>
    8000048c:	00d34133          	xor	x2,x6,x13
    80000490:	50410193          	addi	x3,x2,1284
    80000494:	0071923b          	sllw	x4,x3,x7
    80000498:	40008337          	lui	x6,0x40008
    8000049c:	00630333          	add	x6,x6,x6
    800004a0:	f8833103          	ld	x2,-120(x6) # 40007f88 <_binary_lab3_test_bin_size+0x3ffdf454>
    800004a4:	12408293          	addi	x5,x1,292
    800004a8:	018081bb          	addw	x3,x1,x24
    800004ac:	310720b7          	lui	x1,0x31072
    800004b0:	a323e313          	ori	x6,x7,-1486
    800004b4:	346e3397          	auipc	x7,0x346e3
    800004b8:	7c70c093          	xori	x1,x1,1991
    800004bc:	52026437          	lui	x8,0x52026
    800004c0:	00118133          	add	x2,x3,x1
    800004c4:	00b01e33          	sll	x28,x0,x11
    800004c8:	00d2d2b3          	srl	x5,x5,x13
    800004cc:	00114133          	xor	x2,x2,x1
    800004d0:	7eb14093          	xori	x1,x2,2027
    800004d4:	00711093          	slli	x1,x2,0x7
    800004d8:	e632d4e3          	bge	x5,x3,80000340 <_binary_lab3_test_bin_start+0x340>
    800004dc:	e632c2e3          	blt	x5,x3,80000340 <_binary_lab3_test_bin_start+0x340>
    800004e0:	22b72137          	lui	x2,0x22b72
    800004e4:	f793011b          	addiw	x2,x6,-135
    800004e8:	662b0297          	auipc	x5,0x662b0
    800004ec:	6f718a1b          	addiw	x20,x3,1783
    800004f0:	f5a9c117          	auipc	x2,0xf5a9c
    800004f4:	400081b7          	lui	x3,0x40008
    800004f8:	003181b3          	add	x3,x3,x3
    800004fc:	f851a623          	sw	x5,-116(x3) # 40007f8c <_binary_lab3_test_bin_size+0x3ffdf458>
    80000500:	7752d197          	auipc	x3,0x7752d
    80000504:	400086b7          	lui	x13,0x40008
    80000508:	00d686b3          	add	x13,x13,x13
    8000050c:	f886b383          	ld	x7,-120(x13) # 40007f88 <_binary_lab3_test_bin_size+0x3ffdf454>
    80000510:	4031d0b3          	sra	x1,x3,x3
    80000514:	ed80a113          	slti	x2,x1,-296
    80000518:	40008137          	lui	x2,0x40008
    8000051c:	00210133          	add	x2,x2,x2
    80000520:	f8e11103          	lh	x2,-114(x2) # 40007f8e <_binary_lab3_test_bin_size+0x3ffdf45a>
    80000524:	5ff42297          	auipc	x5,0x5ff42
    80000528:	00d11133          	sll	x2,x2,x13
    8000052c:	1d6460b7          	lui	x1,0x1d646
    80000530:	1f04c117          	auipc	x2,0x1f04c
    80000534:	9481c117          	auipc	x2,0x9481c
    80000538:	0151d3b3          	srl	x7,x3,x21
    8000053c:	2581b093          	sltiu	x1,x3,600
    80000540:	37708113          	addi	x2,x1,887 # 1d646377 <_binary_lab3_test_bin_size+0x1d61d843>
    80000544:	0021b133          	sltu	x2,x3,x2
    80000548:	9a734217          	auipc	x4,0x9a734
    8000054c:	58f0e193          	ori	x3,x1,1423
    80000550:	d5107113          	andi	x2,x0,-687
    80000554:	4ea0a113          	slti	x2,x1,1258
    80000558:	b2217ce3          	bgeu	x2,x2,80000090 <_binary_lab3_test_bin_start+0x90>
    8000055c:	b2216ae3          	bltu	x2,x2,80000090 <_binary_lab3_test_bin_start+0x90>
    80000560:	40008137          	lui	x2,0x40008
    80000564:	00210133          	add	x2,x2,x2
    80000568:	f8411523          	sh	x4,-118(x2) # 40007f8a <_binary_lab3_test_bin_size+0x3ffdf456>
    8000056c:	00e1501b          	srliw	x0,x2,0xe
    80000570:	967ee497          	auipc	x9,0x967ee
    80000574:	44368193          	addi	x3,x13,1091
    80000578:	40115133          	sra	x2,x2,x1
    8000057c:	1b80811b          	addiw	x2,x1,440
    80000580:	40318fb3          	sub	x31,x3,x3
    80000584:	73116293          	ori	x5,x2,1841
    80000588:	40008137          	lui	x2,0x40008
    8000058c:	00210133          	add	x2,x2,x2
    80000590:	f8a15103          	lhu	x2,-118(x2) # 40007f8a <_binary_lab3_test_bin_size+0x3ffdf456>
    80000594:	3afcb137          	lui	x2,0x3afcb
    80000598:	dea07093          	andi	x1,x0,-534
    8000059c:	0182d23b          	srlw	x4,x5,x24
    800005a0:	82e0f213          	andi	x4,x1,-2002
    800005a4:	4aa1e093          	ori	x1,x3,1194
    800005a8:	955ae017          	auipc	x0,0x955ae
    800005ac:	73da6517          	auipc	x10,0x73da6
    800005b0:	0013113b          	sllw	x2,x6,x1
    800005b4:	8b6d3117          	auipc	x2,0x8b6d3
    800005b8:	03605193          	srli	x3,x0,0x36
    800005bc:	9bdcb117          	auipc	x2,0x9bdcb
    800005c0:	406051bb          	sraw	x3,x0,x6
    800005c4:	4020d23b          	sraw	x4,x1,x2
    800005c8:	aad12113          	slti	x2,x2,-1363
    800005cc:	003191b3          	sll	x3,x3,x3
    800005d0:	638b80b7          	lui	x1,0x638b8
    800005d4:	7e71c193          	xori	x3,x3,2023
    800005d8:	cb13e097          	auipc	x1,0xcb13e
    800005dc:	a012a093          	slti	x1,x5,-1535
    800005e0:	b1623093          	sltiu	x1,x4,-1258
    800005e4:	00000117          	auipc	x2,0x0
    800005e8:	1d0101e7          	jalr	x3,464(x2) # 800007b4 <_binary_lab3_test_bin_start+0x7b4>
    800005ec:	0330d213          	srli	x4,x1,0x33
    800005f0:	4030d23b          	sraw	x4,x1,x3
    800005f4:	0030b033          	sltu	x0,x1,x3
    800005f8:	0070d43b          	srlw	x8,x1,x7
    800005fc:	40008137          	lui	x2,0x40008
    80000600:	00210133          	add	x2,x2,x2
    80000604:	f8813083          	ld	x1,-120(x2) # 40007f88 <_binary_lab3_test_bin_size+0x3ffdf454>
    80000608:	004a01b3          	add	x3,x20,x4
    8000060c:	a58661b7          	lui	x3,0xa5866
    80000610:	40008137          	lui	x2,0x40008
    80000614:	00210133          	add	x2,x2,x2
    80000618:	f8c16083          	lwu	x1,-116(x2) # 40007f8c <_binary_lab3_test_bin_size+0x3ffdf458>
    8000061c:	1ed3011b          	addiw	x2,x6,493
    80000620:	02411193          	slli	x3,x2,0x24
    80000624:	01515113          	srli	x2,x2,0x15
    80000628:	2dc952b7          	lui	x5,0x2dc95
    8000062c:	ea04a197          	auipc	x3,0xea04a
    80000630:	40008137          	lui	x2,0x40008
    80000634:	00210133          	add	x2,x2,x2
    80000638:	f83102a3          	sb	x3,-123(x2) # 40007f85 <_binary_lab3_test_bin_size+0x3ffdf451>
    8000063c:	0de17213          	andi	x4,x2,222
    80000640:	001081bb          	addw	x3,x1,x1
    80000644:	48e18113          	addi	x2,x3,1166 # 6a04aaba <_binary_lab3_test_bin_size+0x6a021f86>
    80000648:	0030de3b          	srlw	x28,x1,x3
    8000064c:	4031d73b          	sraw	x14,x3,x3
    80000650:	00111abb          	sllw	x21,x2,x1
    80000654:	00f1d093          	srli	x1,x3,0xf
    80000658:	403181bb          	subw	x3,x3,x3
    8000065c:	006100bb          	addw	x1,x2,x6
    80000660:	54108393          	addi	x7,x1,1345 # 4b13eb19 <_binary_lab3_test_bin_size+0x4b115fe5>
    80000664:	52927393          	andi	x7,x4,1321
    80000668:	956270b7          	lui	x1,0x95627
    8000066c:	02d0d213          	srli	x4,x1,0x2d
    80000670:	1ffc6137          	lui	x2,0x1ffc6
    80000674:	00a25093          	srli	x1,x4,0xa
    80000678:	26d08263          	beq	x1,x13,800008dc <_binary_lab3_test_bin_start+0x8dc>
    8000067c:	260001ef          	jal	x3,800008dc <_binary_lab3_test_bin_start+0x8dc>
    80000680:	9c30809b          	addiw	x1,x1,-1597 # ffffffff956269c3 <_binary_lab3_test_bin_end+0xffffffff155fde8f>
    80000684:	0051019b          	addiw	x3,x2,5 # 1ffc6005 <_binary_lab3_test_bin_size+0x1ff9d4d1>
    80000688:	00112133          	slt	x2,x2,x1
    8000068c:	b460831b          	addiw	x6,x1,-1210
    80000690:	f2fe6197          	auipc	x3,0xf2fe6
    80000694:	40d15093          	srai	x1,x2,0xd
    80000698:	4811e093          	ori	x1,x3,1153
    8000069c:	401781bb          	subw	x3,x15,x1
    800006a0:	40008137          	lui	x2,0x40008
    800006a4:	00210133          	add	x2,x2,x2
    800006a8:	f8612623          	sw	x6,-116(x2) # 40007f8c <_binary_lab3_test_bin_size+0x3ffdf458>
    800006ac:	0056d1b3          	srl	x3,x13,x5
    800006b0:	40008137          	lui	x2,0x40008
    800006b4:	00210133          	add	x2,x2,x2
    800006b8:	f8713023          	sd	x7,-128(x2) # 40007f80 <_binary_lab3_test_bin_size+0x3ffdf44c>
    800006bc:	80f1a193          	slti	x3,x3,-2033
    800006c0:	0093913b          	sllw	x2,x7,x9
    800006c4:	001140b3          	xor	x1,x2,x1
    800006c8:	005e913b          	sllw	x2,x29,x5
    800006cc:	40008337          	lui	x6,0x40008
    800006d0:	00630333          	add	x6,x6,x6
    800006d4:	f8036203          	lwu	x4,-128(x6) # 40007f80 <_binary_lab3_test_bin_size+0x3ffdf44c>
    800006d8:	4040a993          	slti	x19,x1,1028
    800006dc:	33d43037          	lui	x0,0x33d43
    800006e0:	01801113          	slli	x2,x0,0x18
    800006e4:	0bcdb1b7          	lui	x3,0xbcdb
    800006e8:	08421517          	auipc	x10,0x8421
    800006ec:	2bf08113          	addi	x2,x1,703
    800006f0:	2201009b          	addiw	x1,x2,544
    800006f4:	40525133          	sra	x2,x4,x5
    800006f8:	a133f393          	andi	x7,x7,-1517
    800006fc:	400080b7          	lui	x1,0x40008
    80000700:	001080b3          	add	x1,x1,x1
    80000704:	f820b023          	sd	x2,-128(x1) # 40007f80 <_binary_lab3_test_bin_size+0x3ffdf44c>
    80000708:	401101b3          	sub	x3,x2,x1
    8000070c:	00010093          	mv	x1,x2
    80000710:	cc2080e3          	beq	x1,x2,800003d0 <_binary_lab3_test_bin_start+0x3d0>
    80000714:	01a59193          	slli	x3,x11,0x1a
    80000718:	0020803b          	addw	x0,x1,x2
    8000071c:	c0d59137          	lui	x2,0xc0d59
    80000720:	6f2b3437          	lui	x8,0x6f2b3
    80000724:	faa1009b          	addiw	x1,x2,-86 # ffffffffc0d58faa <_binary_lab3_test_bin_end+0xffffffff40d30476>
    80000728:	00b0e2b3          	or	x5,x1,x11
    8000072c:	002090bb          	sllw	x1,x1,x2
    80000730:	004131b3          	sltu	x3,x2,x4
    80000734:	003110bb          	sllw	x1,x2,x3
    80000738:	400083b7          	lui	x7,0x40008
    8000073c:	007383b3          	add	x7,x7,x7
    80000740:	f803a103          	lw	x2,-128(x7) # 40007f80 <_binary_lab3_test_bin_size+0x3ffdf44c>
    80000744:	400080b7          	lui	x1,0x40008
    80000748:	001080b3          	add	x1,x1,x1
    8000074c:	f8109723          	sh	x1,-114(x1) # 40007f8e <_binary_lab3_test_bin_size+0x3ffdf45a>
    80000750:	407280b3          	sub	x1,x5,x7
    80000754:	40318133          	sub	x2,x3,x3
    80000758:	511d0117          	auipc	x2,0x511d0
    8000075c:	400081b7          	lui	x3,0x40008
    80000760:	003181b3          	add	x3,x3,x3
    80000764:	f821b023          	sd	x2,-128(x3) # 40007f80 <_binary_lab3_test_bin_size+0x3ffdf44c>
    80000768:	001231b3          	sltu	x3,x4,x1
    8000076c:	0010d43b          	srlw	x8,x1,x1
    80000770:	833a1137          	lui	x2,0x833a1
    80000774:	0c1051b7          	lui	x3,0xc105
    80000778:	402dd1bb          	sraw	x3,x27,x2
    8000077c:	41b1d293          	srai	x5,x3,0x1b
    80000780:	402151b3          	sra	x3,x2,x2
    80000784:	402381b3          	sub	x3,x7,x2
    80000788:	000140b3          	xor	x1,x2,x0
    8000078c:	7521c193          	xori	x3,x3,1874
    80000790:	001071b3          	and	x3,x0,x1
    80000794:	e7517213          	andi	x4,x2,-395
    80000798:	758140b7          	lui	x1,0x75814
    8000079c:	a4710093          	addi	x1,x2,-1465 # ffffffff833a0a47 <_binary_lab3_test_bin_end+0xffffffff03377f13>
    800007a0:	f900e093          	ori	x1,x1,-112
    800007a4:	03309113          	slli	x2,x1,0x33
    800007a8:	e56960b7          	lui	x1,0xe5696
    800007ac:	00710263          	beq	x2,x7,800007b0 <_binary_lab3_test_bin_start+0x7b0>
    800007b0:	0c5000ef          	jal	80001074 <_binary_lab3_test_bin_start+0x1074>
    800007b4:	002a80bb          	addw	x1,x21,x2
    800007b8:	400084b7          	lui	x9,0x40008
    800007bc:	009484b3          	add	x9,x9,x9
    800007c0:	f8849303          	lh	x6,-120(x9) # 40007f88 <_binary_lab3_test_bin_size+0x3ffdf454>
    800007c4:	4020d13b          	sraw	x2,x1,x2
    800007c8:	7bc13313          	sltiu	x6,x2,1980
    800007cc:	0018e0b3          	or	x1,x17,x1
    800007d0:	001090b3          	sll	x1,x1,x1
    800007d4:	40d1509b          	sraiw	x1,x2,0xd
    800007d8:	f0a1a093          	slti	x1,x3,-246
    800007dc:	7a71011b          	addiw	x2,x2,1959
    800007e0:	9ef5f2b7          	lui	x5,0x9ef5f
    800007e4:	40008337          	lui	x6,0x40008
    800007e8:	00630333          	add	x6,x6,x6
    800007ec:	f8d30383          	lb	x7,-115(x6) # 40007f8d <_binary_lab3_test_bin_size+0x3ffdf459>
    800007f0:	01509113          	slli	x2,x1,0x15
    800007f4:	0101931b          	slliw	x6,x3,0x10
    800007f8:	c4d1011b          	addiw	x2,x2,-947
    800007fc:	003150bb          	srlw	x1,x2,x3
    80000800:	0030101b          	slliw	x0,x0,0x3
    80000804:	35cf8117          	auipc	x2,0x35cf8
    80000808:	002e31b3          	sltu	x3,x28,x2
    8000080c:	0151111b          	slliw	x2,x2,0x15
    80000810:	00c1f1b3          	and	x3,x3,x12
    80000814:	002153b3          	srl	x7,x2,x2
    80000818:	0021b033          	sltu	x0,x3,x2
    8000081c:	001140b3          	xor	x1,x2,x1
    80000820:	400080b7          	lui	x1,0x40008
    80000824:	001080b3          	add	x1,x1,x1
    80000828:	f81086a3          	sb	x1,-115(x1) # 40007f8d <_binary_lab3_test_bin_size+0x3ffdf459>
    8000082c:	0190111b          	slliw	x2,x0,0x19
    80000830:	4420819b          	addiw	x3,x1,1090
    80000834:	0023813b          	addw	x2,x7,x2
    80000838:	a5608093          	addi	x1,x1,-1450
    8000083c:	004081b3          	add	x3,x1,x4
    80000840:	00218463          	beq	x3,x2,80000848 <_binary_lab3_test_bin_start+0x848>
    80000844:	004001ef          	jal	x3,80000848 <_binary_lab3_test_bin_start+0x848>
    80000848:	b6b1a313          	slti	x6,x3,-1173
    8000084c:	41a58093          	addi	x1,x11,1050 # 839d7f6 <_binary_lab3_test_bin_size+0x8374cc2>
    80000850:	4103819b          	addiw	x3,x7,1040
    80000854:	280d7137          	lui	x2,0x280d7
    80000858:	c99a2097          	auipc	x1,0xc99a2
    8000085c:	1e21b313          	sltiu	x6,x3,482
    80000860:	98023393          	sltiu	x7,x4,-1664
    80000864:	5e62c297          	auipc	x5,0x5e62c
    80000868:	400081b7          	lui	x3,0x40008
    8000086c:	003181b3          	add	x3,x3,x3
    80000870:	f821d383          	lhu	x7,-126(x3) # 40007f82 <_binary_lab3_test_bin_size+0x3ffdf44e>
    80000874:	58616113          	ori	x2,x2,1414
    80000878:	001290b3          	sll	x1,x5,x1
    8000087c:	6651061b          	addiw	x12,x2,1637 # 280d7665 <_binary_lab3_test_bin_size+0x280aeb31>
    80000880:	c7e10313          	addi	x6,x2,-898
    80000884:	0031f033          	and	x0,x3,x3
    80000888:	9769c1b7          	lui	x3,0x9769c
    8000088c:	c1b1009b          	addiw	x1,x2,-997
    80000890:	002184bb          	addw	x9,x3,x2
    80000894:	400080b7          	lui	x1,0x40008
    80000898:	001080b3          	add	x1,x1,x1
    8000089c:	f880e103          	lwu	x2,-120(x1) # 40007f88 <_binary_lab3_test_bin_size+0x3ffdf454>
    800008a0:	f290e393          	ori	x7,x1,-215
    800008a4:	7cc2b113          	sltiu	x2,x5,1996
    800008a8:	4011513b          	sraw	x2,x2,x1
    800008ac:	01215193          	srli	x3,x2,0x12
    800008b0:	c531b113          	sltiu	x2,x3,-941
    800008b4:	f12b8337          	lui	x6,0xf12b8
    800008b8:	e93a10b7          	lui	x1,0xe93a1
    800008bc:	0040913b          	sllw	x2,x1,x4
    800008c0:	4052d013          	srai	x0,x5,0x5
    800008c4:	a5710193          	addi	x3,x2,-1449
    800008c8:	000161b3          	or	x3,x2,x0
    800008cc:	000111bb          	sllw	x3,x2,x0
    800008d0:	0002d1bb          	srlw	x3,x5,x0
    800008d4:	00008113          	mv	x2,x1
    800008d8:	b81100e3          	beq	x2,x1,80000458 <_binary_lab3_test_bin_start+0x458>
    800008dc:	400080b7          	lui	x1,0x40008
    800008e0:	001080b3          	add	x1,x1,x1
    800008e4:	f830a223          	sw	x3,-124(x1) # 40007f84 <_binary_lab3_test_bin_size+0x3ffdf450>
    800008e8:	54a0b193          	sltiu	x3,x1,1354
    800008ec:	4031813b          	subw	x2,x3,x3
    800008f0:	bb30e113          	ori	x2,x1,-1101
    800008f4:	400081b7          	lui	x3,0x40008
    800008f8:	003181b3          	add	x3,x3,x3
    800008fc:	f8319423          	sh	x3,-120(x3) # 40007f88 <_binary_lab3_test_bin_size+0x3ffdf454>
    80000900:	e067d197          	auipc	x3,0xe067d
    80000904:	4021d0bb          	sraw	x1,x3,x2
    80000908:	400081b7          	lui	x3,0x40008
    8000090c:	003181b3          	add	x3,x3,x3
    80000910:	f801b103          	ld	x2,-128(x3) # 40007f80 <_binary_lab3_test_bin_size+0x3ffdf44c>
    80000914:	400080b7          	lui	x1,0x40008
    80000918:	001080b3          	add	x1,x1,x1
    8000091c:	f880b103          	ld	x2,-120(x1) # 40007f88 <_binary_lab3_test_bin_size+0x3ffdf454>
    80000920:	26514193          	xori	x3,x2,613
    80000924:	75520137          	lui	x2,0x75520
    80000928:	40705133          	sra	x2,x0,x7
    8000092c:	1adfb197          	auipc	x3,0x1adfb
    80000930:	0070931b          	slliw	x6,x1,0x7
    80000934:	4011d233          	sra	x4,x3,x1
    80000938:	d21b1fb7          	lui	x31,0xd21b1
    8000093c:	9230c137          	lui	x2,0x9230c
    80000940:	401781b3          	sub	x3,x15,x1
    80000944:	4001d013          	srai	x0,x3,0x0
    80000948:	00b0911b          	slliw	x2,x1,0xb
    8000094c:	0010b3b3          	sltu	x7,x1,x1
    80000950:	0082509b          	srliw	x1,x4,0x8
    80000954:	00b3d193          	srli	x3,x7,0xb
    80000958:	401101b3          	sub	x3,x2,x1
    8000095c:	c021f2e3          	bgeu	x3,x2,80000560 <_binary_lab3_test_bin_start+0x560>
    80000960:	c021e0e3          	bltu	x3,x2,80000560 <_binary_lab3_test_bin_start+0x560>
    80000964:	f32c5497          	auipc	x9,0xf32c5
    80000968:	37c2011b          	addiw	x2,x4,892 # 1a7348c4 <_binary_lab3_test_bin_size+0x1a70bd90>
    8000096c:	a9c07113          	andi	x2,x0,-1380
    80000970:	501ac137          	lui	x2,0x501ac
    80000974:	002112bb          	sllw	x5,x2,x2
    80000978:	40008137          	lui	x2,0x40008
    8000097c:	00210133          	add	x2,x2,x2
    80000980:	f8816203          	lwu	x4,-120(x2) # 40007f88 <_binary_lab3_test_bin_size+0x3ffdf454>
    80000984:	125c2137          	lui	x2,0x125c2
    80000988:	001051bb          	srlw	x3,x0,x1
    8000098c:	400082b7          	lui	x5,0x40008
    80000990:	005282b3          	add	x5,x5,x5
    80000994:	f8728203          	lb	x4,-121(x5) # 40007f87 <_binary_lab3_test_bin_size+0x3ffdf453>
    80000998:	5bd851b7          	lui	x3,0x5bd85
    8000099c:	b55640b7          	lui	x1,0xb5564
    800009a0:	400081b7          	lui	x3,0x40008
    800009a4:	003181b3          	add	x3,x3,x3
    800009a8:	f841b023          	sd	x4,-128(x3) # 40007f80 <_binary_lab3_test_bin_size+0x3ffdf44c>
    800009ac:	edf9d0b7          	lui	x1,0xedf9d
    800009b0:	3d730393          	addi	x7,x6,983 # fffffffff12b83d7 <_binary_lab3_test_bin_end+0xffffffff7128f8a3>
    800009b4:	001153b3          	srl	x7,x2,x1
    800009b8:	2241039b          	addiw	x7,x2,548 # 125c2224 <_binary_lab3_test_bin_size+0x125996f0>
    800009bc:	d2f00013          	li	x0,-721
    800009c0:	2df02013          	slti	x0,x0,735
    800009c4:	40b0d21b          	sraiw	x4,x1,0xb
    800009c8:	402180b3          	sub	x1,x3,x2
    800009cc:	001190bb          	sllw	x1,x3,x1
    800009d0:	0020d0bb          	srlw	x1,x1,x2
    800009d4:	00018093          	mv	x1,x3
    800009d8:	00308263          	beq	x1,x3,800009dc <_binary_lab3_test_bin_start+0x9dc>
    800009dc:	400080b7          	lui	x1,0x40008
    800009e0:	001080b3          	add	x1,x1,x1
    800009e4:	f8708003          	lb	x0,-121(x1) # 40007f87 <_binary_lab3_test_bin_size+0x3ffdf453>
    800009e8:	0b4793b7          	lui	x7,0xb479
    800009ec:	fcf1a117          	auipc	x2,0xfcf1a
    800009f0:	03b39113          	slli	x2,x7,0x3b
    800009f4:	0110941b          	slliw	x8,x1,0x11
    800009f8:	0031919b          	slliw	x3,x3,0x3
    800009fc:	0030a1b3          	slt	x3,x1,x3
    80000a00:	00468133          	add	x2,x13,x4
    80000a04:	4011509b          	sraiw	x1,x2,0x1
    80000a08:	0011f1b3          	and	x3,x3,x1
    80000a0c:	32ded137          	lui	x2,0x32ded
    80000a10:	40008237          	lui	x4,0x40008
    80000a14:	00420233          	add	x4,x4,x4
    80000a18:	f8f24183          	lbu	x3,-113(x4) # 40007f8f <_binary_lab3_test_bin_size+0x3ffdf45b>
    80000a1c:	40008137          	lui	x2,0x40008
    80000a20:	00210133          	add	x2,x2,x2
    80000a24:	f8813083          	ld	x1,-120(x2) # 40007f88 <_binary_lab3_test_bin_size+0x3ffdf454>
    80000a28:	001196bb          	sllw	x13,x3,x1
    80000a2c:	0020b1b3          	sltu	x3,x1,x2
    80000a30:	003040b3          	xor	x1,x0,x3
    80000a34:	8bbde037          	lui	x0,0x8bbde
    80000a38:	85a4e137          	lui	x2,0x85a4e
    80000a3c:	55d370b7          	lui	x1,0x55d37
    80000a40:	03025113          	srli	x2,x4,0x30
    80000a44:	ad80f093          	andi	x1,x1,-1320
    80000a48:	00309b33          	sll	x22,x1,x3
    80000a4c:	40008137          	lui	x2,0x40008
    80000a50:	00210133          	add	x2,x2,x2
    80000a54:	f8113023          	sd	x1,-128(x2) # 40007f80 <_binary_lab3_test_bin_size+0x3ffdf44c>
    80000a58:	5e314313          	xori	x6,x2,1507
    80000a5c:	40008137          	lui	x2,0x40008
    80000a60:	00210133          	add	x2,x2,x2
    80000a64:	f8813783          	ld	x15,-120(x2) # 40007f88 <_binary_lab3_test_bin_size+0x3ffdf454>
    80000a68:	7d71c237          	lui	x4,0x7d71c
    80000a6c:	403150bb          	sraw	x1,x2,x3
    80000a70:	00230263          	beq	x6,x2,80000a74 <_binary_lab3_test_bin_start+0xa74>
    80000a74:	ea8ff16f          	jal	x2,8000011c <_binary_lab3_test_bin_start+0x11c>
    80000a78:	00b0d49b          	srliw	x9,x1,0xb
    80000a7c:	4fded097          	auipc	x1,0x4fded
    80000a80:	00b1119b          	slliw	x3,x2,0xb
    80000a84:	4202d113          	srai	x2,x5,0x20
    80000a88:	011bb197          	auipc	x3,0x11bb
    80000a8c:	3074819b          	addiw	x3,x9,775 # 732c5c6b <_binary_lab3_test_bin_size+0x7329d137>
    80000a90:	400082b7          	lui	x5,0x40008
    80000a94:	005282b3          	add	x5,x5,x5
    80000a98:	f812b423          	sd	x1,-120(x5) # 40007f88 <_binary_lab3_test_bin_size+0x3ffdf454>
    80000a9c:	7557a193          	slti	x3,x15,1877
    80000aa0:	0030b0b3          	sltu	x1,x1,x3
    80000aa4:	8b73f137          	lui	x2,0x8b73f
    80000aa8:	00321d3b          	sllw	x26,x4,x3
    80000aac:	01e0d39b          	srliw	x7,x1,0x1e
    80000ab0:	400083b7          	lui	x7,0x40008
    80000ab4:	007383b3          	add	x7,x7,x7
    80000ab8:	f8938723          	sb	x9,-114(x7) # 40007f8e <_binary_lab3_test_bin_size+0x3ffdf45a>
    80000abc:	00e1509b          	srliw	x1,x2,0xe
    80000ac0:	002080bb          	addw	x1,x1,x2
    80000ac4:	7d5e9137          	lui	x2,0x7d5e9
    80000ac8:	400083b7          	lui	x7,0x40008
    80000acc:	007383b3          	add	x7,x7,x7
    80000ad0:	f8f3b423          	sd	x15,-120(x7) # 40007f88 <_binary_lab3_test_bin_size+0x3ffdf454>
    80000ad4:	5241a093          	slti	x1,x3,1316
    80000ad8:	93a21137          	lui	x2,0x93a21
    80000adc:	233b51b7          	lui	x3,0x233b5
    80000ae0:	0030d1bb          	srlw	x3,x1,x3
    80000ae4:	8ce440b7          	lui	x1,0x8ce44
    80000ae8:	ad60c393          	xori	x7,x1,-1322
    80000aec:	4033013b          	subw	x2,x6,x3
    80000af0:	400080b7          	lui	x1,0x40008
    80000af4:	001080b3          	add	x1,x1,x1
    80000af8:	f860b023          	sd	x6,-128(x1) # 40007f80 <_binary_lab3_test_bin_size+0x3ffdf44c>
    80000afc:	0040c0b3          	xor	x1,x1,x4
    80000b00:	b840f0e3          	bgeu	x1,x4,80000680 <_binary_lab3_test_bin_start+0x680>
    80000b04:	b640eee3          	bltu	x1,x4,80000680 <_binary_lab3_test_bin_start+0x680>
    80000b08:	84e920b7          	lui	x1,0x84e92
    80000b0c:	0051913b          	sllw	x2,x3,x5
    80000b10:	1840a093          	slti	x1,x1,388
    80000b14:	01e1519b          	srliw	x3,x2,0x1e
    80000b18:	402bd233          	sra	x4,x23,x2
    80000b1c:	4031813b          	subw	x2,x3,x3
    80000b20:	43125013          	srai	x0,x4,0x31
    80000b24:	65802193          	slti	x3,x0,1624
    80000b28:	002a8133          	add	x2,x21,x2
    80000b2c:	400080b7          	lui	x1,0x40008
    80000b30:	001080b3          	add	x1,x1,x1
    80000b34:	f8408383          	lb	x7,-124(x1) # 40007f84 <_binary_lab3_test_bin_size+0x3ffdf450>
    80000b38:	83178097          	auipc	x1,0x83178
    80000b3c:	403180b3          	sub	x1,x3,x3
    80000b40:	400080b7          	lui	x1,0x40008
    80000b44:	001080b3          	add	x1,x1,x1
    80000b48:	f880b003          	ld	x0,-120(x1) # 40007f88 <_binary_lab3_test_bin_size+0x3ffdf454>
    80000b4c:	3e972197          	auipc	x3,0x3e972
    80000b50:	2aa6009b          	addiw	x1,x12,682
    80000b54:	40008137          	lui	x2,0x40008
    80000b58:	00210133          	add	x2,x2,x2
    80000b5c:	f8f10083          	lb	x1,-113(x2) # 40007f8f <_binary_lab3_test_bin_size+0x3ffdf45b>
    80000b60:	400080b7          	lui	x1,0x40008
    80000b64:	001080b3          	add	x1,x1,x1
    80000b68:	f830a623          	sw	x3,-116(x1) # 40007f8c <_binary_lab3_test_bin_size+0x3ffdf458>
    80000b6c:	4021d11b          	sraiw	x2,x3,0x2
    80000b70:	002191bb          	sllw	x3,x3,x2
    80000b74:	40008337          	lui	x6,0x40008
    80000b78:	00630333          	add	x6,x6,x6
    80000b7c:	f8033423          	sd	x0,-120(x6) # 40007f88 <_binary_lab3_test_bin_size+0x3ffdf454>
    80000b80:	ee708ce3          	beq	x1,x7,80000a78 <_binary_lab3_test_bin_start+0xa78>
    80000b84:	ef5ff0ef          	jal	80000a78 <_binary_lab3_test_bin_start+0xa78>
    80000b88:	830ee7b7          	lui	x15,0x830ee
    80000b8c:	86112093          	slti	x1,x2,-1951
    80000b90:	4441b113          	sltiu	x2,x3,1092
    80000b94:	da897037          	lui	x0,0xda897
    80000b98:	9e2620b7          	lui	x1,0x9e262
    80000b9c:	00215133          	srl	x2,x2,x2
    80000ba0:	400081b7          	lui	x3,0x40008
    80000ba4:	003181b3          	add	x3,x3,x3
    80000ba8:	f881b103          	ld	x2,-120(x3) # 40007f88 <_binary_lab3_test_bin_size+0x3ffdf454>
    80000bac:	2bb1a193          	slti	x3,x3,699
    80000bb0:	0011d1bb          	srlw	x3,x3,x1
    80000bb4:	00612133          	slt	x2,x2,x6
    80000bb8:	03c3c193          	xori	x3,x7,60
    80000bbc:	cd930137          	lui	x2,0xcd930
    80000bc0:	46cdc093          	xori	x1,x27,1132
    80000bc4:	0aa9f337          	lui	x6,0xaa9f
    80000bc8:	400081b7          	lui	x3,0x40008
    80000bcc:	003181b3          	add	x3,x3,x3
    80000bd0:	f801e083          	lwu	x1,-128(x3) # 40007f80 <_binary_lab3_test_bin_size+0x3ffdf44c>
    80000bd4:	406180b3          	sub	x1,x3,x6
    80000bd8:	02e09393          	slli	x7,x1,0x2e
    80000bdc:	645a40b7          	lui	x1,0x645a4
    80000be0:	e1874097          	auipc	x1,0xe1874
    80000be4:	40a081bb          	subw	x3,x1,x10
    80000be8:	41f18033          	sub	x0,x3,x31
    80000bec:	400081b7          	lui	x3,0x40008
    80000bf0:	003181b3          	add	x3,x3,x3
    80000bf4:	f8119623          	sh	x1,-116(x3) # 40007f8c <_binary_lab3_test_bin_size+0x3ffdf458>
    80000bf8:	6ee1011b          	addiw	x2,x2,1774 # ffffffffcd9306ee <_binary_lab3_test_bin_end+0xffffffff4d907bba>
    80000bfc:	0af32097          	auipc	x1,0xaf32
    80000c00:	00710263          	beq	x2,x7,80000c04 <_binary_lab3_test_bin_start+0xc04>
    80000c04:	25c010ef          	jal	80001e60 <_binary_lab3_test_bin_start+0x1e60>
    80000c08:	c890b093          	sltiu	x1,x1,-887
    80000c0c:	4859d097          	auipc	x1,0x4859d
    80000c10:	29b3e193          	ori	x3,x7,667
    80000c14:	4040813b          	subw	x2,x1,x4
    80000c18:	4200d213          	srai	x4,x1,0x20
    80000c1c:	03e1d113          	srli	x2,x3,0x3e
    80000c20:	777f6137          	lui	x2,0x777f6
    80000c24:	af309117          	auipc	x2,0xaf309
    80000c28:	01c1511b          	srliw	x2,x2,0x1c
    80000c2c:	0010f0b3          	and	x1,x1,x1
    80000c30:	4031d0b3          	sra	x1,x3,x3
    80000c34:	b086f117          	auipc	x2,0xb086f
    80000c38:	67517037          	lui	x0,0x67517
    80000c3c:	400080b7          	lui	x1,0x40008
    80000c40:	001080b3          	add	x1,x1,x1
    80000c44:	f8108623          	sb	x1,-116(x1) # 40007f8c <_binary_lab3_test_bin_size+0x3ffdf458>
    80000c48:	0022c133          	xor	x2,x5,x2
    80000c4c:	79dae317          	auipc	x6,0x79dae
    80000c50:	686ac137          	lui	x2,0x686ac
    80000c54:	7791e193          	ori	x3,x3,1913
    80000c58:	3642809b          	addiw	x1,x5,868
    80000c5c:	01a31b9b          	slliw	x23,x6,0x1a
    80000c60:	4346d493          	srai	x9,x13,0x34
    80000c64:	3ec23093          	sltiu	x1,x4,1004
    80000c68:	26fd6017          	auipc	x0,0x26fd6
    80000c6c:	ab62031b          	addiw	x6,x4,-1354 # 7d71bab6 <_binary_lab3_test_bin_size+0x7d6f2f82>
    80000c70:	003310bb          	sllw	x1,x6,x3
    80000c74:	23668137          	lui	x2,0x23668
    80000c78:	01e1921b          	slliw	x4,x3,0x1e
    80000c7c:	001110bb          	sllw	x1,x2,x1
    80000c80:	6fd1009b          	addiw	x1,x2,1789 # 236686fd <_binary_lab3_test_bin_size+0x2363fbc9>
    80000c84:	891a9097          	auipc	x1,0x891a9
    80000c88:	001190bb          	sllw	x1,x3,x1
    80000c8c:	4030d1bb          	sraw	x3,x1,x3
    80000c90:	4011813b          	subw	x2,x3,x1
    80000c94:	6a33d263          	bge	x7,x3,80001338 <_binary_lab3_test_bin_start+0x1338>
    80000c98:	6a33c063          	blt	x7,x3,80001338 <_binary_lab3_test_bin_start+0x1338>
    80000c9c:	400087b7          	lui	x15,0x40008
    80000ca0:	00f787b3          	add	x15,x15,x15
    80000ca4:	f8378323          	sb	x3,-122(x15) # 40007f86 <_binary_lab3_test_bin_size+0x3ffdf452>
    80000ca8:	fad5b197          	auipc	x3,0xfad5b
    80000cac:	6512029b          	addiw	x5,x4,1617 # 651 <_binary_lab3_test_bin_size-0x284e3>
    80000cb0:	035430b7          	lui	x1,0x3543
    80000cb4:	6cb33193          	sltiu	x3,x6,1739
    80000cb8:	7473a093          	slti	x1,x7,1863
    80000cbc:	4135803b          	subw	x0,x11,x19
    80000cc0:	40008137          	lui	x2,0x40008
    80000cc4:	00210133          	add	x2,x2,x2
    80000cc8:	f8013103          	ld	x2,-128(x2) # 40007f80 <_binary_lab3_test_bin_size+0x3ffdf44c>
    80000ccc:	002001bb          	addw	x3,x0,x2
    80000cd0:	400084b7          	lui	x9,0x40008
    80000cd4:	009484b3          	add	x9,x9,x9
    80000cd8:	f884b103          	ld	x2,-120(x9) # 40007f88 <_binary_lab3_test_bin_size+0x3ffdf454>
    80000cdc:	41718b1b          	addiw	x22,x3,1047 # 7ad5c0bf <_binary_lab3_test_bin_size+0x7ad3358b>
    80000ce0:	4ce0821b          	addiw	x4,x1,1230 # 35434ce <_binary_lab3_test_bin_size+0x351a99a>
    80000ce4:	40008137          	lui	x2,0x40008
    80000ce8:	00210133          	add	x2,x2,x2
    80000cec:	f8213023          	sd	x2,-128(x2) # 40007f80 <_binary_lab3_test_bin_size+0x3ffdf44c>
    80000cf0:	ddd16293          	ori	x5,x2,-547
    80000cf4:	a499a317          	auipc	x6,0xa499a
    80000cf8:	0040f333          	and	x6,x1,x4
    80000cfc:	0011c033          	xor	x0,x3,x1
    80000d00:	6900c693          	xori	x13,x1,1680
    80000d04:	01d1169b          	slliw	x13,x2,0x1d
    80000d08:	1ed02113          	slti	x2,x0,493
    80000d0c:	003110bb          	sllw	x1,x2,x3
    80000d10:	5ef37293          	andi	x5,x6,1519
    80000d14:	00e19113          	slli	x2,x3,0xe
    80000d18:	001121b3          	slt	x3,x2,x1
    80000d1c:	22109663          	bne	x1,x1,80000f48 <_binary_lab3_test_bin_start+0xf48>
    80000d20:	22108463          	beq	x1,x1,80000f48 <_binary_lab3_test_bin_start+0xf48>
    80000d24:	d090829b          	addiw	x5,x1,-759
    80000d28:	40008137          	lui	x2,0x40008
    80000d2c:	00210133          	add	x2,x2,x2
    80000d30:	f8111023          	sh	x1,-128(x2) # 40007f80 <_binary_lab3_test_bin_size+0x3ffdf44c>
    80000d34:	33930693          	addi	x13,x6,825 # 2499b02d <_binary_lab3_test_bin_size+0x249724f9>
    80000d38:	c23790b7          	lui	x1,0xc2379
    80000d3c:	1f11011b          	addiw	x2,x2,497
    80000d40:	00210333          	add	x6,x2,x2
    80000d44:	401081b3          	sub	x3,x1,x1
    80000d48:	28e2b097          	auipc	x1,0x28e2b
    80000d4c:	01d0921b          	slliw	x4,x1,0x1d
    80000d50:	71bfe197          	auipc	x3,0x71bfe
    80000d54:	40008137          	lui	x2,0x40008
    80000d58:	00210133          	add	x2,x2,x2
    80000d5c:	f8613423          	sd	x6,-120(x2) # 40007f88 <_binary_lab3_test_bin_size+0x3ffdf454>
    80000d60:	4032df13          	srai	x30,x5,0x3
    80000d64:	1711019b          	addiw	x3,x2,369
    80000d68:	001081bb          	addw	x3,x1,x1
    80000d6c:	0011a1b3          	slt	x3,x3,x1
    80000d70:	a1d0c113          	xori	x2,x1,-1507
    80000d74:	0eb88693          	addi	x13,x17,235
    80000d78:	0010d3b3          	srl	x7,x1,x1
    80000d7c:	005f7233          	and	x4,x30,x5
    80000d80:	00c1109b          	slliw	x1,x2,0xc
    80000d84:	0041123b          	sllw	x4,x2,x4
    80000d88:	0082803b          	addw	x0,x5,x8
    80000d8c:	dc01b813          	sltiu	x16,x3,-576
    80000d90:	0020c0b3          	xor	x1,x1,x2
    80000d94:	cd348217          	auipc	x4,0xcd348
    80000d98:	40718133          	sub	x2,x3,x7
    80000d9c:	a531009b          	addiw	x1,x2,-1453
    80000da0:	23062037          	lui	x0,0x23062
    80000da4:	00000117          	auipc	x2,0x0
    80000da8:	008101e7          	jalr	x3,8(x2) # 80000dac <_binary_lab3_test_bin_start+0xdac>
    80000dac:	00124133          	xor	x2,x4,x1
    80000db0:	0020a5b3          	slt	x11,x1,x2
    80000db4:	0072911b          	slliw	x2,x5,0x7
    80000db8:	8780f093          	andi	x1,x1,-1928
    80000dbc:	02021093          	slli	x1,x4,0x20
    80000dc0:	002150bb          	srlw	x1,x2,x2
    80000dc4:	40008137          	lui	x2,0x40008
    80000dc8:	00210133          	add	x2,x2,x2
    80000dcc:	f8816103          	lwu	x2,-120(x2) # 40007f88 <_binary_lab3_test_bin_size+0x3ffdf454>
    80000dd0:	400080b7          	lui	x1,0x40008
    80000dd4:	001080b3          	add	x1,x1,x1
    80000dd8:	f8108083          	lb	x1,-127(x1) # 40007f81 <_binary_lab3_test_bin_size+0x3ffdf44d>
    80000ddc:	407150b3          	sra	x1,x2,x7
    80000de0:	62b761b7          	lui	x3,0x62b76
    80000de4:	9baf2997          	auipc	x19,0x9baf2
    80000de8:	6c70c193          	xori	x3,x1,1735
    80000dec:	40108133          	sub	x2,x1,x1
    80000df0:	d92f3137          	lui	x2,0xd92f3
    80000df4:	0001911b          	slliw	x2,x3,0x0
    80000df8:	18f08213          	addi	x4,x1,399
    80000dfc:	402080b3          	sub	x1,x1,x2
    80000e00:	49b2e293          	ori	x5,x5,1179
    80000e04:	00418133          	add	x2,x3,x4
    80000e08:	0020b0b3          	sltu	x1,x1,x2
    80000e0c:	bd313293          	sltiu	x5,x2,-1069
    80000e10:	01e2511b          	srliw	x2,x4,0x1e
    80000e14:	400080b7          	lui	x1,0x40008
    80000e18:	001080b3          	add	x1,x1,x1
    80000e1c:	f850b023          	sd	x5,-128(x1) # 40007f80 <_binary_lab3_test_bin_size+0x3ffdf44c>
    80000e20:	41b1531b          	sraiw	x6,x2,0x1b
    80000e24:	00000097          	auipc	x1,0x0
    80000e28:	1c008067          	jr	448(x1) # 80000fe4 <_binary_lab3_test_bin_start+0xfe4>
    80000e2c:	2431c093          	xori	x1,x3,579
    80000e30:	400080b7          	lui	x1,0x40008
    80000e34:	001080b3          	add	x1,x1,x1
    80000e38:	f8408523          	sb	x4,-118(x1) # 40007f8a <_binary_lab3_test_bin_size+0x3ffdf456>
    80000e3c:	007091b3          	sll	x3,x1,x7
    80000e40:	403254b3          	sra	x9,x4,x3
    80000e44:	403100bb          	subw	x1,x2,x3
    80000e48:	40008137          	lui	x2,0x40008
    80000e4c:	00210133          	add	x2,x2,x2
    80000e50:	f8013423          	sd	x0,-120(x2) # 40007f88 <_binary_lab3_test_bin_size+0x3ffdf454>
    80000e54:	402101bb          	subw	x3,x2,x2
    80000e58:	9d50b117          	auipc	x2,0x9d50b
    80000e5c:	0191529b          	srliw	x5,x2,0x19
    80000e60:	001151bb          	srlw	x3,x2,x1
    80000e64:	490be137          	lui	x2,0x490be
    80000e68:	f4b57137          	lui	x2,0xf4b57
    80000e6c:	001101b3          	add	x3,x2,x1
    80000e70:	0034a133          	slt	x2,x9,x3
    80000e74:	c535c037          	lui	x0,0xc535c
    80000e78:	40d1d23b          	sraw	x4,x3,x13
    80000e7c:	0d61e113          	ori	x2,x3,214
    80000e80:	40008137          	lui	x2,0x40008
    80000e84:	00210133          	add	x2,x2,x2
    80000e88:	f8813203          	ld	x4,-120(x2) # 40007f88 <_binary_lab3_test_bin_size+0x3ffdf454>
    80000e8c:	0022c0b3          	xor	x1,x5,x2
    80000e90:	0051533b          	srlw	x6,x2,x5
    80000e94:	4141d09b          	sraiw	x1,x3,0x14
    80000e98:	006180b3          	add	x1,x3,x6
    80000e9c:	0041d1b3          	srl	x3,x3,x4
    80000ea0:	4010d13b          	sraw	x2,x1,x1
    80000ea4:	02d15393          	srli	x7,x2,0x2d
    80000ea8:	858bf137          	lui	x2,0x858bf
    80000eac:	0030d0bb          	srlw	x1,x1,x3
    80000eb0:	9bec81b7          	lui	x3,0x9bec8
    80000eb4:	e7212113          	slti	x2,x2,-398
    80000eb8:	005000bb          	addw	x1,x0,x5
    80000ebc:	e630f4e3          	bgeu	x1,x3,80000d24 <_binary_lab3_test_bin_start+0xd24>
    80000ec0:	e630e2e3          	bltu	x1,x3,80000d24 <_binary_lab3_test_bin_start+0xd24>
    80000ec4:	0250d093          	srli	x1,x1,0x25
    80000ec8:	0061a033          	slt	x0,x3,x6
    80000ecc:	40008fb7          	lui	x31,0x40008
    80000ed0:	01ff8fb3          	add	x31,x31,x31
    80000ed4:	f83fb023          	sd	x3,-128(x31) # 40007f80 <_binary_lab3_test_bin_size+0x3ffdf44c>
    80000ed8:	0020883b          	addw	x16,x1,x2
    80000edc:	a6f3a113          	slti	x2,x7,-1425
    80000ee0:	40008137          	lui	x2,0x40008
    80000ee4:	00210133          	add	x2,x2,x2
    80000ee8:	f8213023          	sd	x2,-128(x2) # 40007f80 <_binary_lab3_test_bin_size+0x3ffdf44c>
    80000eec:	e0d330b7          	lui	x1,0xe0d33
    80000ef0:	ef479137          	lui	x2,0xef479
    80000ef4:	4141d193          	srai	x3,x3,0x14
    80000ef8:	003280b3          	add	x1,x5,x3
    80000efc:	0141d11b          	srliw	x2,x3,0x14
    80000f00:	0020813b          	addw	x2,x1,x2
    80000f04:	4021d31b          	sraiw	x6,x3,0x2
    80000f08:	37e30193          	addi	x3,x6,894
    80000f0c:	2e217113          	andi	x2,x2,738
    80000f10:	40008137          	lui	x2,0x40008
    80000f14:	00210133          	add	x2,x2,x2
    80000f18:	f8512023          	sw	x5,-128(x2) # 40007f80 <_binary_lab3_test_bin_size+0x3ffdf44c>
    80000f1c:	000001bb          	addw	x3,x0,x0
    80000f20:	8cafc317          	auipc	x6,0x8cafc
    80000f24:	0026e0b3          	or	x1,x13,x2
    80000f28:	40008137          	lui	x2,0x40008
    80000f2c:	00210133          	add	x2,x2,x2
    80000f30:	f8211623          	sh	x2,-116(x2) # 40007f8c <_binary_lab3_test_bin_size+0x3ffdf458>
    80000f34:	9a61e013          	ori	x0,x3,-1626
    80000f38:	7db1b297          	auipc	x5,0x7db1b
    80000f3c:	00b0a7b3          	slt	x15,x1,x11
    80000f40:	00000097          	auipc	x1,0x0
    80000f44:	250081e7          	jalr	x3,592(x1) # 80001190 <_binary_lab3_test_bin_start+0x1190>
    80000f48:	403101b3          	sub	x3,x2,x3
    80000f4c:	004130b3          	sltu	x1,x2,x4
    80000f50:	400087b7          	lui	x15,0x40008
    80000f54:	00f787b3          	add	x15,x15,x15
    80000f58:	f887b303          	ld	x6,-120(x15) # 40007f88 <_binary_lab3_test_bin_size+0x3ffdf454>
    80000f5c:	0051a333          	slt	x6,x3,x5
    80000f60:	b16b5337          	lui	x6,0xb16b5
    80000f64:	400081b7          	lui	x3,0x40008
    80000f68:	003181b3          	add	x3,x3,x3
    80000f6c:	f881b283          	ld	x5,-120(x3) # 40007f88 <_binary_lab3_test_bin_size+0x3ffdf454>
    80000f70:	90397117          	auipc	x2,0x90397
    80000f74:	b9a1811b          	addiw	x2,x3,-1126
    80000f78:	07955097          	auipc	x1,0x7955
    80000f7c:	00213133          	sltu	x2,x2,x2
    80000f80:	35cfc237          	lui	x4,0x35cfc
    80000f84:	25aa7137          	lui	x2,0x25aa7
    80000f88:	4113539b          	sraiw	x7,x6,0x11
    80000f8c:	3741e093          	ori	x1,x3,884
    80000f90:	c210809b          	addiw	x1,x1,-991 # ffffffff87955b99 <_binary_lab3_test_bin_end+0xffffffff0792d065>
    80000f94:	005081bb          	addw	x3,x1,x5
    80000f98:	7b188117          	auipc	x2,0x7b188
    80000f9c:	400081b7          	lui	x3,0x40008
    80000fa0:	003181b3          	add	x3,x3,x3
    80000fa4:	f851a423          	sw	x5,-120(x3) # 40007f88 <_binary_lab3_test_bin_size+0x3ffdf454>
    80000fa8:	9a6652b7          	lui	x5,0x9a665
    80000fac:	400081b7          	lui	x3,0x40008
    80000fb0:	003181b3          	add	x3,x3,x3
    80000fb4:	f801b103          	ld	x2,-128(x3) # 40007f80 <_binary_lab3_test_bin_size+0x3ffdf44c>
    80000fb8:	003170b3          	and	x1,x2,x3
    80000fbc:	0030b133          	sltu	x2,x1,x3
    80000fc0:	cce10193          	addi	x3,x2,-818 # fb188c66 <_binary_lab3_test_bin_end+0x7b160132>
    80000fc4:	40008337          	lui	x6,0x40008
    80000fc8:	00630333          	add	x6,x6,x6
    80000fcc:	f8033023          	sd	x0,-128(x6) # 40007f80 <_binary_lab3_test_bin_size+0x3ffdf44c>
    80000fd0:	00b0f3b3          	and	x7,x1,x11
    80000fd4:	0030d1b3          	srl	x3,x1,x3
    80000fd8:	eb9a12b7          	lui	x5,0xeb9a1
    80000fdc:	60d10863          	beq	x2,x13,800015ec <_binary_lab3_test_bin_start+0x15ec>
    80000fe0:	60c001ef          	jal	x3,800015ec <_binary_lab3_test_bin_start+0x15ec>
    80000fe4:	402150bb          	sraw	x1,x2,x2
    80000fe8:	00307133          	and	x2,x0,x3
    80000fec:	40008137          	lui	x2,0x40008
    80000ff0:	00210133          	add	x2,x2,x2
    80000ff4:	f82102a3          	sb	x2,-123(x2) # 40007f85 <_binary_lab3_test_bin_size+0x3ffdf451>
    80000ff8:	2f60819b          	addiw	x3,x1,758
    80000ffc:	b47c8337          	lui	x6,0xb47c8
    80001000:	f1412093          	slti	x1,x2,-236
    80001004:	003190b3          	sll	x1,x3,x3
    80001008:	0000f0b3          	and	x1,x1,x0
    8000100c:	4510829b          	addiw	x5,x1,1105
    80001010:	40415333          	sra	x6,x2,x4
    80001014:	007160b3          	or	x1,x2,x7
    80001018:	e701c113          	xori	x2,x3,-400
    8000101c:	40138133          	sub	x2,x7,x1
    80001020:	0010d13b          	srlw	x2,x1,x1
    80001024:	00125133          	srl	x2,x4,x1
    80001028:	c610c113          	xori	x2,x1,-927
    8000102c:	001100b3          	add	x1,x2,x1
    80001030:	001080b3          	add	x1,x1,x1
    80001034:	00016133          	or	x2,x2,x0
    80001038:	4010803b          	subw	x0,x1,x1
    8000103c:	001087bb          	addw	x15,x1,x1
    80001040:	0035c333          	xor	x6,x11,x3
    80001044:	0091959b          	slliw	x11,x3,0x9
    80001048:	0a9a7017          	auipc	x0,0xa9a7
    8000104c:	401001b3          	neg	x3,x1
    80001050:	0310d1b7          	lui	x3,0x310d
    80001054:	e3cfb3b7          	lui	x7,0xe3cfb
    80001058:	c44ea1b7          	lui	x3,0xc44ea
    8000105c:	0070813b          	addw	x2,x1,x7
    80001060:	00b1c193          	xori	x3,x3,11
    80001064:	006101b3          	add	x3,x2,x6
    80001068:	3e3c71b7          	lui	x3,0x3e3c7
    8000106c:	3e117263          	bgeu	x2,x1,80001450 <_binary_lab3_test_bin_start+0x1450>
    80001070:	3e116063          	bltu	x2,x1,80001450 <_binary_lab3_test_bin_start+0x1450>
    80001074:	02f01293          	slli	x5,x0,0x2f
    80001078:	4eb30113          	addi	x2,x6,1259 # ffffffffb47c84eb <_binary_lab3_test_bin_end+0xffffffff3479f9b7>
    8000107c:	400080b7          	lui	x1,0x40008
    80001080:	001080b3          	add	x1,x1,x1
    80001084:	f820b423          	sd	x2,-120(x1) # 40007f88 <_binary_lab3_test_bin_size+0x3ffdf454>
    80001088:	4087013b          	subw	x2,x14,x8
    8000108c:	001021b3          	sgtz	x3,x1
    80001090:	0073c133          	xor	x2,x7,x7
    80001094:	95a91097          	auipc	x1,0x95a91
    80001098:	0031e0b3          	or	x1,x3,x3
    8000109c:	4061d33b          	sraw	x6,x3,x6
    800010a0:	12aa3497          	auipc	x9,0x12aa3
    800010a4:	0140d21b          	srliw	x4,x1,0x14
    800010a8:	402751b3          	sra	x3,x14,x2
    800010ac:	c8d2a217          	auipc	x4,0xc8d2a
    800010b0:	4133813b          	subw	x2,x7,x19
    800010b4:	40008137          	lui	x2,0x40008
    800010b8:	00210133          	add	x2,x2,x2
    800010bc:	f8211723          	sh	x2,-114(x2) # 40007f8e <_binary_lab3_test_bin_size+0x3ffdf45a>
    800010c0:	004212bb          	sllw	x5,x4,x4
    800010c4:	401150b3          	sra	x1,x2,x1
    800010c8:	40008137          	lui	x2,0x40008
    800010cc:	00210133          	add	x2,x2,x2
    800010d0:	f8e15083          	lhu	x1,-114(x2) # 40007f8e <_binary_lab3_test_bin_size+0x3ffdf45a>
    800010d4:	4064d0bb          	sraw	x1,x9,x6
    800010d8:	40008237          	lui	x4,0x40008
    800010dc:	00420233          	add	x4,x4,x4
    800010e0:	f8123423          	sd	x1,-120(x4) # 40007f88 <_binary_lab3_test_bin_size+0x3ffdf454>
    800010e4:	401080bb          	subw	x1,x1,x1
    800010e8:	c9d16313          	ori	x6,x2,-867
    800010ec:	ab21809b          	addiw	x1,x3,-1358 # 3e3c6ab2 <_binary_lab3_test_bin_size+0x3e39df7e>
    800010f0:	7700f313          	andi	x6,x1,1904
    800010f4:	003bd4b3          	srl	x9,x23,x3
    800010f8:	0061823b          	addw	x4,x3,x6
    800010fc:	00010393          	mv	x7,x2
    80001100:	d22386e3          	beq	x7,x2,80000e2c <_binary_lab3_test_bin_start+0xe2c>
    80001104:	00208133          	add	x2,x1,x2
    80001108:	c7ea5317          	auipc	x6,0xc7ea5
    8000110c:	40d1d21b          	sraiw	x4,x3,0xd
    80001110:	4f570797          	auipc	x15,0x4f570
    80001114:	30c17093          	andi	x1,x2,780
    80001118:	79a1a193          	slti	x3,x3,1946
    8000111c:	40008137          	lui	x2,0x40008
    80001120:	00210133          	add	x2,x2,x2
    80001124:	f8813083          	ld	x1,-120(x2) # 40007f88 <_binary_lab3_test_bin_size+0x3ffdf454>
    80001128:	7720c113          	xori	x2,x1,1906
    8000112c:	bc8233b7          	lui	x7,0xbc823
    80001130:	001150bb          	srlw	x1,x2,x1
    80001134:	5c04b097          	auipc	x1,0x5c04b
    80001138:	681932b7          	lui	x5,0x68193
    8000113c:	8fce9197          	auipc	x3,0x8fce9
    80001140:	0056e0b3          	or	x1,x13,x5
    80001144:	002221b3          	slt	x3,x4,x2
    80001148:	02709193          	slli	x3,x1,0x27
    8000114c:	a6d741b7          	lui	x3,0xa6d74
    80001150:	02f3c097          	auipc	x1,0x2f3c
    80001154:	00e0929b          	slliw	x5,x1,0xe
    80001158:	400081b7          	lui	x3,0x40008
    8000115c:	003181b3          	add	x3,x3,x3
    80001160:	f801b183          	ld	x3,-128(x3) # 40007f80 <_binary_lab3_test_bin_size+0x3ffdf44c>
    80001164:	400081b7          	lui	x3,0x40008
    80001168:	003181b3          	add	x3,x3,x3
    8000116c:	f8119623          	sh	x1,-116(x3) # 40007f8c <_binary_lab3_test_bin_size+0x3ffdf458>
    80001170:	e0a4e017          	auipc	x0,0xe0a4e
    80001174:	54170337          	lui	x6,0x54170
    80001178:	005040b3          	xor	x1,x0,x5
    8000117c:	48b2e193          	ori	x3,x5,1163
    80001180:	0121919b          	slliw	x3,x3,0x12
    80001184:	4011d0b3          	sra	x1,x3,x1
    80001188:	3e3f8063          	beq	x31,x3,80001568 <_binary_lab3_test_bin_start+0x1568>
    8000118c:	3dc000ef          	jal	80001568 <_binary_lab3_test_bin_start+0x1568>
    80001190:	775f71b7          	lui	x3,0x775f7
    80001194:	400085b7          	lui	x11,0x40008
    80001198:	00b585b3          	add	x11,x11,x11
    8000119c:	f805b203          	ld	x4,-128(x11) # 40007f80 <_binary_lab3_test_bin_size+0x3ffdf44c>
    800011a0:	02d09113          	slli	x2,x1,0x2d
    800011a4:	7b1c6317          	auipc	x6,0x7b1c6
    800011a8:	400087b7          	lui	x15,0x40008
    800011ac:	00f787b3          	add	x15,x15,x15
    800011b0:	f817b423          	sd	x1,-120(x15) # 40007f88 <_binary_lab3_test_bin_size+0x3ffdf454>
    800011b4:	400081b7          	lui	x3,0x40008
    800011b8:	003181b3          	add	x3,x3,x3
    800011bc:	f8319023          	sh	x3,-128(x3) # 40007f80 <_binary_lab3_test_bin_size+0x3ffdf44c>
    800011c0:	bf69b197          	auipc	x3,0xbf69b
    800011c4:	7892819b          	addiw	x3,x5,1929 # 68193789 <_binary_lab3_test_bin_size+0x6816ac55>
    800011c8:	b021a013          	slti	x0,x3,-1278
    800011cc:	e8fb61b7          	lui	x3,0xe8fb6
    800011d0:	fc81b193          	sltiu	x3,x3,-56
    800011d4:	00601233          	sll	x4,x0,x6
    800011d8:	40008337          	lui	x6,0x40008
    800011dc:	00630333          	add	x6,x6,x6
    800011e0:	f8333023          	sd	x3,-128(x6) # 40007f80 <_binary_lab3_test_bin_size+0x3ffdf44c>
    800011e4:	0f082337          	lui	x6,0xf082
    800011e8:	01401193          	slli	x3,x0,0x14
    800011ec:	0016e033          	or	x0,x13,x1
    800011f0:	93944117          	auipc	x2,0x93944
    800011f4:	81910113          	addi	x2,x2,-2023 # 13944a09 <_binary_lab3_test_bin_size+0x1391bed5>
    800011f8:	0003913b          	sllw	x2,x7,x0
    800011fc:	01f17113          	andi	x2,x2,31
    80001200:	8ed7c037          	lui	x0,0x8ed7c
    80001204:	62fa8197          	auipc	x3,0x62fa8
    80001208:	402301bb          	subw	x3,x6,x2
    8000120c:	41c0d19b          	sraiw	x3,x1,0x1c
    80001210:	0003b1b3          	sltu	x3,x7,x0
    80001214:	0010833b          	addw	x6,x1,x1
    80001218:	00000197          	auipc	x3,0x0
    8000121c:	098180e7          	jalr	152(x3) # 800012b0 <_binary_lab3_test_bin_start+0x12b0>
    80001220:	40008137          	lui	x2,0x40008
    80001224:	00210133          	add	x2,x2,x2
    80001228:	f87106a3          	sb	x7,-115(x2) # 40007f8d <_binary_lab3_test_bin_size+0x3ffdf459>
    8000122c:	4311d193          	srai	x3,x3,0x31
    80001230:	400080b7          	lui	x1,0x40008
    80001234:	001080b3          	add	x1,x1,x1
    80001238:	f8408083          	lb	x1,-124(x1) # 40007f84 <_binary_lab3_test_bin_size+0x3ffdf450>
    8000123c:	40218333          	sub	x6,x3,x2
    80001240:	ca3231b7          	lui	x3,0xca323
    80001244:	2ee27597          	auipc	x11,0x2ee27
    80001248:	002025b3          	sgtz	x11,x2
    8000124c:	40008137          	lui	x2,0x40008
    80001250:	00210133          	add	x2,x2,x2
    80001254:	f8813083          	ld	x1,-120(x2) # 40007f88 <_binary_lab3_test_bin_size+0x3ffdf454>
    80001258:	40108133          	sub	x2,x1,x1
    8000125c:	94718013          	addi	x0,x3,-1721 # ffffffffca322947 <_binary_lab3_test_bin_end+0xffffffff4a2f9e13>
    80001260:	40338133          	sub	x2,x7,x3
    80001264:	113cc2b7          	lui	x5,0x113cc
    80001268:	401350b3          	sra	x1,x6,x1
    8000126c:	002060b3          	or	x1,x0,x2
    80001270:	a9f80097          	auipc	x1,0xa9f80
    80001274:	40615093          	srai	x1,x2,0x6
    80001278:	75036193          	ori	x3,x6,1872
    8000127c:	400081b7          	lui	x3,0x40008
    80001280:	003181b3          	add	x3,x3,x3
    80001284:	f8219423          	sh	x2,-120(x3) # 40007f88 <_binary_lab3_test_bin_size+0x3ffdf454>
    80001288:	00317333          	and	x6,x2,x3
    8000128c:	400080b7          	lui	x1,0x40008
    80001290:	001080b3          	add	x1,x1,x1
    80001294:	f8b0c083          	lbu	x1,-117(x1) # 40007f8b <_binary_lab3_test_bin_size+0x3ffdf457>
    80001298:	7bb07297          	auipc	x5,0x7bb07
    8000129c:	94dcc1b7          	lui	x3,0x94dcc
    800012a0:	02f60097          	auipc	x1,0x2f60
    800012a4:	00120133          	add	x2,x4,x1
    800012a8:	00038213          	mv	x4,x7
    800012ac:	9e7208e3          	beq	x4,x7,80000c9c <_binary_lab3_test_bin_start+0xc9c>
    800012b0:	4101511b          	sraiw	x2,x2,0x10
    800012b4:	cca520b7          	lui	x1,0xcca52
    800012b8:	2c00a193          	slti	x3,x1,704
    800012bc:	00139093          	slli	x1,x7,0x1
    800012c0:	42925113          	srai	x2,x4,0x29
    800012c4:	56a1f093          	andi	x1,x3,1386
    800012c8:	401383b3          	sub	x7,x7,x1
    800012cc:	00122333          	slt	x6,x4,x1
    800012d0:	72c20313          	addi	x6,x4,1836 # 72c <_binary_lab3_test_bin_size-0x28408>
    800012d4:	00109233          	sll	x4,x1,x1
    800012d8:	cd27e237          	lui	x4,0xcd27e
    800012dc:	0051519b          	srliw	x3,x2,0x5
    800012e0:	1410a113          	slti	x2,x1,321
    800012e4:	93cde237          	lui	x4,0x93cde
    800012e8:	20d32093          	slti	x1,x6,525
    800012ec:	0011a333          	slt	x6,x3,x1
    800012f0:	01f21113          	slli	x2,x4,0x1f
    800012f4:	49718337          	lui	x6,0x49718
    800012f8:	0020f233          	and	x4,x1,x2
    800012fc:	002250bb          	srlw	x1,x4,x2
    80001300:	0021929b          	slliw	x5,x3,0x2
    80001304:	005191b3          	sll	x3,x3,x5
    80001308:	0037d1b3          	srl	x3,x15,x3
    8000130c:	f07ca197          	auipc	x3,0xf07ca
    80001310:	02e21093          	slli	x1,x4,0x2e
    80001314:	cac7e193          	ori	x3,x15,-852
    80001318:	400081b7          	lui	x3,0x40008
    8000131c:	003181b3          	add	x3,x3,x3
    80001320:	f801b083          	ld	x1,-128(x3) # 40007f80 <_binary_lab3_test_bin_size+0x3ffdf44c>
    80001324:	173dc0b7          	lui	x1,0x173dc
    80001328:	0013813b          	addw	x2,x7,x1
    8000132c:	a0e72097          	auipc	x1,0xa0e72
    80001330:	08310a63          	beq	x2,x3,800013c4 <_binary_lab3_test_bin_start+0x13c4>
    80001334:	090002ef          	jal	x5,800013c4 <_binary_lab3_test_bin_start+0x13c4>
    80001338:	d17e2417          	auipc	x8,0xd17e2
    8000133c:	00108133          	add	x2,x1,x1
    80001340:	f492f097          	auipc	x1,0xf492f
    80001344:	0320d193          	srli	x3,x1,0x32
    80001348:	37bcc0b7          	lui	x1,0x37bcc
    8000134c:	0010d093          	srli	x1,x1,0x1
    80001350:	403580b3          	sub	x1,x11,x3
    80001354:	00311133          	sll	x2,x2,x3
    80001358:	0030c1b3          	xor	x3,x1,x3
    8000135c:	0010d1bb          	srlw	x3,x1,x1
    80001360:	4031513b          	sraw	x2,x2,x3
    80001364:	01d3909b          	slliw	x1,x7,0x1d
    80001368:	53336397          	auipc	x7,0x53336
    8000136c:	001100bb          	addw	x1,x2,x1
    80001370:	2224f197          	auipc	x3,0x2224f
    80001374:	4082d19b          	sraiw	x3,x5,0x8
    80001378:	401150b3          	sra	x1,x2,x1
    8000137c:	0030803b          	addw	x0,x1,x3
    80001380:	400085b7          	lui	x11,0x40008
    80001384:	00b585b3          	add	x11,x11,x11
    80001388:	f805b783          	ld	x15,-128(x11) # 40007f80 <_binary_lab3_test_bin_size+0x3ffdf44c>
    8000138c:	4042513b          	sraw	x2,x4,x4
    80001390:	40008137          	lui	x2,0x40008
    80001394:	00210133          	add	x2,x2,x2
    80001398:	f8312623          	sw	x3,-116(x2) # 40007f8c <_binary_lab3_test_bin_size+0x3ffdf458>
    8000139c:	403a521b          	sraiw	x4,x20,0x3
    800013a0:	000011b3          	sll	x3,x0,x0
    800013a4:	32a36193          	ori	x3,x6,810
    800013a8:	0012913b          	sllw	x2,x5,x1
    800013ac:	002253bb          	srlw	x7,x4,x2
    800013b0:	0120909b          	slliw	x1,x1,0x12
    800013b4:	00211233          	sll	x4,x2,x2
    800013b8:	40358133          	sub	x2,x11,x3
    800013bc:	d440d4e3          	bge	x1,x4,80001104 <_binary_lab3_test_bin_start+0x1104>
    800013c0:	d440c2e3          	blt	x1,x4,80001104 <_binary_lab3_test_bin_start+0x1104>
    800013c4:	d024031b          	addiw	x6,x8,-766 # 517e303a <_binary_lab3_test_bin_size+0x517ba506>
    800013c8:	0262e197          	auipc	x3,0x262e
    800013cc:	400080b7          	lui	x1,0x40008
    800013d0:	001080b3          	add	x1,x1,x1
    800013d4:	f800b103          	ld	x2,-128(x1) # 40007f80 <_binary_lab3_test_bin_size+0x3ffdf44c>
    800013d8:	00116933          	or	x18,x2,x1
    800013dc:	40008237          	lui	x4,0x40008
    800013e0:	00420233          	add	x4,x4,x4
    800013e4:	f8822183          	lw	x3,-120(x4) # 40007f88 <_binary_lab3_test_bin_size+0x3ffdf454>
    800013e8:	6943019b          	addiw	x3,x6,1684 # 49718694 <_binary_lab3_test_bin_size+0x496efb60>
    800013ec:	000197b3          	sll	x15,x3,x0
    800013f0:	b5bc31b7          	lui	x3,0xb5bc3
    800013f4:	00317033          	and	x0,x2,x3
    800013f8:	ecf1a093          	slti	x1,x3,-305
    800013fc:	d150e213          	ori	x4,x1,-747
    80001400:	94b6c197          	auipc	x3,0x94b6c
    80001404:	0051d213          	srli	x4,x3,0x5
    80001408:	0021c5b3          	xor	x11,x3,x2
    8000140c:	000021b3          	sltz	x3,x0
    80001410:	0070d113          	srli	x2,x1,0x7
    80001414:	0031a1b3          	slt	x3,x3,x3
    80001418:	400080b7          	lui	x1,0x40008
    8000141c:	001080b3          	add	x1,x1,x1
    80001420:	f880e183          	lwu	x3,-120(x1) # 40007f88 <_binary_lab3_test_bin_size+0x3ffdf454>
    80001424:	0020e1b3          	or	x3,x1,x2
    80001428:	0031d033          	srl	x0,x3,x3
    8000142c:	400082b7          	lui	x5,0x40008
    80001430:	005282b3          	add	x5,x5,x5
    80001434:	f842c183          	lbu	x3,-124(x5) # 40007f84 <_binary_lab3_test_bin_size+0x3ffdf450>
    80001438:	59b0c113          	xori	x2,x1,1435
    8000143c:	d7d6e3b7          	lui	x7,0xd7d6e
    80001440:	00711033          	sll	x0,x2,x7
    80001444:	03549493          	slli	x9,x9,0x35
    80001448:	08118463          	beq	x3,x1,800014d0 <_binary_lab3_test_bin_start+0x14d0>
    8000144c:	084006ef          	jal	x13,800014d0 <_binary_lab3_test_bin_start+0x14d0>
    80001450:	0131109b          	slliw	x1,x2,0x13
    80001454:	400082b7          	lui	x5,0x40008
    80001458:	005282b3          	add	x5,x5,x5
    8000145c:	f862b023          	sd	x6,-128(x5) # 40007f80 <_binary_lab3_test_bin_size+0x3ffdf44c>
    80001460:	400080b7          	lui	x1,0x40008
    80001464:	001080b3          	add	x1,x1,x1
    80001468:	f800a083          	lw	x1,-128(x1) # 40007f80 <_binary_lab3_test_bin_size+0x3ffdf44c>
    8000146c:	2be92297          	auipc	x5,0x2be92
    80001470:	400080b7          	lui	x1,0x40008
    80001474:	001080b3          	add	x1,x1,x1
    80001478:	f8a0c283          	lbu	x5,-118(x1) # 40007f8a <_binary_lab3_test_bin_size+0x3ffdf456>
    8000147c:	0110511b          	srliw	x2,x0,0x11
    80001480:	40008137          	lui	x2,0x40008
    80001484:	00210133          	add	x2,x2,x2
    80001488:	f8412703          	lw	x14,-124(x2) # 40007f84 <_binary_lab3_test_bin_size+0x3ffdf450>
    8000148c:	00c1111b          	slliw	x2,x2,0xc
    80001490:	003112b3          	sll	x5,x2,x3
    80001494:	726fe117          	auipc	x2,0x726fe
    80001498:	2f332237          	lui	x4,0x2f332
    8000149c:	400082b7          	lui	x5,0x40008
    800014a0:	005282b3          	add	x5,x5,x5
    800014a4:	f812c383          	lbu	x7,-127(x5) # 40007f81 <_binary_lab3_test_bin_size+0x3ffdf44d>
    800014a8:	400080b7          	lui	x1,0x40008
    800014ac:	001080b3          	add	x1,x1,x1
    800014b0:	f940b023          	sd	x20,-128(x1) # 40007f80 <_binary_lab3_test_bin_size+0x3ffdf44c>
    800014b4:	400081b7          	lui	x3,0x40008
    800014b8:	003181b3          	add	x3,x3,x3
    800014bc:	f8718103          	lb	x2,-121(x3) # 40007f87 <_binary_lab3_test_bin_size+0x3ffdf453>
    800014c0:	001255b3          	srl	x11,x4,x1
    800014c4:	00d150b3          	srl	x1,x2,x13
    800014c8:	00010193          	mv	x3,x2
    800014cc:	d4218ae3          	beq	x3,x2,80001220 <_binary_lab3_test_bin_start+0x1220>
    800014d0:	c6e6dbb7          	lui	x23,0xc6e6d
    800014d4:	0012c133          	xor	x2,x5,x1
    800014d8:	4db02db7          	lui	x27,0x4db02
    800014dc:	0013b033          	sltu	x0,x7,x1
    800014e0:	58055217          	auipc	x4,0x58055
    800014e4:	400080b7          	lui	x1,0x40008
    800014e8:	001080b3          	add	x1,x1,x1
    800014ec:	f880b083          	ld	x1,-120(x1) # 40007f88 <_binary_lab3_test_bin_size+0x3ffdf454>
    800014f0:	0023d1bb          	srlw	x3,x7,x2
    800014f4:	4000813b          	subw	x2,x1,x0
    800014f8:	4321009b          	addiw	x1,x2,1074 # fffffffff26ff8c6 <_binary_lab3_test_bin_end+0xffffffff726d6d92>
    800014fc:	60d1a093          	slti	x1,x3,1549
    80001500:	c1ff9317          	auipc	x6,0xc1ff9
    80001504:	400080b7          	lui	x1,0x40008
    80001508:	001080b3          	add	x1,x1,x1
    8000150c:	f880b303          	ld	x6,-120(x1) # 40007f88 <_binary_lab3_test_bin_size+0x3ffdf454>
    80001510:	0d217093          	andi	x1,x2,210
    80001514:	002171b3          	and	x3,x2,x2
    80001518:	d298f0b7          	lui	x1,0xd298f
    8000151c:	00527133          	and	x2,x4,x5
    80001520:	40008137          	lui	x2,0x40008
    80001524:	00210133          	add	x2,x2,x2
    80001528:	f8210523          	sb	x2,-118(x2) # 40007f8a <_binary_lab3_test_bin_size+0x3ffdf456>
    8000152c:	40008137          	lui	x2,0x40008
    80001530:	00210133          	add	x2,x2,x2
    80001534:	f8812183          	lw	x3,-120(x2) # 40007f88 <_binary_lab3_test_bin_size+0x3ffdf454>
    80001538:	a8112317          	auipc	x6,0xa8112
    8000153c:	1d20809b          	addiw	x1,x1,466 # ffffffffd298f1d2 <_binary_lab3_test_bin_end+0xffffffff5296669e>
    80001540:	0183109b          	slliw	x1,x6,0x18
    80001544:	c453c0b7          	lui	x1,0xc453c
    80001548:	0161509b          	srliw	x1,x2,0x16
    8000154c:	005391bb          	sllw	x3,x7,x5
    80001550:	d0c0809b          	addiw	x1,x1,-756 # ffffffffc453bd0c <_binary_lab3_test_bin_end+0xffffffff445131d8>
    80001554:	bb008393          	addi	x7,x1,-1104
    80001558:	002133b3          	sltu	x7,x2,x2
    8000155c:	43343097          	auipc	x1,0x43343
    80001560:	00110263          	beq	x2,x1,80001564 <_binary_lab3_test_bin_start+0x1564>
    80001564:	ea4ff2ef          	jal	x5,80000c08 <_binary_lab3_test_bin_start+0xc08>
    80001568:	400081b7          	lui	x3,0x40008
    8000156c:	003181b3          	add	x3,x3,x3
    80001570:	f811b423          	sd	x1,-120(x3) # 40007f88 <_binary_lab3_test_bin_size+0x3ffdf454>
    80001574:	400081b7          	lui	x3,0x40008
    80001578:	003181b3          	add	x3,x3,x3
    8000157c:	f8d1c083          	lbu	x1,-115(x3) # 40007f8d <_binary_lab3_test_bin_size+0x3ffdf459>
    80001580:	dbfe8197          	auipc	x3,0xdbfe8
    80001584:	0010c4b3          	xor	x9,x1,x1
    80001588:	cde1009b          	addiw	x1,x2,-802
    8000158c:	0e51001b          	addiw	x0,x2,229
    80001590:	00709013          	slli	x0,x1,0x7
    80001594:	4010013b          	negw	x2,x1
    80001598:	9af6c113          	xori	x2,x13,-1617
    8000159c:	003250bb          	srlw	x1,x4,x3
    800015a0:	f191c793          	xori	x15,x3,-231
    800015a4:	0010113b          	sllw	x2,x0,x1
    800015a8:	0036f3b3          	and	x7,x13,x3
    800015ac:	00726233          	or	x4,x4,x7
    800015b0:	40008137          	lui	x2,0x40008
    800015b4:	00210133          	add	x2,x2,x2
    800015b8:	f8615183          	lhu	x3,-122(x2) # 40007f86 <_binary_lab3_test_bin_size+0x3ffdf452>
    800015bc:	400080b7          	lui	x1,0x40008
    800015c0:	001080b3          	add	x1,x1,x1
    800015c4:	f810b423          	sd	x1,-120(x1) # 40007f88 <_binary_lab3_test_bin_size+0x3ffdf454>
    800015c8:	001348b3          	xor	x17,x6,x1
    800015cc:	ad40f393          	andi	x7,x1,-1324
    800015d0:	387dd117          	auipc	x2,0x387dd
    800015d4:	402080b3          	sub	x1,x1,x2
    800015d8:	00400033          	add	x0,x0,x4
    800015dc:	43e0819b          	addiw	x3,x1,1086
    800015e0:	0051e333          	or	x6,x3,x5
    800015e4:	01a10263          	beq	x2,x26,800015e8 <_binary_lab3_test_bin_start+0x15e8>
    800015e8:	da0ff0ef          	jal	80000b88 <_binary_lab3_test_bin_start+0xb88>
    800015ec:	e53910b7          	lui	x1,0xe5391
    800015f0:	01f1d31b          	srliw	x6,x3,0x1f
    800015f4:	fcc0b117          	auipc	x2,0xfcc0b
    800015f8:	403351bb          	sraw	x3,x6,x3
    800015fc:	41025113          	srai	x2,x4,0x10
    80001600:	00509b3b          	sllw	x22,x1,x5
    80001604:	002193b3          	sll	x7,x3,x2
    80001608:	b43fd197          	auipc	x3,0xb43fd
    8000160c:	6e907313          	andi	x6,x0,1769
    80001610:	b3e11097          	auipc	x1,0xb3e11
    80001614:	40008137          	lui	x2,0x40008
    80001618:	00210133          	add	x2,x2,x2
    8000161c:	f8a11103          	lh	x2,-118(x2) # 40007f8a <_binary_lab3_test_bin_size+0x3ffdf456>
    80001620:	004170b3          	and	x1,x2,x4
    80001624:	01719113          	slli	x2,x3,0x17
    80001628:	344b21b7          	lui	x3,0x344b2
    8000162c:	41c0d11b          	sraiw	x2,x1,0x1c
    80001630:	1b70809b          	addiw	x1,x1,439 # 33e127c7 <_binary_lab3_test_bin_size+0x33de9c93>
    80001634:	400081b7          	lui	x3,0x40008
    80001638:	003181b3          	add	x3,x3,x3
    8000163c:	f8019083          	lh	x1,-128(x3) # 40007f80 <_binary_lab3_test_bin_size+0x3ffdf44c>
    80001640:	03d09313          	slli	x6,x1,0x3d
    80001644:	8a92811b          	addiw	x2,x5,-1879
    80001648:	7540a193          	slti	x3,x1,1876
    8000164c:	0031e133          	or	x2,x3,x3
    80001650:	7d49e2b7          	lui	x5,0x7d49e
    80001654:	41f1511b          	sraiw	x2,x2,0x1f
    80001658:	b5e9c097          	auipc	x1,0xb5e9c
    8000165c:	b3214113          	xori	x2,x2,-1230
    80001660:	936ba193          	slti	x3,x23,-1738
    80001664:	a6f2b6b7          	lui	x13,0xa6f2b
    80001668:	84d15ee3          	bge	x2,x13,80000ec4 <_binary_lab3_test_bin_start+0xec4>
    8000166c:	84d14ce3          	blt	x2,x13,80000ec4 <_binary_lab3_test_bin_start+0xec4>
    80001670:	40008137          	lui	x2,0x40008
    80001674:	00210133          	add	x2,x2,x2
    80001678:	f8016103          	lwu	x2,-128(x2) # 40007f80 <_binary_lab3_test_bin_size+0x3ffdf44c>
    8000167c:	0053503b          	srlw	x0,x6,x5
    80001680:	d0016113          	ori	x2,x2,-768
    80001684:	1f4d4017          	auipc	x0,0x1f4d4
    80001688:	9d21b293          	sltiu	x5,x3,-1582
    8000168c:	41c15033          	sra	x0,x2,x28
    80001690:	0070d193          	srli	x3,x1,0x7
    80001694:	403050b3          	sra	x1,x0,x3
    80001698:	cb8ce197          	auipc	x3,0xcb8ce
    8000169c:	003151b3          	srl	x3,x2,x3
    800016a0:	40008137          	lui	x2,0x40008
    800016a4:	00210133          	add	x2,x2,x2
    800016a8:	f8311223          	sh	x3,-124(x2) # 40007f84 <_binary_lab3_test_bin_size+0x3ffdf450>
    800016ac:	03409093          	slli	x1,x1,0x34
    800016b0:	0020d033          	srl	x0,x1,x2
    800016b4:	00d0d0b3          	srl	x1,x1,x13
    800016b8:	00818033          	add	x0,x3,x8
    800016bc:	4022d133          	sra	x2,x5,x2
    800016c0:	40008237          	lui	x4,0x40008
    800016c4:	00420233          	add	x4,x4,x4
    800016c8:	f8223423          	sd	x2,-120(x4) # 40007f88 <_binary_lab3_test_bin_size+0x3ffdf454>
    800016cc:	1ee9c4b7          	lui	x9,0x1ee9c
    800016d0:	4011003b          	subw	x0,x2,x1
    800016d4:	4055d133          	sra	x2,x11,x5
    800016d8:	0031d0b3          	srl	x1,x3,x3
    800016dc:	002300b3          	add	x1,x6,x2
    800016e0:	00515333          	srl	x6,x2,x5
    800016e4:	01c1019b          	addiw	x3,x2,28
    800016e8:	4021d133          	sra	x2,x3,x2
    800016ec:	df210193          	addi	x3,x2,-526
    800016f0:	0040aa33          	slt	x20,x1,x4
    800016f4:	2400c113          	xori	x2,x1,576
    800016f8:	00d18263          	beq	x3,x13,800016fc <_binary_lab3_test_bin_start+0x16fc>
    800016fc:	2a4012ef          	jal	x5,800029a0 <_binary_lab3_test_bin_start+0x29a0>
    80001700:	0021a133          	slt	x2,x3,x2
    80001704:	c6d1809b          	addiw	x1,x3,-915 # 4b8cf305 <_binary_lab3_test_bin_size+0x4b8a67d1>
    80001708:	ded3a1b7          	lui	x3,0xded3a
    8000170c:	0010a233          	slt	x4,x1,x1
    80001710:	743970b7          	lui	x1,0x74397
    80001714:	4091d133          	sra	x2,x3,x9
    80001718:	40008fb7          	lui	x31,0x40008
    8000171c:	01ff8fb3          	add	x31,x31,x31
    80001720:	f85f8083          	lb	x1,-123(x31) # 40007f85 <_binary_lab3_test_bin_size+0x3ffdf451>
    80001724:	400080b7          	lui	x1,0x40008
    80001728:	001080b3          	add	x1,x1,x1
    8000172c:	f810a423          	sw	x1,-120(x1) # 40007f88 <_binary_lab3_test_bin_size+0x3ffdf454>
    80001730:	402e8133          	sub	x2,x29,x2
    80001734:	402181b3          	sub	x3,x3,x2
    80001738:	40008137          	lui	x2,0x40008
    8000173c:	00210133          	add	x2,x2,x2
    80001740:	f8311023          	sh	x3,-128(x2) # 40007f80 <_binary_lab3_test_bin_size+0x3ffdf44c>
    80001744:	e170c113          	xori	x2,x1,-489
    80001748:	dff0809b          	addiw	x1,x1,-513
    8000174c:	e0c0c113          	xori	x2,x1,-500
    80001750:	004022b3          	sgtz	x5,x4
    80001754:	4127d113          	srai	x2,x15,0x12
    80001758:	eb817013          	andi	x0,x2,-328
    8000175c:	003000b3          	add	x1,x0,x3
    80001760:	400081b7          	lui	x3,0x40008
    80001764:	003181b3          	add	x3,x3,x3
    80001768:	f801b023          	sd	x0,-128(x3) # 40007f80 <_binary_lab3_test_bin_size+0x3ffdf44c>
    8000176c:	c391009b          	addiw	x1,x2,-967
    80001770:	4133d09b          	sraiw	x1,x7,0x13
    80001774:	40405133          	sra	x2,x0,x4
    80001778:	40008137          	lui	x2,0x40008
    8000177c:	00210133          	add	x2,x2,x2
    80001780:	f8012083          	lw	x1,-128(x2) # 40007f80 <_binary_lab3_test_bin_size+0x3ffdf44c>
    80001784:	22308e63          	beq	x1,x3,800019c0 <_binary_lab3_test_bin_start+0x19c0>
    80001788:	2380016f          	jal	x2,800019c0 <_binary_lab3_test_bin_start+0x19c0>
    8000178c:	b51b8317          	auipc	x6,0xb51b8
    80001790:	4045d3b3          	sra	x7,x11,x4
    80001794:	4051d89b          	sraiw	x17,x3,0x5
    80001798:	40008137          	lui	x2,0x40008
    8000179c:	00210133          	add	x2,x2,x2
    800017a0:	f8813203          	ld	x4,-120(x2) # 40007f88 <_binary_lab3_test_bin_size+0x3ffdf454>
    800017a4:	0030813b          	addw	x2,x1,x3
    800017a8:	40008137          	lui	x2,0x40008
    800017ac:	00210133          	add	x2,x2,x2
    800017b0:	f8611223          	sh	x6,-124(x2) # 40007f84 <_binary_lab3_test_bin_size+0x3ffdf450>
    800017b4:	4022d133          	sra	x2,x5,x2
    800017b8:	400081b7          	lui	x3,0x40008
    800017bc:	003181b3          	add	x3,x3,x3
    800017c0:	f881b103          	ld	x2,-120(x3) # 40007f88 <_binary_lab3_test_bin_size+0x3ffdf454>
    800017c4:	3291819b          	addiw	x3,x3,809
    800017c8:	00006233          	or	x4,x0,x0
    800017cc:	403100bb          	subw	x1,x2,x3
    800017d0:	b0c0f093          	andi	x1,x1,-1268
    800017d4:	8e964097          	auipc	x1,0x8e964
    800017d8:	1c012093          	slti	x1,x2,448
    800017dc:	40008137          	lui	x2,0x40008
    800017e0:	00210133          	add	x2,x2,x2
    800017e4:	f8013383          	ld	x7,-128(x2) # 40007f80 <_binary_lab3_test_bin_size+0x3ffdf44c>
    800017e8:	01f0d19b          	srliw	x3,x1,0x1f
    800017ec:	d27cc137          	lui	x2,0xd27cc
    800017f0:	00621093          	slli	x1,x4,0x6
    800017f4:	0021d1bb          	srlw	x3,x3,x2
    800017f8:	0062511b          	srliw	x2,x4,0x6
    800017fc:	0a24a797          	auipc	x15,0xa24a
    80001800:	a5a1801b          	addiw	x0,x3,-1446
    80001804:	4201009b          	addiw	x1,x2,1056 # ffffffffd27cc420 <_binary_lab3_test_bin_end+0xffffffff527a38ec>
    80001808:	c6918913          	addi	x18,x3,-919
    8000180c:	001090bb          	sllw	x1,x1,x1
    80001810:	00918133          	add	x2,x3,x9
    80001814:	31ced0b7          	lui	x1,0x31ced
    80001818:	41e101b3          	sub	x3,x2,x30
    8000181c:	2440d063          	bge	x1,x4,80001a5c <_binary_lab3_test_bin_start+0x1a5c>
    80001820:	2240ce63          	blt	x1,x4,80001a5c <_binary_lab3_test_bin_start+0x1a5c>
    80001824:	5bf96237          	lui	x4,0x5bf96
    80001828:	398fd717          	auipc	x14,0x398fd
    8000182c:	1ab1819b          	addiw	x3,x3,427
    80001830:	e3c36193          	ori	x3,x6,-452
    80001834:	400087b7          	lui	x15,0x40008
    80001838:	00f787b3          	add	x15,x15,x15
    8000183c:	f9b7b423          	sd	x27,-120(x15) # 40007f88 <_binary_lab3_test_bin_size+0x3ffdf454>
    80001840:	85f17113          	andi	x2,x2,-1953
    80001844:	0181909b          	slliw	x1,x3,0x18
    80001848:	0001a0b3          	sltz	x1,x3
    8000184c:	0070d13b          	srlw	x2,x1,x7
    80001850:	40008137          	lui	x2,0x40008
    80001854:	00210133          	add	x2,x2,x2
    80001858:	f8213423          	sd	x2,-120(x2) # 40007f88 <_binary_lab3_test_bin_size+0x3ffdf454>
    8000185c:	b4a48017          	auipc	x0,0xb4a48
    80001860:	306340b7          	lui	x1,0x30634
    80001864:	003281bb          	addw	x3,x5,x3
    80001868:	0063013b          	addw	x2,x6,x6
    8000186c:	00c3d29b          	srliw	x5,x7,0xc
    80001870:	4157d1b3          	sra	x3,x15,x21
    80001874:	0041b0b3          	sltu	x1,x3,x4
    80001878:	001e52b3          	srl	x5,x28,x1
    8000187c:	c8a17213          	andi	x4,x2,-886
    80001880:	0b824093          	xori	x1,x4,184
    80001884:	c051831b          	addiw	x6,x3,-1019
    80001888:	0031a233          	slt	x4,x3,x3
    8000188c:	003282b3          	add	x5,x5,x3
    80001890:	0001b133          	sltu	x2,x3,x0
    80001894:	0031d19b          	srliw	x3,x3,0x3
    80001898:	9a020113          	addi	x2,x4,-1632 # 5bf959a0 <_binary_lab3_test_bin_size+0x5bf6ce6c>
    8000189c:	2e10f663          	bgeu	x1,x1,80001b88 <_binary_lab3_test_bin_start+0x1b88>
    800018a0:	2e10e463          	bltu	x1,x1,80001b88 <_binary_lab3_test_bin_start+0x1b88>
    800018a4:	00231333          	sll	x6,x6,x2
    800018a8:	95d4f137          	lui	x2,0x95d4f
    800018ac:	e541c193          	xori	x3,x3,-428
    800018b0:	400081b7          	lui	x3,0x40008
    800018b4:	003181b3          	add	x3,x3,x3
    800018b8:	f831b023          	sd	x3,-128(x3) # 40007f80 <_binary_lab3_test_bin_size+0x3ffdf44c>
    800018bc:	0063c133          	xor	x2,x7,x6
    800018c0:	0050d13b          	srlw	x2,x1,x5
    800018c4:	40008137          	lui	x2,0x40008
    800018c8:	00210133          	add	x2,x2,x2
    800018cc:	f8213423          	sd	x2,-120(x2) # 40007f88 <_binary_lab3_test_bin_size+0x3ffdf454>
    800018d0:	4012803b          	subw	x0,x5,x1
    800018d4:	d1b1c793          	xori	x15,x3,-741
    800018d8:	0031913b          	sllw	x2,x3,x3
    800018dc:	632a6097          	auipc	x1,0x632a6
    800018e0:	4380d093          	srai	x1,x1,0x38
    800018e4:	003171b3          	and	x3,x2,x3
    800018e8:	73e5f193          	andi	x3,x11,1854
    800018ec:	400082b7          	lui	x5,0x40008
    800018f0:	005282b3          	add	x5,x5,x5
    800018f4:	f812a223          	sw	x1,-124(x5) # 40007f84 <_binary_lab3_test_bin_size+0x3ffdf450>
    800018f8:	400080b7          	lui	x1,0x40008
    800018fc:	001080b3          	add	x1,x1,x1
    80001900:	f8209323          	sh	x2,-122(x1) # 40007f86 <_binary_lab3_test_bin_size+0x3ffdf452>
    80001904:	40008237          	lui	x4,0x40008
    80001908:	00420233          	add	x4,x4,x4
    8000190c:	f8621323          	sh	x6,-122(x4) # 40007f86 <_binary_lab3_test_bin_size+0x3ffdf452>
    80001910:	00009133          	sll	x2,x1,x0
    80001914:	dd46b197          	auipc	x3,0xdd46b
    80001918:	03a09197          	auipc	x3,0x3a09
    8000191c:	400081b7          	lui	x3,0x40008
    80001920:	003181b3          	add	x3,x3,x3
    80001924:	f831b423          	sd	x3,-120(x3) # 40007f88 <_binary_lab3_test_bin_size+0x3ffdf454>
    80001928:	b0489217          	auipc	x4,0xb0489
    8000192c:	4041d333          	sra	x6,x3,x4
    80001930:	d44110e3          	bne	x2,x4,80001670 <_binary_lab3_test_bin_start+0x1670>
    80001934:	d2410ee3          	beq	x2,x4,80001670 <_binary_lab3_test_bin_start+0x1670>
    80001938:	b1502097          	auipc	x1,0xb1502
    8000193c:	401350bb          	sraw	x1,x6,x1
    80001940:	400081b7          	lui	x3,0x40008
    80001944:	003181b3          	add	x3,x3,x3
    80001948:	f801b103          	ld	x2,-128(x3) # 40007f80 <_binary_lab3_test_bin_size+0x3ffdf44c>
    8000194c:	bbe08193          	addi	x3,x1,-1090 # 315034f6 <_binary_lab3_test_bin_size+0x314da9c2>
    80001950:	4151509b          	sraiw	x1,x2,0x15
    80001954:	001113b3          	sll	x7,x2,x1
    80001958:	4e8b50b7          	lui	x1,0x4e8b5
    8000195c:	003101b3          	add	x3,x2,x3
    80001960:	03d00113          	li	x2,61
    80001964:	40008137          	lui	x2,0x40008
    80001968:	00210133          	add	x2,x2,x2
    8000196c:	f8413423          	sd	x4,-120(x2) # 40007f88 <_binary_lab3_test_bin_size+0x3ffdf454>
    80001970:	ab90809b          	addiw	x1,x1,-1351 # 4e8b4ab9 <_binary_lab3_test_bin_size+0x4e88bf85>
    80001974:	26b49017          	auipc	x0,0x26b49
    80001978:	87f1b193          	sltiu	x3,x3,-1921
    8000197c:	0071b3b3          	sltu	x7,x3,x7
    80001980:	002192bb          	sllw	x5,x3,x2
    80001984:	35f1f013          	andi	x0,x3,863
    80001988:	401452b3          	sra	x5,x8,x1
    8000198c:	00112233          	slt	x4,x2,x1
    80001990:	fa29d197          	auipc	x3,0xfa29d
    80001994:	006190b3          	sll	x1,x3,x6
    80001998:	400081b7          	lui	x3,0x40008
    8000199c:	003181b3          	add	x3,x3,x3
    800019a0:	f8318103          	lb	x2,-125(x3) # 40007f83 <_binary_lab3_test_bin_size+0x3ffdf44f>
    800019a4:	002161b3          	or	x3,x2,x2
    800019a8:	8dd1c313          	xori	x6,x3,-1827
    800019ac:	0211d193          	srli	x3,x3,0x21
    800019b0:	a9a10193          	addi	x3,x2,-1382
    800019b4:	cd8ac1b7          	lui	x3,0xcd8ac
    800019b8:	00018293          	mv	x5,x3
    800019bc:	52328663          	beq	x5,x3,80001ee8 <_binary_lab3_test_bin_start+0x1ee8>
    800019c0:	00d3a1b3          	slt	x3,x7,x13
    800019c4:	a173011b          	addiw	x2,x6,-1513 # 351b91a3 <_binary_lab3_test_bin_size+0x3519066f>
    800019c8:	005160b3          	or	x1,x2,x5
    800019cc:	0020c2b3          	xor	x5,x1,x2
    800019d0:	4110d09b          	sraiw	x1,x1,0x11
    800019d4:	0024911b          	slliw	x2,x9,0x2
    800019d8:	00112133          	slt	x2,x2,x1
    800019dc:	0011c0b3          	xor	x1,x3,x1
    800019e0:	0061f133          	and	x2,x3,x6
    800019e4:	0073a333          	slt	x6,x7,x7
    800019e8:	a7fa1117          	auipc	x2,0xa7fa1
    800019ec:	a53e7137          	lui	x2,0xa53e7
    800019f0:	d1917137          	lui	x2,0xd1917
    800019f4:	400083b7          	lui	x7,0x40008
    800019f8:	007383b3          	add	x7,x7,x7
    800019fc:	f813b423          	sd	x1,-120(x7) # 40007f88 <_binary_lab3_test_bin_size+0x3ffdf454>
    80001a00:	400081b7          	lui	x3,0x40008
    80001a04:	003181b3          	add	x3,x3,x3
    80001a08:	f801a103          	lw	x2,-128(x3) # 40007f80 <_binary_lab3_test_bin_size+0x3ffdf44c>
    80001a0c:	02819093          	slli	x1,x3,0x28
    80001a10:	404151b3          	sra	x3,x2,x4
    80001a14:	c1ff2317          	auipc	x6,0xc1ff2
    80001a18:	8d4b5197          	auipc	x3,0x8d4b5
    80001a1c:	0010813b          	addw	x2,x1,x1
    80001a20:	0031913b          	sllw	x2,x3,x3
    80001a24:	41a0d19b          	sraiw	x3,x1,0x1a
    80001a28:	01319013          	slli	x0,x3,0x13
    80001a2c:	9a6741b7          	lui	x3,0x9a674
    80001a30:	00308133          	add	x2,x1,x3
    80001a34:	7f608793          	addi	x15,x1,2038
    80001a38:	0057013b          	addw	x2,x14,x5
    80001a3c:	932ec393          	xori	x7,x29,-1742
    80001a40:	1b51a213          	slti	x4,x3,437
    80001a44:	7129b137          	lui	x2,0x7129b
    80001a48:	0171941b          	slliw	x8,x3,0x17
    80001a4c:	97a1019b          	addiw	x3,x2,-1670 # 7129a97a <_binary_lab3_test_bin_size+0x71271e46>
    80001a50:	0020b1b3          	sltu	x3,x1,x2
    80001a54:	25918663          	beq	x3,x25,80001ca0 <_binary_lab3_test_bin_start+0x1ca0>
    80001a58:	248001ef          	jal	x3,80001ca0 <_binary_lab3_test_bin_start+0x1ca0>
    80001a5c:	0020c133          	xor	x2,x1,x2
    80001a60:	7b090237          	lui	x4,0x7b090
    80001a64:	0ac16093          	ori	x1,x2,172
    80001a68:	40008137          	lui	x2,0x40008
    80001a6c:	00210133          	add	x2,x2,x2
    80001a70:	f8612223          	sw	x6,-124(x2) # 40007f84 <_binary_lab3_test_bin_size+0x3ffdf450>
    80001a74:	4de8a197          	auipc	x3,0x4de8a
    80001a78:	4020d1b3          	sra	x3,x1,x2
    80001a7c:	00a19093          	slli	x1,x3,0xa
    80001a80:	400081b7          	lui	x3,0x40008
    80001a84:	003181b3          	add	x3,x3,x3
    80001a88:	f841e283          	lwu	x5,-124(x3) # 40007f84 <_binary_lab3_test_bin_size+0x3ffdf450>
    80001a8c:	01916097          	auipc	x1,0x1916
    80001a90:	526481b7          	lui	x3,0x52648
    80001a94:	40008137          	lui	x2,0x40008
    80001a98:	00210133          	add	x2,x2,x2
    80001a9c:	f8813303          	ld	x6,-120(x2) # 40007f88 <_binary_lab3_test_bin_size+0x3ffdf454>
    80001aa0:	0041509b          	srliw	x1,x2,0x4
    80001aa4:	00f1911b          	slliw	x2,x3,0xf
    80001aa8:	5e730093          	addi	x1,x6,1511 # 41ff3ffb <_binary_lab3_test_bin_size+0x41fcb4c7>
    80001aac:	40008137          	lui	x2,0x40008
    80001ab0:	00210133          	add	x2,x2,x2
    80001ab4:	f8813083          	ld	x1,-120(x2) # 40007f88 <_binary_lab3_test_bin_size+0x3ffdf454>
    80001ab8:	5e607113          	andi	x2,x0,1510
    80001abc:	66c0a093          	slti	x1,x1,1644
    80001ac0:	002140b3          	xor	x1,x2,x2
    80001ac4:	000111b3          	sll	x3,x2,x0
    80001ac8:	b1f37193          	andi	x3,x6,-1249
    80001acc:	4e0c6117          	auipc	x2,0x4e0c6
    80001ad0:	400081b7          	lui	x3,0x40008
    80001ad4:	003181b3          	add	x3,x3,x3
    80001ad8:	f881d103          	lhu	x2,-120(x3) # 40007f88 <_binary_lab3_test_bin_size+0x3ffdf454>
    80001adc:	a0212093          	slti	x1,x2,-1534
    80001ae0:	00d1509b          	srliw	x1,x2,0xd
    80001ae4:	28ad2117          	auipc	x2,0x28ad2
    80001ae8:	42c0d093          	srai	x1,x1,0x2c
    80001aec:	eb556197          	auipc	x3,0xeb556
    80001af0:	001294bb          	sllw	x9,x5,x1
    80001af4:	000f8193          	mv	x3,x31
    80001af8:	23f18c63          	beq	x3,x31,80001d30 <_binary_lab3_test_bin_start+0x1d30>
    80001afc:	0030d1b3          	srl	x3,x1,x3
    80001b00:	0010e0b3          	or	x1,x1,x1
    80001b04:	4030813b          	subw	x2,x1,x3
    80001b08:	46b39397          	auipc	x7,0x46b39
    80001b0c:	400080b7          	lui	x1,0x40008
    80001b10:	001080b3          	add	x1,x1,x1
    80001b14:	f830b023          	sd	x3,-128(x1) # 40007f80 <_binary_lab3_test_bin_size+0x3ffdf44c>
    80001b18:	001271b3          	and	x3,x4,x1
    80001b1c:	003384bb          	addw	x9,x7,x3
    80001b20:	70a33093          	sltiu	x1,x6,1802
    80001b24:	fe5851b7          	lui	x3,0xfe585
    80001b28:	4111531b          	sraiw	x6,x2,0x11
    80001b2c:	400085b7          	lui	x11,0x40008
    80001b30:	00b585b3          	add	x11,x11,x11
    80001b34:	f8e5d083          	lhu	x1,-114(x11) # 40007f8e <_binary_lab3_test_bin_size+0x3ffdf45a>
    80001b38:	003152bb          	srlw	x5,x2,x3
    80001b3c:	76b0d3b7          	lui	x7,0x76b0d
    80001b40:	4020509b          	sraiw	x1,x0,0x2
    80001b44:	000150b3          	srl	x1,x2,x0
    80001b48:	b0394d17          	auipc	x26,0xb0394
    80001b4c:	9c1ee197          	auipc	x3,0x9c1ee
    80001b50:	0140f193          	andi	x3,x1,20
    80001b54:	c2e38137          	lui	x2,0xc2e38
    80001b58:	2eaa1137          	lui	x2,0x2eaa1
    80001b5c:	b4d14213          	xori	x4,x2,-1203
    80001b60:	32df0097          	auipc	x1,0x32df0
    80001b64:	40068333          	sub	x6,x13,x0
    80001b68:	61bbb497          	auipc	x9,0x61bbb
    80001b6c:	40008337          	lui	x6,0x40008
    80001b70:	00630333          	add	x6,x6,x6
    80001b74:	f8630483          	lb	x9,-122(x6) # 40007f86 <_binary_lab3_test_bin_size+0x3ffdf452>
    80001b78:	00310133          	add	x2,x2,x3
    80001b7c:	2c42841b          	addiw	x8,x5,708
    80001b80:	c0d086e3          	beq	x1,x13,8000178c <_binary_lab3_test_bin_start+0x178c>
    80001b84:	c09ffc6f          	jal	x24,8000178c <_binary_lab3_test_bin_start+0x178c>
    80001b88:	64059097          	auipc	x1,0x64059
    80001b8c:	e960811b          	addiw	x2,x1,-362 # ffffffffe405aa1e <_binary_lab3_test_bin_end+0xffffffff64031eea>
    80001b90:	400081b7          	lui	x3,0x40008
    80001b94:	003181b3          	add	x3,x3,x3
    80001b98:	f861b423          	sd	x6,-120(x3) # 40007f88 <_binary_lab3_test_bin_size+0x3ffdf454>
    80001b9c:	00210233          	add	x4,x2,x2
    80001ba0:	00b1919b          	slliw	x3,x3,0xb
    80001ba4:	003090bb          	sllw	x1,x1,x3
    80001ba8:	0011b0b3          	sltu	x1,x3,x1
    80001bac:	400081b7          	lui	x3,0x40008
    80001bb0:	003181b3          	add	x3,x3,x3
    80001bb4:	f8818183          	lb	x3,-120(x3) # 40007f88 <_binary_lab3_test_bin_size+0x3ffdf454>
    80001bb8:	0021b1b3          	sltu	x3,x3,x2
    80001bbc:	0010f333          	and	x6,x1,x1
    80001bc0:	af8dd597          	auipc	x11,0xaf8dd
    80001bc4:	5191f013          	andi	x0,x3,1305
    80001bc8:	4140d19b          	sraiw	x3,x1,0x14
    80001bcc:	dbb82317          	auipc	x6,0xdbb82
    80001bd0:	40008837          	lui	x16,0x40008
    80001bd4:	01080833          	add	x16,x16,x16
    80001bd8:	f8183423          	sd	x1,-120(x16) # 40007f88 <_binary_lab3_test_bin_size+0x3ffdf454>
    80001bdc:	400081b7          	lui	x3,0x40008
    80001be0:	003181b3          	add	x3,x3,x3
    80001be4:	f801b103          	ld	x2,-128(x3) # 40007f80 <_binary_lab3_test_bin_size+0x3ffdf44c>
    80001be8:	00d3d313          	srli	x6,x7,0xd
    80001bec:	f8604197          	auipc	x3,0xf8604
    80001bf0:	3a6cb137          	lui	x2,0x3a6cb
    80001bf4:	40008137          	lui	x2,0x40008
    80001bf8:	00210133          	add	x2,x2,x2
    80001bfc:	f8013183          	ld	x3,-128(x2) # 40007f80 <_binary_lab3_test_bin_size+0x3ffdf44c>
    80001c00:	0011c1b3          	xor	x3,x3,x1
    80001c04:	01009013          	slli	x0,x1,0x10
    80001c08:	00008293          	mv	x5,x1
    80001c0c:	c8128ce3          	beq	x5,x1,800018a4 <_binary_lab3_test_bin_start+0x18a4>
    80001c10:	0021513b          	srlw	x2,x2,x2
    80001c14:	fac0e113          	ori	x2,x1,-84
    80001c18:	006190bb          	sllw	x1,x3,x6
    80001c1c:	40008337          	lui	x6,0x40008
    80001c20:	00630333          	add	x6,x6,x6
    80001c24:	f8230023          	sb	x2,-128(x6) # 40007f80 <_binary_lab3_test_bin_size+0x3ffdf44c>
    80001c28:	0061511b          	srliw	x2,x2,0x6
    80001c2c:	32895117          	auipc	x2,0x32895
    80001c30:	a82f1237          	lui	x4,0xa82f1
    80001c34:	400081b7          	lui	x3,0x40008
    80001c38:	003181b3          	add	x3,x3,x3
    80001c3c:	f80187a3          	sb	x0,-113(x3) # 40007f8f <_binary_lab3_test_bin_size+0x3ffdf45b>
    80001c40:	22eaf117          	auipc	x2,0x22eaf
    80001c44:	400087b7          	lui	x15,0x40008
    80001c48:	00f787b3          	add	x15,x15,x15
    80001c4c:	f817a623          	sw	x1,-116(x15) # 40007f8c <_binary_lab3_test_bin_size+0x3ffdf458>
    80001c50:	23d7f217          	auipc	x4,0x23d7f
    80001c54:	0130119b          	slliw	x3,x0,0x13
    80001c58:	7a9a21b7          	lui	x3,0x7a9a2
    80001c5c:	3c328013          	addi	x0,x5,963
    80001c60:	40008337          	lui	x6,0x40008
    80001c64:	00630333          	add	x6,x6,x6
    80001c68:	f8235183          	lhu	x3,-126(x6) # 40007f82 <_binary_lab3_test_bin_size+0x3ffdf44e>
    80001c6c:	28c7f1b7          	lui	x3,0x28c7f
    80001c70:	0010f1b3          	and	x3,x1,x1
    80001c74:	007181bb          	addw	x3,x3,x7
    80001c78:	0040101b          	slliw	x0,x0,0x4
    80001c7c:	00613133          	sltu	x2,x2,x6
    80001c80:	400081b7          	lui	x3,0x40008
    80001c84:	003181b3          	add	x3,x3,x3
    80001c88:	f881b083          	ld	x1,-120(x3) # 40007f88 <_binary_lab3_test_bin_size+0x3ffdf454>
    80001c8c:	00339133          	sll	x2,x7,x3
    80001c90:	65116093          	ori	x1,x2,1617
    80001c94:	a6737113          	andi	x2,x6,-1433
    80001c98:	ca21d0e3          	bge	x3,x2,80001938 <_binary_lab3_test_bin_start+0x1938>
    80001c9c:	c821cee3          	blt	x3,x2,80001938 <_binary_lab3_test_bin_start+0x1938>
    80001ca0:	0030d0bb          	srlw	x1,x1,x3
    80001ca4:	0690a593          	slti	x11,x1,105
    80001ca8:	d1f84197          	auipc	x3,0xd1f84
    80001cac:	400080b7          	lui	x1,0x40008
    80001cb0:	001080b3          	add	x1,x1,x1
    80001cb4:	f810a223          	sw	x1,-124(x1) # 40007f84 <_binary_lab3_test_bin_size+0x3ffdf450>
    80001cb8:	0161d193          	srli	x3,x3,0x16
    80001cbc:	001552bb          	srlw	x5,x10,x1
    80001cc0:	0030b1b3          	sltu	x3,x1,x3
    80001cc4:	002340b3          	xor	x1,x6,x2
    80001cc8:	1896b117          	auipc	x2,0x1896b
    80001ccc:	003095bb          	sllw	x11,x1,x3
    80001cd0:	a091801b          	addiw	x0,x3,-1527 # 51f856b1 <_binary_lab3_test_bin_size+0x51f5cb7d>
    80001cd4:	edb2f693          	andi	x13,x5,-293
    80001cd8:	003100b3          	add	x1,x2,x3
    80001cdc:	38fac113          	xori	x2,x21,911
    80001ce0:	003487b3          	add	x15,x9,x3
    80001ce4:	00a0e193          	ori	x3,x1,10
    80001ce8:	01621193          	slli	x3,x4,0x16
    80001cec:	400082b7          	lui	x5,0x40008
    80001cf0:	005282b3          	add	x5,x5,x5
    80001cf4:	f8428103          	lb	x2,-124(x5) # 40007f84 <_binary_lab3_test_bin_size+0x3ffdf450>
    80001cf8:	d2f1b113          	sltiu	x2,x3,-721
    80001cfc:	01b5929b          	slliw	x5,x11,0x1b
    80001d00:	d6713093          	sltiu	x1,x2,-665
    80001d04:	b6416013          	ori	x0,x2,-1180
    80001d08:	400080b7          	lui	x1,0x40008
    80001d0c:	001080b3          	add	x1,x1,x1
    80001d10:	f840da03          	lhu	x20,-124(x1) # 40007f84 <_binary_lab3_test_bin_size+0x3ffdf450>
    80001d14:	003153bb          	srlw	x7,x2,x3
    80001d18:	00b1b3b3          	sltu	x7,x3,x11
    80001d1c:	bdf800b7          	lui	x1,0xbdf80
    80001d20:	0071d193          	srli	x3,x3,0x7
    80001d24:	a4e1a393          	slti	x7,x3,-1458
    80001d28:	3e480e63          	beq	x16,x4,80002124 <_binary_lab3_test_bin_start+0x2124>
    80001d2c:	3f8000ef          	jal	80002124 <_binary_lab3_test_bin_start+0x2124>
    80001d30:	001153bb          	srlw	x7,x2,x1
    80001d34:	a4122137          	lui	x2,0xa4122
    80001d38:	4040823b          	subw	x4,x1,x4
    80001d3c:	5666e197          	auipc	x3,0x5666e
    80001d40:	4030833b          	subw	x6,x1,x3
    80001d44:	400080b7          	lui	x1,0x40008
    80001d48:	001080b3          	add	x1,x1,x1
    80001d4c:	f810b023          	sd	x1,-128(x1) # 40007f80 <_binary_lab3_test_bin_size+0x3ffdf44c>
    80001d50:	40b3d337          	lui	x6,0x40b3d
    80001d54:	cc50c113          	xori	x2,x1,-827
    80001d58:	34700093          	li	x1,839
    80001d5c:	5152f1b7          	lui	x3,0x5152f
    80001d60:	0011d1b3          	srl	x3,x3,x1
    80001d64:	402183bb          	subw	x7,x3,x2
    80001d68:	45016193          	ori	x3,x2,1104
    80001d6c:	00619133          	sll	x2,x3,x6
    80001d70:	8544a0b7          	lui	x1,0x8544a
    80001d74:	8b423093          	sltiu	x1,x4,-1868
    80001d78:	001191bb          	sllw	x3,x3,x1
    80001d7c:	00d50137          	lui	x2,0xd50
    80001d80:	4030813b          	subw	x2,x1,x3
    80001d84:	001181b3          	add	x3,x3,x1
    80001d88:	ca60f093          	andi	x1,x1,-858
    80001d8c:	162d6197          	auipc	x3,0x162d6
    80001d90:	0017b0b3          	sltu	x1,x15,x1
    80001d94:	0032f0b3          	and	x1,x5,x3
    80001d98:	406250bb          	sraw	x1,x4,x6
    80001d9c:	a886c097          	auipc	x1,0xa886c
    80001da0:	400080b7          	lui	x1,0x40008
    80001da4:	001080b3          	add	x1,x1,x1
    80001da8:	f830b423          	sd	x3,-120(x1) # 40007f88 <_binary_lab3_test_bin_size+0x3ffdf454>
    80001dac:	001340b3          	xor	x1,x6,x1
    80001db0:	4060d133          	sra	x2,x1,x6
    80001db4:	0062111b          	slliw	x2,x4,0x6
    80001db8:	01728017          	auipc	x0,0x1728
    80001dbc:	00008093          	mv	x1,x1
    80001dc0:	1a108863          	beq	x1,x1,80001f70 <_binary_lab3_test_bin_start+0x1f70>
    80001dc4:	0090509b          	srliw	x1,x0,0x9
    80001dc8:	00120033          	add	x0,x4,x1
    80001dcc:	40008137          	lui	x2,0x40008
    80001dd0:	00210133          	add	x2,x2,x2
    80001dd4:	f8b14103          	lbu	x2,-117(x2) # 40007f8b <_binary_lab3_test_bin_size+0x3ffdf457>
    80001dd8:	b48af2b7          	lui	x5,0xb48af
    80001ddc:	45693193          	sltiu	x3,x18,1110
    80001de0:	14e0811b          	addiw	x2,x1,334
    80001de4:	003130b3          	sltu	x1,x2,x3
    80001de8:	8190b193          	sltiu	x3,x1,-2023
    80001dec:	4f0e50b7          	lui	x1,0x4f0e5
    80001df0:	0041d133          	srl	x2,x3,x4
    80001df4:	abc14193          	xori	x3,x2,-1348
    80001df8:	83410137          	lui	x2,0x83410
    80001dfc:	00d0d1b3          	srl	x3,x1,x13
    80001e00:	0080d39b          	srliw	x7,x1,0x8
    80001e04:	00009333          	sll	x6,x1,x0
    80001e08:	40008137          	lui	x2,0x40008
    80001e0c:	00210133          	add	x2,x2,x2
    80001e10:	f8013083          	ld	x1,-128(x2) # 40007f80 <_binary_lab3_test_bin_size+0x3ffdf44c>
    80001e14:	0012903b          	sllw	x0,x5,x1
    80001e18:	16dff097          	auipc	x1,0x16dff
    80001e1c:	002350b3          	srl	x1,x6,x2
    80001e20:	40205133          	sra	x2,x0,x2
    80001e24:	0011f133          	and	x2,x3,x1
    80001e28:	402153b3          	sra	x7,x2,x2
    80001e2c:	00015033          	srl	x0,x2,x0
    80001e30:	00112133          	slt	x2,x2,x1
    80001e34:	00912133          	slt	x2,x2,x9
    80001e38:	400081b7          	lui	x3,0x40008
    80001e3c:	003181b3          	add	x3,x3,x3
    80001e40:	f831b423          	sd	x3,-120(x3) # 40007f88 <_binary_lab3_test_bin_size+0x3ffdf454>
    80001e44:	0011d13b          	srlw	x2,x3,x1
    80001e48:	0031c133          	xor	x2,x3,x3
    80001e4c:	348571b7          	lui	x3,0x34857
    80001e50:	d300b093          	sltiu	x1,x1,-720
    80001e54:	b2927113          	andi	x2,x4,-1239
    80001e58:	ca21d2e3          	bge	x3,x2,80001afc <_binary_lab3_test_bin_start+0x1afc>
    80001e5c:	ca21c0e3          	blt	x3,x2,80001afc <_binary_lab3_test_bin_start+0x1afc>
    80001e60:	400083b7          	lui	x7,0x40008
    80001e64:	007383b3          	add	x7,x7,x7
    80001e68:	f8339723          	sh	x3,-114(x7) # 40007f8e <_binary_lab3_test_bin_size+0x3ffdf45a>
    80001e6c:	404101b3          	sub	x3,x2,x4
    80001e70:	4001813b          	subw	x2,x3,x0
    80001e74:	4021013b          	subw	x2,x2,x2
    80001e78:	0010b1b3          	sltu	x3,x1,x1
    80001e7c:	4034533b          	sraw	x6,x8,x3
    80001e80:	40008137          	lui	x2,0x40008
    80001e84:	00210133          	add	x2,x2,x2
    80001e88:	f8511023          	sh	x5,-128(x2) # 40007f80 <_binary_lab3_test_bin_size+0x3ffdf44c>
    80001e8c:	400080b7          	lui	x1,0x40008
    80001e90:	001080b3          	add	x1,x1,x1
    80001e94:	f8109323          	sh	x1,-122(x1) # 40007f86 <_binary_lab3_test_bin_size+0x3ffdf452>
    80001e98:	40008237          	lui	x4,0x40008
    80001e9c:	00420233          	add	x4,x4,x4
    80001ea0:	f8123423          	sd	x1,-120(x4) # 40007f88 <_binary_lab3_test_bin_size+0x3ffdf454>
    80001ea4:	0090921b          	slliw	x4,x1,0x9
    80001ea8:	00618333          	add	x6,x3,x6
    80001eac:	834580b7          	lui	x1,0x83458
    80001eb0:	0120d09b          	srliw	x1,x1,0x12
    80001eb4:	867221b7          	lui	x3,0x86722
    80001eb8:	0033d0bb          	srlw	x1,x7,x3
    80001ebc:	b9a88117          	auipc	x2,0xb9a88
    80001ec0:	40008137          	lui	x2,0x40008
    80001ec4:	00210133          	add	x2,x2,x2
    80001ec8:	f8213023          	sd	x2,-128(x2) # 40007f80 <_binary_lab3_test_bin_size+0x3ffdf44c>
    80001ecc:	0020d0bb          	srlw	x1,x1,x2
    80001ed0:	00f151bb          	srlw	x3,x2,x15
    80001ed4:	400080b7          	lui	x1,0x40008
    80001ed8:	001080b3          	add	x1,x1,x1
    80001edc:	f880b183          	ld	x3,-120(x1) # 40007f88 <_binary_lab3_test_bin_size+0x3ffdf454>
    80001ee0:	827000e3          	beq	x0,x7,80001700 <_binary_lab3_test_bin_start+0x1700>
    80001ee4:	81dff36f          	jal	x6,80001700 <_binary_lab3_test_bin_start+0x1700>
    80001ee8:	42d1d113          	srai	x2,x3,0x2d
    80001eec:	0030d0bb          	srlw	x1,x1,x3
    80001ef0:	400081b7          	lui	x3,0x40008
    80001ef4:	003181b3          	add	x3,x3,x3
    80001ef8:	f8818183          	lb	x3,-120(x3) # 40007f88 <_binary_lab3_test_bin_size+0x3ffdf454>
    80001efc:	5ec12093          	slti	x1,x2,1516
    80001f00:	0032d133          	srl	x2,x5,x3
    80001f04:	3d012193          	slti	x3,x2,976
    80001f08:	f32f1097          	auipc	x1,0xf32f1
    80001f0c:	4bd6c313          	xori	x6,x13,1213
    80001f10:	9c1511b7          	lui	x3,0x9c151
    80001f14:	00610033          	add	x0,x2,x6
    80001f18:	40008137          	lui	x2,0x40008
    80001f1c:	00210133          	add	x2,x2,x2
    80001f20:	f8813183          	ld	x3,-120(x2) # 40007f88 <_binary_lab3_test_bin_size+0x3ffdf454>
    80001f24:	400080b7          	lui	x1,0x40008
    80001f28:	001080b3          	add	x1,x1,x1
    80001f2c:	f810c303          	lbu	x6,-127(x1) # 40007f81 <_binary_lab3_test_bin_size+0x3ffdf44d>
    80001f30:	b1a0f193          	andi	x3,x1,-1254
    80001f34:	c7d0809b          	addiw	x1,x1,-899
    80001f38:	bd80b193          	sltiu	x3,x1,-1064
    80001f3c:	a1017093          	andi	x1,x2,-1520
    80001f40:	0011d0b3          	srl	x1,x3,x1
    80001f44:	40008337          	lui	x6,0x40008
    80001f48:	00630333          	add	x6,x6,x6
    80001f4c:	f8033383          	ld	x7,-128(x6) # 40007f80 <_binary_lab3_test_bin_size+0x3ffdf44c>
    80001f50:	00306133          	or	x2,x0,x3
    80001f54:	400082b7          	lui	x5,0x40008
    80001f58:	005282b3          	add	x5,x5,x5
    80001f5c:	f882b103          	ld	x2,-120(x5) # 40007f88 <_binary_lab3_test_bin_size+0x3ffdf454>
    80001f60:	0061113b          	sllw	x2,x2,x6
    80001f64:	4efc7197          	auipc	x3,0x4efc7
    80001f68:	12310463          	beq	x2,x3,80002090 <_binary_lab3_test_bin_start+0x2090>
    80001f6c:	124000ef          	jal	80002090 <_binary_lab3_test_bin_start+0x2090>
    80001f70:	02401193          	slli	x3,x0,0x24
    80001f74:	40318133          	sub	x2,x3,x3
    80001f78:	40008137          	lui	x2,0x40008
    80001f7c:	00210133          	add	x2,x2,x2
    80001f80:	f8412083          	lw	x1,-124(x2) # 40007f84 <_binary_lab3_test_bin_size+0x3ffdf450>
    80001f84:	1fa12193          	slti	x3,x2,506
    80001f88:	9cac5097          	auipc	x1,0x9cac5
    80001f8c:	0090e133          	or	x2,x1,x9
    80001f90:	0022b0b3          	sltu	x1,x5,x2
    80001f94:	df548113          	addi	x2,x9,-523 # e1bbc95d <_binary_lab3_test_bin_end+0x61b93e29>
    80001f98:	0031c033          	xor	x0,x3,x3
    80001f9c:	0022d0b3          	srl	x1,x5,x2
    80001fa0:	85013193          	sltiu	x3,x2,-1968
    80001fa4:	002050b3          	srl	x1,x0,x2
    80001fa8:	4038d133          	sra	x2,x17,x3
    80001fac:	400081b7          	lui	x3,0x40008
    80001fb0:	003181b3          	add	x3,x3,x3
    80001fb4:	f801b383          	ld	x7,-128(x3) # 40007f80 <_binary_lab3_test_bin_size+0x3ffdf44c>
    80001fb8:	40215133          	sra	x2,x2,x2
    80001fbc:	003181b3          	add	x3,x3,x3
    80001fc0:	e0a0b313          	sltiu	x6,x1,-502
    80001fc4:	c2868237          	lui	x4,0xc2868
    80001fc8:	0d13a1b7          	lui	x3,0xd13a
    80001fcc:	39b30093          	addi	x1,x6,923
    80001fd0:	24116213          	ori	x4,x2,577
    80001fd4:	41e0d13b          	sraw	x2,x1,x30
    80001fd8:	37cb6113          	ori	x2,x22,892
    80001fdc:	003181bb          	addw	x3,x3,x3
    80001fe0:	fdaff193          	andi	x3,x31,-38
    80001fe4:	0030d3bb          	srlw	x7,x1,x3
    80001fe8:	0068e233          	or	x4,x17,x6
    80001fec:	0071833b          	addw	x6,x3,x7
    80001ff0:	4061d1b3          	sra	x3,x3,x6
    80001ff4:	4011d1bb          	sraw	x3,x3,x1
    80001ff8:	0011509b          	srliw	x1,x2,0x1
    80001ffc:	6e017113          	andi	x2,x2,1760
    80002000:	0480c113          	xori	x2,x1,72
    80002004:	823190e3          	bne	x3,x3,80001824 <_binary_lab3_test_bin_start+0x1824>
    80002008:	80318ee3          	beq	x3,x3,80001824 <_binary_lab3_test_bin_start+0x1824>
    8000200c:	a30ef0b7          	lui	x1,0xa30ef
    80002010:	0c31a397          	auipc	x7,0xc31a
    80002014:	00332033          	slt	x0,x6,x3
    80002018:	64c1c197          	auipc	x3,0x64c1c
    8000201c:	00319133          	sll	x2,x3,x3
    80002020:	400080b7          	lui	x1,0x40008
    80002024:	001080b3          	add	x1,x1,x1
    80002028:	f820b023          	sd	x2,-128(x1) # 40007f80 <_binary_lab3_test_bin_size+0x3ffdf44c>
    8000202c:	b9528037          	lui	x0,0xb9528
    80002030:	04061197          	auipc	x3,0x4061
    80002034:	10a20197          	auipc	x3,0x10a20
    80002038:	efa3e093          	ori	x1,x7,-262
    8000203c:	afe0d197          	auipc	x3,0xafe0d
    80002040:	0072b333          	sltu	x6,x5,x7
    80002044:	005161b3          	or	x3,x2,x5
    80002048:	0081119b          	slliw	x3,x2,0x8
    8000204c:	f333e337          	lui	x6,0xf333e
    80002050:	006153bb          	srlw	x7,x2,x6
    80002054:	4e27e317          	auipc	x6,0x4e27e
    80002058:	00718333          	add	x6,x3,x7
    8000205c:	0071913b          	sllw	x2,x3,x7
    80002060:	001082bb          	addw	x5,x1,x1
    80002064:	400080b7          	lui	x1,0x40008
    80002068:	001080b3          	add	x1,x1,x1
    8000206c:	f8e09083          	lh	x1,-114(x1) # 40007f8e <_binary_lab3_test_bin_size+0x3ffdf45a>
    80002070:	0111119b          	slliw	x3,x2,0x11
    80002074:	002200bb          	addw	x1,x4,x2
    80002078:	400081b7          	lui	x3,0x40008
    8000207c:	003181b3          	add	x3,x3,x3
    80002080:	f8618223          	sb	x6,-124(x3) # 40007f84 <_binary_lab3_test_bin_size+0x3ffdf450>
    80002084:	da917193          	andi	x3,x2,-599
    80002088:	b83204e3          	beq	x4,x3,80001c10 <_binary_lab3_test_bin_start+0x1c10>
    8000208c:	b85ff1ef          	jal	x3,80001c10 <_binary_lab3_test_bin_start+0x1c10>
    80002090:	40008237          	lui	x4,0x40008
    80002094:	00420233          	add	x4,x4,x4
    80002098:	f8426003          	lwu	x0,-124(x4) # 40007f84 <_binary_lab3_test_bin_size+0x3ffdf450>
    8000209c:	cf5d21b7          	lui	x3,0xcf5d2
    800020a0:	418101bb          	subw	x3,x2,x24
    800020a4:	18b600b7          	lui	x1,0x18b60
    800020a8:	00011113          	slli	x2,x2,0x0
    800020ac:	001330b3          	sltu	x1,x6,x1
    800020b0:	623be0b7          	lui	x1,0x623be
    800020b4:	0020d23b          	srlw	x4,x1,x2
    800020b8:	b5a0811b          	addiw	x2,x1,-1190 # 623bdb5a <_binary_lab3_test_bin_size+0x62395026>
    800020bc:	b284a093          	slti	x1,x9,-1240
    800020c0:	400084b7          	lui	x9,0x40008
    800020c4:	009484b3          	add	x9,x9,x9
    800020c8:	f8e4d183          	lhu	x3,-114(x9) # 40007f8e <_binary_lab3_test_bin_size+0x3ffdf45a>
    800020cc:	4831a093          	slti	x1,x3,1155
    800020d0:	57c65537          	lui	x10,0x57c65
    800020d4:	b3e7d397          	auipc	x7,0xb3e7d
    800020d8:	40008137          	lui	x2,0x40008
    800020dc:	00210133          	add	x2,x2,x2
    800020e0:	f8e10183          	lb	x3,-114(x2) # 40007f8e <_binary_lab3_test_bin_size+0x3ffdf45a>
    800020e4:	0182d113          	srli	x2,x5,0x18
    800020e8:	001221b3          	slt	x3,x4,x1
    800020ec:	002161b3          	or	x3,x2,x2
    800020f0:	003300b3          	add	x1,x6,x3
    800020f4:	4a0b10b7          	lui	x1,0x4a0b1
    800020f8:	40315033          	sra	x0,x2,x3
    800020fc:	06f2819b          	addiw	x3,x5,111
    80002100:	4060d31b          	sraiw	x6,x1,0x6
    80002104:	402003bb          	negw	x7,x2
    80002108:	0051d033          	srl	x0,x3,x5
    8000210c:	be43829b          	addiw	x5,x7,-1052 # 33e7ecb8 <_binary_lab3_test_bin_size+0x33e56184>
    80002110:	0a81021b          	addiw	x4,x2,168
    80002114:	37412113          	slti	x2,x2,884
    80002118:	00d1f2b3          	and	x5,x3,x13
    8000211c:	ca0194e3          	bnez	x3,80001dc4 <_binary_lab3_test_bin_start+0x1dc4>
    80002120:	ca0182e3          	beqz	x3,80001dc4 <_binary_lab3_test_bin_start+0x1dc4>
    80002124:	00a2909b          	slliw	x1,x5,0xa
    80002128:	c791f113          	andi	x2,x3,-903
    8000212c:	001150b3          	srl	x1,x2,x1
    80002130:	35fe0597          	auipc	x11,0x35fe0
    80002134:	0120911b          	slliw	x2,x1,0x12
    80002138:	201bb893          	sltiu	x17,x23,513
    8000213c:	1b83e193          	ori	x3,x7,440
    80002140:	77624213          	xori	x4,x4,1910
    80002144:	0345b397          	auipc	x7,0x345b
    80002148:	2d282037          	lui	x0,0x2d282
    8000214c:	0020111b          	slliw	x2,x0,0x2
    80002150:	67b1f193          	andi	x3,x3,1659
    80002154:	400081b7          	lui	x3,0x40008
    80002158:	003181b3          	add	x3,x3,x3
    8000215c:	f881b383          	ld	x7,-120(x3) # 40007f88 <_binary_lab3_test_bin_size+0x3ffdf454>
    80002160:	0032c0b3          	xor	x1,x5,x3
    80002164:	00317033          	and	x0,x2,x3
    80002168:	e700801b          	addiw	x0,x1,-400 # 4a0b0e70 <_binary_lab3_test_bin_size+0x4a08833c>
    8000216c:	400081b7          	lui	x3,0x40008
    80002170:	003181b3          	add	x3,x3,x3
    80002174:	f8418103          	lb	x2,-124(x3) # 40007f84 <_binary_lab3_test_bin_size+0x3ffdf450>
    80002178:	7a293197          	auipc	x3,0x7a293
    8000217c:	4032023b          	subw	x4,x4,x3
    80002180:	21f21117          	auipc	x2,0x21f21
    80002184:	0111911b          	slliw	x2,x3,0x11
    80002188:	401303b3          	sub	x7,x6,x1
    8000218c:	0020b333          	sltu	x6,x1,x2
    80002190:	02021193          	slli	x3,x4,0x20
    80002194:	316270b7          	lui	x1,0x31627
    80002198:	00008193          	mv	x3,x1
    8000219c:	e61188e3          	beq	x3,x1,8000200c <_binary_lab3_test_bin_start+0x200c>
    800021a0:	57394137          	lui	x2,0x57394
    800021a4:	e701f213          	andi	x4,x3,-400
    800021a8:	51e3b093          	sltiu	x1,x7,1310
    800021ac:	003050b3          	srl	x1,x0,x3
    800021b0:	403182bb          	subw	x5,x3,x3
    800021b4:	5e51f093          	andi	x1,x3,1509
    800021b8:	7c91b993          	sltiu	x19,x3,1993
    800021bc:	003181bb          	addw	x3,x3,x3
    800021c0:	40008137          	lui	x2,0x40008
    800021c4:	00210133          	add	x2,x2,x2
    800021c8:	f8113423          	sd	x1,-120(x2) # 40007f88 <_binary_lab3_test_bin_size+0x3ffdf454>
    800021cc:	0092d113          	srli	x2,x5,0x9
    800021d0:	003c81bb          	addw	x3,x25,x3
    800021d4:	400080b7          	lui	x1,0x40008
    800021d8:	001080b3          	add	x1,x1,x1
    800021dc:	f820b423          	sd	x2,-120(x1) # 40007f88 <_binary_lab3_test_bin_size+0x3ffdf454>
    800021e0:	9fe16193          	ori	x3,x2,-1538
    800021e4:	0859e137          	lui	x2,0x859e
    800021e8:	02209093          	slli	x1,x1,0x22
    800021ec:	6ab23093          	sltiu	x1,x4,1707
    800021f0:	00216333          	or	x6,x2,x2
    800021f4:	4307d213          	srai	x4,x15,0x30
    800021f8:	4002d133          	sra	x2,x5,x0
    800021fc:	00317133          	and	x2,x2,x3
    80002200:	001190bb          	sllw	x1,x3,x1
    80002204:	00c1909b          	slliw	x1,x3,0xc
    80002208:	0303d093          	srli	x1,x7,0x30
    8000220c:	a0582317          	auipc	x6,0xa0582
    80002210:	bb40001b          	addiw	x0,x0,-1100
    80002214:	78c421b7          	lui	x3,0x78c42
    80002218:	40520033          	sub	x0,x4,x5
    8000221c:	0020123b          	sllw	x4,x0,x2
    80002220:	0010d29b          	srliw	x5,x1,0x1
    80002224:	43a0d013          	srai	x0,x1,0x3a
    80002228:	00110d3b          	addw	x26,x2,x1
    8000222c:	00068393          	mv	x7,x13
    80002230:	46d38463          	beq	x7,x13,80002698 <_binary_lab3_test_bin_start+0x2698>
    80002234:	00c1939b          	slliw	x7,x3,0xc
    80002238:	bd5f2117          	auipc	x2,0xbd5f2
    8000223c:	b6418093          	addi	x1,x3,-1180 # 78c41b64 <_binary_lab3_test_bin_size+0x78c19030>
    80002240:	3f280037          	lui	x0,0x3f280
    80002244:	f290b113          	sltiu	x2,x1,-215
    80002248:	001080b3          	add	x1,x1,x1
    8000224c:	ff48e1b7          	lui	x3,0xff48e
    80002250:	b3567317          	auipc	x6,0xb3567
    80002254:	16317013          	andi	x0,x2,355
    80002258:	f6ed9137          	lui	x2,0xf6ed9
    8000225c:	001210b3          	sll	x1,x4,x1
    80002260:	5f069137          	lui	x2,0x5f069
    80002264:	4011d133          	sra	x2,x3,x1
    80002268:	400081b7          	lui	x3,0x40008
    8000226c:	003181b3          	add	x3,x3,x3
    80002270:	f801b183          	ld	x3,-128(x3) # 40007f80 <_binary_lab3_test_bin_size+0x3ffdf44c>
    80002274:	0021f833          	and	x16,x3,x2
    80002278:	00d351bb          	srlw	x3,x6,x13
    8000227c:	4161d0b3          	sra	x1,x3,x22
    80002280:	3d4cc197          	auipc	x3,0x3d4cc
    80002284:	2ff78213          	addi	x4,x15,767
    80002288:	0011e1b3          	or	x3,x3,x1
    8000228c:	5b39d317          	auipc	x6,0x5b39d
    80002290:	400080b7          	lui	x1,0x40008
    80002294:	001080b3          	add	x1,x1,x1
    80002298:	f880b203          	ld	x4,-120(x1) # 40007f88 <_binary_lab3_test_bin_size+0x3ffdf454>
    8000229c:	40008137          	lui	x2,0x40008
    800022a0:	00210133          	add	x2,x2,x2
    800022a4:	f8513023          	sd	x5,-128(x2) # 40007f80 <_binary_lab3_test_bin_size+0x3ffdf44c>
    800022a8:	9e518493          	addi	x9,x3,-1563 # bd4cdc65 <_binary_lab3_test_bin_end+0x3d4a5131>
    800022ac:	000130b3          	sltu	x1,x2,x0
    800022b0:	5a20f863          	bgeu	x1,x2,80002860 <_binary_lab3_test_bin_start+0x2860>
    800022b4:	5a20e663          	bltu	x1,x2,80002860 <_binary_lab3_test_bin_start+0x2860>
    800022b8:	e5d13093          	sltiu	x1,x2,-419
    800022bc:	001101bb          	addw	x3,x2,x1
    800022c0:	7020b113          	sltiu	x2,x1,1794
    800022c4:	0011113b          	sllw	x2,x2,x1
    800022c8:	0011b133          	sltu	x2,x3,x1
    800022cc:	01d1919b          	slliw	x3,x3,0x1d
    800022d0:	737e3937          	lui	x18,0x737e3
    800022d4:	8a437093          	andi	x1,x6,-1884
    800022d8:	8049b397          	auipc	x7,0x8049b
    800022dc:	cc02c037          	lui	x0,0xcc02c
    800022e0:	40008137          	lui	x2,0x40008
    800022e4:	00210133          	add	x2,x2,x2
    800022e8:	f8c15083          	lhu	x1,-116(x2) # 40007f8c <_binary_lab3_test_bin_size+0x3ffdf458>
    800022ec:	001090bb          	sllw	x1,x1,x1
    800022f0:	590c4137          	lui	x2,0x590c4
    800022f4:	17967097          	auipc	x1,0x17967
    800022f8:	40134093          	xori	x1,x6,1025
    800022fc:	0030f133          	and	x2,x1,x3
    80002300:	400082b7          	lui	x5,0x40008
    80002304:	005282b3          	add	x5,x5,x5
    80002308:	f932b423          	sd	x19,-120(x5) # 40007f88 <_binary_lab3_test_bin_size+0x3ffdf454>
    8000230c:	ac118693          	addi	x13,x3,-1343
    80002310:	0011153b          	sllw	x10,x2,x1
    80002314:	40008237          	lui	x4,0x40008
    80002318:	00420233          	add	x4,x4,x4
    8000231c:	f8823183          	ld	x3,-120(x4) # 40007f88 <_binary_lab3_test_bin_size+0x3ffdf454>
    80002320:	7501869b          	addiw	x13,x3,1872
    80002324:	4021d1b3          	sra	x3,x3,x2
    80002328:	0011f1b3          	and	x3,x3,x1
    8000232c:	00219133          	sll	x2,x3,x2
    80002330:	f020d2e3          	bge	x1,x2,80002234 <_binary_lab3_test_bin_start+0x2234>
    80002334:	f020c0e3          	blt	x1,x2,80002234 <_binary_lab3_test_bin_start+0x2234>
    80002338:	766f0117          	auipc	x2,0x766f0
    8000233c:	40208233          	sub	x4,x1,x2
    80002340:	df7b9097          	auipc	x1,0xdf7b9
    80002344:	002281bb          	addw	x3,x5,x2
    80002348:	d1383037          	lui	x0,0xd1383
    8000234c:	7bc64217          	auipc	x4,0x7bc64
    80002350:	78018213          	addi	x4,x3,1920
    80002354:	0030933b          	sllw	x6,x1,x3
    80002358:	0041549b          	srliw	x9,x2,0x4
    8000235c:	000367b3          	or	x15,x6,x0
    80002360:	401054b3          	sra	x9,x0,x1
    80002364:	0063111b          	slliw	x2,x6,0x6
    80002368:	f4c0c093          	xori	x1,x1,-180
    8000236c:	5572c213          	xori	x4,x5,1367
    80002370:	00113033          	sltu	x0,x2,x1
    80002374:	03601193          	slli	x3,x0,0x36
    80002378:	ca83829b          	addiw	x5,x7,-856 # 49cf80 <_binary_lab3_test_bin_size+0x47444c>
    8000237c:	4ca1f193          	andi	x3,x3,1226
    80002380:	8257a197          	auipc	x3,0x8257a
    80002384:	17416093          	ori	x1,x2,372
    80002388:	276ca0b7          	lui	x1,0x276ca
    8000238c:	00e25013          	srli	x0,x4,0xe
    80002390:	54b6a017          	auipc	x0,0x54b6a
    80002394:	f4a0f093          	andi	x1,x1,-182
    80002398:	1ee9c097          	auipc	x1,0x1ee9c
    8000239c:	1498b117          	auipc	x2,0x1498b
    800023a0:	42615293          	srai	x5,x2,0x26
    800023a4:	3c032297          	auipc	x5,0x3c032
    800023a8:	f7ef0097          	auipc	x1,0xf7ef0
    800023ac:	51b60197          	auipc	x3,0x51b60
    800023b0:	3ae42117          	auipc	x2,0x3ae42
    800023b4:	0240d093          	srli	x1,x1,0x24
    800023b8:	0020c1b3          	xor	x3,x1,x2
    800023bc:	75e1819b          	addiw	x3,x3,1886 # ffffffffd1b62b0a <_binary_lab3_test_bin_end+0xffffffff51b39fd6>
    800023c0:	40318033          	sub	x0,x3,x3
    800023c4:	0000d1b3          	srl	x3,x1,x0
    800023c8:	3e13fe63          	bgeu	x7,x1,800027c4 <_binary_lab3_test_bin_start+0x27c4>
    800023cc:	3e13ec63          	bltu	x7,x1,800027c4 <_binary_lab3_test_bin_start+0x27c4>
    800023d0:	402181bb          	subw	x3,x3,x2
    800023d4:	0021a4b3          	slt	x9,x3,x2
    800023d8:	00f111b3          	sll	x3,x2,x15
    800023dc:	40835193          	srai	x3,x6,0x8
    800023e0:	40008137          	lui	x2,0x40008
    800023e4:	00210133          	add	x2,x2,x2
    800023e8:	f8813083          	ld	x1,-120(x2) # 40007f88 <_binary_lab3_test_bin_size+0x3ffdf454>
    800023ec:	c1a1e193          	ori	x3,x3,-998
    800023f0:	c3ceb0b7          	lui	x1,0xc3ceb
    800023f4:	001090bb          	sllw	x1,x1,x1
    800023f8:	43b25113          	srai	x2,x4,0x3b
    800023fc:	4019013b          	subw	x2,x18,x1
    80002400:	0020d1bb          	srlw	x3,x1,x2
    80002404:	59310f13          	addi	x30,x2,1427
    80002408:	0031f0b3          	and	x1,x3,x3
    8000240c:	8961b113          	sltiu	x2,x3,-1898
    80002410:	40008137          	lui	x2,0x40008
    80002414:	00210133          	add	x2,x2,x2
    80002418:	f8d13023          	sd	x13,-128(x2) # 40007f80 <_binary_lab3_test_bin_size+0x3ffdf44c>
    8000241c:	8614c4b7          	lui	x9,0x8614c
    80002420:	400081b7          	lui	x3,0x40008
    80002424:	003181b3          	add	x3,x3,x3
    80002428:	f881b083          	ld	x1,-120(x3) # 40007f88 <_binary_lab3_test_bin_size+0x3ffdf454>
    8000242c:	6ee16093          	ori	x1,x2,1774
    80002430:	00115133          	srl	x2,x2,x1
    80002434:	0011d0b3          	srl	x1,x3,x1
    80002438:	4071d133          	sra	x2,x3,x7
    8000243c:	400083b7          	lui	x7,0x40008
    80002440:	007383b3          	add	x7,x7,x7
    80002444:	f803b083          	ld	x1,-128(x7) # 40007f80 <_binary_lab3_test_bin_size+0x3ffdf44c>
    80002448:	7f81f213          	andi	x4,x3,2040
    8000244c:	0415c537          	lui	x10,0x415c
    80002450:	78110e63          	beq	x2,x1,80002bec <_binary_lab3_test_bin_start+0x2bec>
    80002454:	7980036f          	jal	x6,80002bec <_binary_lab3_test_bin_start+0x2bec>
    80002458:	00cb919b          	slliw	x3,x23,0xc
    8000245c:	403150b3          	sra	x1,x2,x3
    80002460:	40008237          	lui	x4,0x40008
    80002464:	00420233          	add	x4,x4,x4
    80002468:	f8022023          	sw	x0,-128(x4) # 40007f80 <_binary_lab3_test_bin_size+0x3ffdf44c>
    8000246c:	403780b3          	sub	x1,x15,x3
    80002470:	d189c117          	auipc	x2,0xd189c
    80002474:	01d3909b          	slliw	x1,x7,0x1d
    80002478:	38c813b7          	lui	x7,0x38c81
    8000247c:	001181bb          	addw	x3,x3,x1
    80002480:	f771009b          	addiw	x1,x2,-137 # 5189e3e7 <_binary_lab3_test_bin_size+0x518758b3>
    80002484:	003153b3          	srl	x7,x2,x3
    80002488:	0043c0b3          	xor	x1,x7,x4
    8000248c:	00519233          	sll	x4,x3,x5
    80002490:	9e648117          	auipc	x2,0x9e648
    80002494:	c6dd4597          	auipc	x11,0xc6dd4
    80002498:	00315133          	srl	x2,x2,x3
    8000249c:	0031911b          	slliw	x2,x3,0x3
    800024a0:	40b1df9b          	sraiw	x31,x3,0xb
    800024a4:	6d223393          	sltiu	x7,x4,1746
    800024a8:	400082b7          	lui	x5,0x40008
    800024ac:	005282b3          	add	x5,x5,x5
    800024b0:	f8328223          	sb	x3,-124(x5) # 40007f84 <_binary_lab3_test_bin_size+0x3ffdf450>
    800024b4:	002791bb          	sllw	x3,x15,x2
    800024b8:	40008137          	lui	x2,0x40008
    800024bc:	00210133          	add	x2,x2,x2
    800024c0:	f8012303          	lw	x6,-128(x2) # 40007f80 <_binary_lab3_test_bin_size+0x3ffdf44c>
    800024c4:	42d15013          	srai	x0,x2,0x2d
    800024c8:	9b10e093          	ori	x1,x1,-1615
    800024cc:	0031911b          	slliw	x2,x3,0x3
    800024d0:	0020c333          	xor	x6,x1,x2
    800024d4:	01f0b233          	sltu	x4,x1,x31
    800024d8:	2820c093          	xori	x1,x1,642
    800024dc:	00018313          	mv	x6,x3
    800024e0:	54330a63          	beq	x6,x3,80002a34 <_binary_lab3_test_bin_start+0x2a34>
    800024e4:	b110f093          	andi	x1,x1,-1263
    800024e8:	be93a3b7          	lui	x7,0xbe93a
    800024ec:	4481831b          	addiw	x6,x3,1096
    800024f0:	40008337          	lui	x6,0x40008
    800024f4:	00630333          	add	x6,x6,x6
    800024f8:	f8332423          	sw	x3,-120(x6) # 40007f88 <_binary_lab3_test_bin_size+0x3ffdf454>
    800024fc:	000160b3          	or	x1,x2,x0
    80002500:	03c2d193          	srli	x3,x5,0x3c
    80002504:	40008237          	lui	x4,0x40008
    80002508:	00420233          	add	x4,x4,x4
    8000250c:	f8123023          	sd	x1,-128(x4) # 40007f80 <_binary_lab3_test_bin_size+0x3ffdf44c>
    80002510:	880651b7          	lui	x3,0x88065
    80002514:	b850f193          	andi	x3,x1,-1147
    80002518:	0080109b          	slliw	x1,x0,0x8
    8000251c:	002350b3          	srl	x1,x6,x2
    80002520:	03119393          	slli	x7,x3,0x31
    80002524:	1a213193          	sltiu	x3,x2,418
    80002528:	21e12213          	slti	x4,x2,542
    8000252c:	6f1c01b7          	lui	x3,0x6f1c0
    80002530:	07b73a17          	auipc	x20,0x7b73
    80002534:	0fe3e113          	ori	x2,x7,254
    80002538:	007241b3          	xor	x3,x4,x7
    8000253c:	789f1197          	auipc	x3,0x789f1
    80002540:	001121b3          	slt	x3,x2,x1
    80002544:	a9d1e113          	ori	x2,x3,-1379
    80002548:	4070d133          	sra	x2,x1,x7
    8000254c:	4362e1b7          	lui	x3,0x4362e
    80002550:	400082b7          	lui	x5,0x40008
    80002554:	005282b3          	add	x5,x5,x5
    80002558:	f802b083          	ld	x1,-128(x5) # 40007f80 <_binary_lab3_test_bin_size+0x3ffdf44c>
    8000255c:	002190b3          	sll	x1,x3,x2
    80002560:	05708113          	addi	x2,x1,87 # ffffffffc3ceb057 <_binary_lab3_test_bin_end+0xffffffff43cc2523>
    80002564:	000272b3          	and	x5,x4,x0
    80002568:	0013a133          	slt	x2,x7,x1
    8000256c:	3ee4a197          	auipc	x3,0x3ee4a
    80002570:	0013063b          	addw	x12,x6,x1
    80002574:	0071d29b          	srliw	x5,x3,0x7
    80002578:	4000813b          	subw	x2,x1,x0
    8000257c:	01e0d09b          	srliw	x1,x1,0x1e
    80002580:	e67a8317          	auipc	x6,0xe67a8
    80002584:	00000097          	auipc	x1,0x0
    80002588:	db408167          	jalr	x2,-588(x1) # 80002338 <_binary_lab3_test_bin_start+0x2338>
    8000258c:	de11a093          	slti	x1,x3,-543
    80002590:	00317133          	and	x2,x2,x3
    80002594:	00111133          	sll	x2,x2,x1
    80002598:	406080b3          	sub	x1,x1,x6
    8000259c:	03719013          	slli	x0,x3,0x37
    800025a0:	9bff011b          	addiw	x2,x30,-1601
    800025a4:	6a39d197          	auipc	x3,0x6a39d
    800025a8:	00010133          	add	x2,x2,x0
    800025ac:	00010133          	add	x2,x2,x0
    800025b0:	402150b3          	sra	x1,x2,x2
    800025b4:	0011b133          	sltu	x2,x3,x1
    800025b8:	01f0121b          	slliw	x4,x0,0x1f
    800025bc:	400081b7          	lui	x3,0x40008
    800025c0:	003181b3          	add	x3,x3,x3
    800025c4:	f8c1d303          	lhu	x6,-116(x3) # 40007f8c <_binary_lab3_test_bin_size+0x3ffdf458>
    800025c8:	9481a313          	slti	x6,x3,-1720
    800025cc:	40008337          	lui	x6,0x40008
    800025d0:	00630333          	add	x6,x6,x6
    800025d4:	f8b31023          	sh	x11,-128(x6) # 40007f80 <_binary_lab3_test_bin_size+0x3ffdf44c>
    800025d8:	400080b7          	lui	x1,0x40008
    800025dc:	001080b3          	add	x1,x1,x1
    800025e0:	f880b583          	ld	x11,-120(x1) # 40007f88 <_binary_lab3_test_bin_size+0x3ffdf454>
    800025e4:	0102911b          	slliw	x2,x5,0x10
    800025e8:	00417133          	and	x2,x2,x4
    800025ec:	40008337          	lui	x6,0x40008
    800025f0:	00630333          	add	x6,x6,x6
    800025f4:	f8130023          	sb	x1,-128(x6) # 40007f80 <_binary_lab3_test_bin_size+0x3ffdf44c>
    800025f8:	0021813b          	addw	x2,x3,x2
    800025fc:	009911bb          	sllw	x3,x18,x9
    80002600:	36517113          	andi	x2,x2,869
    80002604:	00a19093          	slli	x1,x3,0xa
    80002608:	403083b3          	sub	x7,x1,x3
    8000260c:	7bf1f193          	andi	x3,x3,1983
    80002610:	9871809b          	addiw	x1,x3,-1657
    80002614:	00000117          	auipc	x2,0x0
    80002618:	ca4101e7          	jalr	x3,-860(x2) # 800022b8 <_binary_lab3_test_bin_start+0x22b8>
    8000261c:	0f31819b          	addiw	x3,x3,243
    80002620:	2a60d0b7          	lui	x1,0x2a60d
    80002624:	c00fe337          	lui	x6,0xc00fe
    80002628:	0010d23b          	srlw	x4,x1,x1
    8000262c:	f55d3137          	lui	x2,0xf55d3
    80002630:	0091119b          	slliw	x3,x2,0x9
    80002634:	914c6117          	auipc	x2,0x914c6
    80002638:	37b0a193          	slti	x3,x1,891
    8000263c:	a5253197          	auipc	x3,0xa5253
    80002640:	e150e113          	ori	x2,x1,-491
    80002644:	6e00f193          	andi	x3,x1,1760
    80002648:	001082bb          	addw	x5,x1,x1
    8000264c:	0011f0b3          	and	x1,x3,x1
    80002650:	0021b233          	sltu	x4,x3,x2
    80002654:	74cc41b7          	lui	x3,0x74cc4
    80002658:	0170d19b          	srliw	x3,x1,0x17
    8000265c:	400080b7          	lui	x1,0x40008
    80002660:	001080b3          	add	x1,x1,x1
    80002664:	f820b423          	sd	x2,-120(x1) # 40007f88 <_binary_lab3_test_bin_size+0x3ffdf454>
    80002668:	6410c113          	xori	x2,x1,1601
    8000266c:	40008137          	lui	x2,0x40008
    80002670:	00210133          	add	x2,x2,x2
    80002674:	f8013003          	ld	x0,-128(x2) # 40007f80 <_binary_lab3_test_bin_size+0x3ffdf44c>
    80002678:	400080b7          	lui	x1,0x40008
    8000267c:	001080b3          	add	x1,x1,x1
    80002680:	f800e083          	lwu	x1,-128(x1) # 40007f80 <_binary_lab3_test_bin_size+0x3ffdf44c>
    80002684:	001180bb          	addw	x1,x3,x1
    80002688:	0022913b          	sllw	x2,x5,x2
    8000268c:	6af54097          	auipc	x1,0x6af54
    80002690:	b000f8e3          	bgeu	x1,x0,800021a0 <_binary_lab3_test_bin_start+0x21a0>
    80002694:	b000e6e3          	bltu	x1,x0,800021a0 <_binary_lab3_test_bin_start+0x21a0>
    80002698:	0031813b          	addw	x2,x3,x3
    8000269c:	c9e0c593          	xori	x11,x1,-866
    800026a0:	00f1d0b3          	srl	x1,x3,x15
    800026a4:	1d20b313          	sltiu	x6,x1,466
    800026a8:	003d12b3          	sll	x5,x26,x3
    800026ac:	0051909b          	slliw	x1,x3,0x5
    800026b0:	ba67e397          	auipc	x7,0xba67e
    800026b4:	40008337          	lui	x6,0x40008
    800026b8:	00630333          	add	x6,x6,x6
    800026bc:	f8036003          	lwu	x0,-128(x6) # 40007f80 <_binary_lab3_test_bin_size+0x3ffdf44c>
    800026c0:	e10fa037          	lui	x0,0xe10fa
    800026c4:	0140f0b3          	and	x1,x1,x20
    800026c8:	f5f18093          	addi	x1,x3,-161 # 74cc3f5f <_binary_lab3_test_bin_size+0x74c9b42b>
    800026cc:	40118133          	sub	x2,x3,x1
    800026d0:	04f12113          	slti	x2,x2,79
    800026d4:	40105133          	sra	x2,x0,x1
    800026d8:	0013c133          	xor	x2,x7,x1
    800026dc:	40008137          	lui	x2,0x40008
    800026e0:	00210133          	add	x2,x2,x2
    800026e4:	f8113423          	sd	x1,-120(x2) # 40007f88 <_binary_lab3_test_bin_size+0x3ffdf454>
    800026e8:	75fbef97          	auipc	x31,0x75fbe
    800026ec:	004181b3          	add	x3,x3,x4
    800026f0:	0020d033          	srl	x0,x1,x2
    800026f4:	401181bb          	subw	x3,x3,x1
    800026f8:	335ca137          	lui	x2,0x335ca
    800026fc:	bd01e097          	auipc	x1,0xbd01e
    80002700:	4a00c213          	xori	x4,x1,1184
    80002704:	0010c3b3          	xor	x7,x1,x1
    80002708:	f8812093          	slti	x1,x2,-120
    8000270c:	5aa16193          	ori	x3,x2,1450
    80002710:	e67651b7          	lui	x3,0xe6765
    80002714:	0131911b          	slliw	x2,x3,0x13
    80002718:	ca911ce3          	bne	x2,x9,800023d0 <_binary_lab3_test_bin_start+0x23d0>
    8000271c:	ca910ae3          	beq	x2,x9,800023d0 <_binary_lab3_test_bin_start+0x23d0>
    80002720:	00112133          	slt	x2,x2,x1
    80002724:	d7de9097          	auipc	x1,0xd7de9
    80002728:	407780bb          	subw	x1,x15,x7
    8000272c:	0100d11b          	srliw	x2,x1,0x10
    80002730:	002130b3          	sltu	x1,x2,x2
    80002734:	0021d133          	srl	x2,x3,x2
    80002738:	0031c333          	xor	x6,x3,x3
    8000273c:	95abd137          	lui	x2,0x95abd
    80002740:	4090d11b          	sraiw	x2,x1,0x9
    80002744:	48e941b7          	lui	x3,0x48e94
    80002748:	55bf3097          	auipc	x1,0x55bf3
    8000274c:	002253b3          	srl	x7,x4,x2
    80002750:	4023d0bb          	sraw	x1,x7,x2
    80002754:	f4d57137          	lui	x2,0xf4d57
    80002758:	ec7f8317          	auipc	x6,0xec7f8
    8000275c:	0051113b          	sllw	x2,x2,x5
    80002760:	03711193          	slli	x3,x2,0x37
    80002764:	00b12133          	slt	x2,x2,x11
    80002768:	40008ab7          	lui	x21,0x40008
    8000276c:	015a8ab3          	add	x21,x21,x21
    80002770:	f83ab023          	sd	x3,-128(x21) # 40007f80 <_binary_lab3_test_bin_size+0x3ffdf44c>
    80002774:	92212093          	slti	x1,x2,-1758
    80002778:	bc8391b7          	lui	x3,0xbc839
    8000277c:	17f08193          	addi	x3,x1,383 # d5bf58c7 <_binary_lab3_test_bin_end+0x55bccd93>
    80002780:	007080b3          	add	x1,x1,x7
    80002784:	40008237          	lui	x4,0x40008
    80002788:	00420233          	add	x4,x4,x4
    8000278c:	f83203a3          	sb	x3,-121(x4) # 40007f87 <_binary_lab3_test_bin_size+0x3ffdf453>
    80002790:	00518133          	add	x2,x3,x5
    80002794:	002111b3          	sll	x3,x2,x2
    80002798:	0011e133          	or	x2,x3,x1
    8000279c:	1d15e013          	ori	x0,x11,465
    800027a0:	eeb85197          	auipc	x3,0xeeb85
    800027a4:	403050bb          	sraw	x1,x0,x3
    800027a8:	4040d4b3          	sra	x9,x1,x4
    800027ac:	002161b3          	or	x3,x2,x2
    800027b0:	b4416193          	ori	x3,x2,-1212
    800027b4:	e9e1811b          	addiw	x2,x3,-354 # 6eb8763e <_binary_lab3_test_bin_size+0x6eb5eb0a>
    800027b8:	40108133          	sub	x2,x1,x1
    800027bc:	dc51d8e3          	bge	x3,x5,8000258c <_binary_lab3_test_bin_start+0x258c>
    800027c0:	dc51c6e3          	blt	x3,x5,8000258c <_binary_lab3_test_bin_start+0x258c>
    800027c4:	00f1c2b3          	xor	x5,x3,x15
    800027c8:	62aa4097          	auipc	x1,0x62aa4
    800027cc:	0100911b          	slliw	x2,x1,0x10
    800027d0:	0050a133          	slt	x2,x1,x5
    800027d4:	400080b7          	lui	x1,0x40008
    800027d8:	001080b3          	add	x1,x1,x1
    800027dc:	f830a423          	sw	x3,-120(x1) # 40007f88 <_binary_lab3_test_bin_size+0x3ffdf454>
    800027e0:	12910113          	addi	x2,x2,297 # fffffffff4d57129 <_binary_lab3_test_bin_end+0xffffffff74d2e5f5>
    800027e4:	0010b133          	sltu	x2,x1,x1
    800027e8:	0e71e093          	ori	x1,x3,231
    800027ec:	400080b7          	lui	x1,0x40008
    800027f0:	001080b3          	add	x1,x1,x1
    800027f4:	f8009683          	lh	x13,-128(x1) # 40007f80 <_binary_lab3_test_bin_size+0x3ffdf44c>
    800027f8:	0021d1bb          	srlw	x3,x3,x2
    800027fc:	14012213          	slti	x4,x2,320
    80002800:	42ed71b7          	lui	x3,0x42ed7
    80002804:	e410a213          	slti	x4,x1,-447
    80002808:	43815113          	srai	x2,x2,0x38
    8000280c:	096af137          	lui	x2,0x96af
    80002810:	df470117          	auipc	x2,0xdf470
    80002814:	400083b7          	lui	x7,0x40008
    80002818:	007383b3          	add	x7,x7,x7
    8000281c:	f8339123          	sh	x3,-126(x7) # 40007f82 <_binary_lab3_test_bin_size+0x3ffdf44e>
    80002820:	40a1509b          	sraiw	x1,x2,0xa
    80002824:	09a0b113          	sltiu	x2,x1,154
    80002828:	d8e1e013          	ori	x0,x3,-626
    8000282c:	4021d1bb          	sraw	x3,x3,x2
    80002830:	007111b3          	sll	x3,x2,x7
    80002834:	0020c133          	xor	x2,x1,x2
    80002838:	00008233          	add	x4,x1,x0
    8000283c:	40008337          	lui	x6,0x40008
    80002840:	00630333          	add	x6,x6,x6
    80002844:	f8233023          	sd	x2,-128(x6) # 40007f80 <_binary_lab3_test_bin_size+0x3ffdf44c>
    80002848:	0025d1b3          	srl	x3,x11,x2
    8000284c:	001042b3          	xor	x5,x0,x1
    80002850:	402380bb          	subw	x1,x7,x2
    80002854:	401083bb          	subw	x7,x1,x1
    80002858:	dc2072e3          	bgeu	x0,x2,8000261c <_binary_lab3_test_bin_start+0x261c>
    8000285c:	dc2060e3          	bltu	x0,x2,8000261c <_binary_lab3_test_bin_start+0x261c>
    80002860:	4010d13b          	sraw	x2,x1,x1
    80002864:	2523b093          	sltiu	x1,x7,594
    80002868:	400080b7          	lui	x1,0x40008
    8000286c:	001080b3          	add	x1,x1,x1
    80002870:	f840d003          	lhu	x0,-124(x1) # 40007f84 <_binary_lab3_test_bin_size+0x3ffdf450>
    80002874:	00215133          	srl	x2,x2,x2
    80002878:	0170981b          	slliw	x16,x1,0x17
    8000287c:	dbd0f213          	andi	x4,x1,-579
    80002880:	03209093          	slli	x1,x1,0x32
    80002884:	0100909b          	slliw	x1,x1,0x10
    80002888:	46315117          	auipc	x2,0x46315
    8000288c:	40515333          	sra	x6,x2,x5
    80002890:	40008137          	lui	x2,0x40008
    80002894:	00210133          	add	x2,x2,x2
    80002898:	f8c11183          	lh	x3,-116(x2) # 40007f8c <_binary_lab3_test_bin_size+0x3ffdf458>
    8000289c:	7f91819b          	addiw	x3,x3,2041 # 42ed77f9 <_binary_lab3_test_bin_size+0x42eaecc5>
    800028a0:	42b26193          	ori	x3,x4,1067
    800028a4:	b79900b7          	lui	x1,0xb7990
    800028a8:	73f65217          	auipc	x4,0x73f65
    800028ac:	f1787117          	auipc	x2,0xf1787
    800028b0:	003140b3          	xor	x1,x2,x3
    800028b4:	3cf24097          	auipc	x1,0x3cf24
    800028b8:	0051111b          	slliw	x2,x2,0x5
    800028bc:	2b124597          	auipc	x11,0x2b124
    800028c0:	4161d09b          	sraiw	x1,x3,0x16
    800028c4:	a2952097          	auipc	x1,0xa2952
    800028c8:	42c20093          	addi	x1,x4,1068 # f3f67cd4 <_binary_lab3_test_bin_end+0x73f3f1a0>
    800028cc:	5c0220b7          	lui	x1,0x5c022
    800028d0:	8962a093          	slti	x1,x5,-1898
    800028d4:	01c0929b          	slliw	x5,x1,0x1c
    800028d8:	86191137          	lui	x2,0x86191
    800028dc:	a7c421b7          	lui	x3,0xa7c42
    800028e0:	00335293          	srli	x5,x6,0x3
    800028e4:	b5a5e337          	lui	x6,0xb5a5e
    800028e8:	3ed38117          	auipc	x2,0x3ed38
    800028ec:	5d3b6113          	ori	x2,x22,1491
    800028f0:	40008137          	lui	x2,0x40008
    800028f4:	00210133          	add	x2,x2,x2
    800028f8:	f8013083          	ld	x1,-128(x2) # 40007f80 <_binary_lab3_test_bin_size+0x3ffdf44c>
    800028fc:	32d12113          	slti	x2,x2,813
    80002900:	00000197          	auipc	x3,0x0
    80002904:	00818267          	jalr	x4,8(x3) # 80002908 <_binary_lab3_test_bin_start+0x2908>
    80002908:	0011a233          	slt	x4,x3,x1
    8000290c:	3bc87197          	auipc	x3,0x3bc87
    80002910:	cdb6a237          	lui	x4,0xcdb6a
    80002914:	75c0a093          	slti	x1,x1,1884
    80002918:	0101509b          	srliw	x1,x2,0x10
    8000291c:	a6798137          	lui	x2,0xa6798
    80002920:	0041c1b3          	xor	x3,x3,x4
    80002924:	40008137          	lui	x2,0x40008
    80002928:	00210133          	add	x2,x2,x2
    8000292c:	f8813103          	ld	x2,-120(x2) # 40007f88 <_binary_lab3_test_bin_size+0x3ffdf454>
    80002930:	8a2e0137          	lui	x2,0x8a2e0
    80002934:	002122b3          	slt	x5,x2,x2
    80002938:	400083b7          	lui	x7,0x40008
    8000293c:	007383b3          	add	x7,x7,x7
    80002940:	f823b423          	sd	x2,-120(x7) # 40007f88 <_binary_lab3_test_bin_size+0x3ffdf454>
    80002944:	cc927313          	andi	x6,x4,-823
    80002948:	0011b0b3          	sltu	x1,x3,x1
    8000294c:	400080b7          	lui	x1,0x40008
    80002950:	001080b3          	add	x1,x1,x1
    80002954:	f8108623          	sb	x1,-116(x1) # 40007f8c <_binary_lab3_test_bin_size+0x3ffdf458>
    80002958:	002160b3          	or	x1,x2,x2
    8000295c:	0021f333          	and	x6,x3,x2
    80002960:	003382b3          	add	x5,x7,x3
    80002964:	00c1111b          	slliw	x2,x2,0xc
    80002968:	400086b7          	lui	x13,0x40008
    8000296c:	00d686b3          	add	x13,x13,x13
    80002970:	f836b023          	sd	x3,-128(x13) # 40007f80 <_binary_lab3_test_bin_size+0x3ffdf44c>
    80002974:	99064fb7          	lui	x31,0x99064
    80002978:	ba776197          	auipc	x3,0xba776
    8000297c:	95d0809b          	addiw	x1,x1,-1699
    80002980:	400080b7          	lui	x1,0x40008
    80002984:	001080b3          	add	x1,x1,x1
    80002988:	f810c103          	lbu	x2,-127(x1) # 40007f81 <_binary_lab3_test_bin_size+0x3ffdf44d>
    8000298c:	0030b233          	sltu	x4,x1,x3
    80002990:	2e1d5017          	auipc	x0,0x2e1d5
    80002994:	2631a493          	slti	x9,x3,611
    80002998:	00000117          	auipc	x2,0x0
    8000299c:	13410167          	jalr	x2,308(x2) # 80002acc <_binary_lab3_test_bin_start+0x2acc>
    800029a0:	0061c0b3          	xor	x1,x3,x6
    800029a4:	8a884317          	auipc	x6,0x8a884
    800029a8:	9470c1b7          	lui	x3,0x9470c
    800029ac:	cd99a117          	auipc	x2,0xcd99a
    800029b0:	f0a5e117          	auipc	x2,0xf0a5e
    800029b4:	002112b3          	sll	x5,x2,x2
    800029b8:	40008137          	lui	x2,0x40008
    800029bc:	00210133          	add	x2,x2,x2
    800029c0:	f8213023          	sd	x2,-128(x2) # 40007f80 <_binary_lab3_test_bin_size+0x3ffdf44c>
    800029c4:	40715b3b          	sraw	x22,x2,x7
    800029c8:	85327137          	lui	x2,0x85327
    800029cc:	07317193          	andi	x3,x2,115
    800029d0:	02319393          	slli	x7,x3,0x23
    800029d4:	40008137          	lui	x2,0x40008
    800029d8:	00210133          	add	x2,x2,x2
    800029dc:	f8313423          	sd	x3,-120(x2) # 40007f88 <_binary_lab3_test_bin_size+0x3ffdf454>
    800029e0:	f203d817          	auipc	x16,0xf203d
    800029e4:	000011b3          	sll	x3,x0,x0
    800029e8:	001183bb          	addw	x7,x3,x1
    800029ec:	4191501b          	sraiw	x0,x2,0x19
    800029f0:	0031b0b3          	sltu	x1,x3,x3
    800029f4:	0d825117          	auipc	x2,0xd825
    800029f8:	003193b3          	sll	x7,x3,x3
    800029fc:	d9e46197          	auipc	x3,0xd9e46
    80002a00:	402581bb          	subw	x3,x11,x2
    80002a04:	0030d13b          	srlw	x2,x1,x3
    80002a08:	b0d0c093          	xori	x1,x1,-1267
    80002a0c:	00208133          	add	x2,x1,x2
    80002a10:	400080b7          	lui	x1,0x40008
    80002a14:	001080b3          	add	x1,x1,x1
    80002a18:	f810b423          	sd	x1,-120(x1) # 40007f88 <_binary_lab3_test_bin_size+0x3ffdf454>
    80002a1c:	01119093          	slli	x1,x3,0x11
    80002a20:	403c50b3          	sra	x1,x24,x3
    80002a24:	4f268113          	addi	x2,x13,1266
    80002a28:	f647a1b7          	lui	x3,0xf647a
    80002a2c:	125e9863          	bne	x29,x5,80002b5c <_binary_lab3_test_bin_start+0x2b5c>
    80002a30:	125e8663          	beq	x29,x5,80002b5c <_binary_lab3_test_bin_start+0x2b5c>
    80002a34:	0010d4bb          	srlw	x9,x1,x1
    80002a38:	32fd7137          	lui	x2,0x32fd7
    80002a3c:	00529093          	slli	x1,x5,0x5
    80002a40:	0111109b          	slliw	x1,x2,0x11
    80002a44:	80f0c793          	xori	x15,x1,-2033
    80002a48:	dae080b7          	lui	x1,0xdae08
    80002a4c:	00115133          	srl	x2,x2,x1
    80002a50:	40f0d09b          	sraiw	x1,x1,0xf
    80002a54:	47816113          	ori	x2,x2,1144
    80002a58:	01d1911b          	slliw	x2,x3,0x1d
    80002a5c:	6b69a197          	auipc	x3,0x6b69a
    80002a60:	4152511b          	sraiw	x2,x4,0x15
    80002a64:	002182bb          	addw	x5,x3,x2
    80002a68:	b26442b7          	lui	x5,0xb2644
    80002a6c:	9d7bd0b7          	lui	x1,0x9d7bd
    80002a70:	c9825197          	auipc	x3,0xc9825
    80002a74:	f2a5f193          	andi	x3,x11,-214
    80002a78:	00104133          	xor	x2,x0,x1
    80002a7c:	00323333          	sltu	x6,x4,x3
    80002a80:	0010911b          	slliw	x2,x1,0x1
    80002a84:	2b2e60b7          	lui	x1,0x2b2e6
    80002a88:	01b0929b          	slliw	x5,x1,0x1b
    80002a8c:	7e81d137          	lui	x2,0x7e81d
    80002a90:	65e0f117          	auipc	x2,0x65e0f
    80002a94:	41115333          	sra	x6,x2,x17
    80002a98:	1bc04493          	xori	x9,x0,444
    80002a9c:	00f1909b          	slliw	x1,x3,0xf
    80002aa0:	4010d11b          	sraiw	x2,x1,0x1
    80002aa4:	73d0b093          	sltiu	x1,x1,1853
    80002aa8:	aa208213          	addi	x4,x1,-1374 # 2b2e5aa2 <_binary_lab3_test_bin_size+0x2b2bcf6e>
    80002aac:	400081b7          	lui	x3,0x40008
    80002ab0:	003181b3          	add	x3,x3,x3
    80002ab4:	f801b423          	sd	x0,-120(x3) # 40007f88 <_binary_lab3_test_bin_size+0x3ffdf454>
    80002ab8:	5383831b          	addiw	x6,x7,1336
    80002abc:	01431113          	slli	x2,x6,0x14
    80002ac0:	e6a19c97          	auipc	x25,0xe6a19
    80002ac4:	a23080e3          	beq	x1,x3,800024e4 <_binary_lab3_test_bin_start+0x24e4>
    80002ac8:	a1dff26f          	jal	x4,800024e4 <_binary_lab3_test_bin_start+0x24e4>
    80002acc:	002250b3          	srl	x1,x4,x2
    80002ad0:	0034e133          	or	x2,x9,x3
    80002ad4:	005090b3          	sll	x1,x1,x5
    80002ad8:	77e05237          	lui	x4,0x77e05
    80002adc:	00f49093          	slli	x1,x9,0xf
    80002ae0:	400080b7          	lui	x1,0x40008
    80002ae4:	001080b3          	add	x1,x1,x1
    80002ae8:	f81084a3          	sb	x1,-119(x1) # 40007f89 <_binary_lab3_test_bin_size+0x3ffdf455>
    80002aec:	6a3eb037          	lui	x0,0x6a3eb
    80002af0:	01a1d193          	srli	x3,x3,0x1a
    80002af4:	00e12133          	slt	x2,x2,x14
    80002af8:	4fda0197          	auipc	x3,0x4fda0
    80002afc:	40008137          	lui	x2,0x40008
    80002b00:	00210133          	add	x2,x2,x2
    80002b04:	f8213023          	sd	x2,-128(x2) # 40007f80 <_binary_lab3_test_bin_size+0x3ffdf44c>
    80002b08:	37aa3797          	auipc	x15,0x37aa3
    80002b0c:	01a1919b          	slliw	x3,x3,0x1a
    80002b10:	01a1109b          	slliw	x1,x2,0x1a
    80002b14:	e380c113          	xori	x2,x1,-456
    80002b18:	5950819b          	addiw	x3,x1,1429
    80002b1c:	0120919b          	slliw	x3,x1,0x12
    80002b20:	00a1951b          	slliw	x10,x3,0xa
    80002b24:	004150bb          	srlw	x1,x2,x4
    80002b28:	00c6d21b          	srliw	x4,x13,0xc
    80002b2c:	aceaf117          	auipc	x2,0xaceaf
    80002b30:	2b1ca1b7          	lui	x3,0x2b1ca
    80002b34:	000200bb          	addw	x1,x4,x0
    80002b38:	0050a133          	slt	x2,x1,x5
    80002b3c:	400080b7          	lui	x1,0x40008
    80002b40:	001080b3          	add	x1,x1,x1
    80002b44:	f800be03          	ld	x28,-128(x1) # 40007f80 <_binary_lab3_test_bin_size+0x3ffdf44c>
    80002b48:	2c21e593          	ori	x11,x3,706
    80002b4c:	1c88c197          	auipc	x3,0x1c88c
    80002b50:	b0343293          	sltiu	x5,x8,-1277
    80002b54:	906202e3          	beq	x4,x6,80002458 <_binary_lab3_test_bin_start+0x2458>
    80002b58:	901ff0ef          	jal	80002458 <_binary_lab3_test_bin_start+0x2458>
    80002b5c:	03a2d193          	srli	x3,x5,0x3a
    80002b60:	4db1f197          	auipc	x3,0x4db1f
    80002b64:	400083b7          	lui	x7,0x40008
    80002b68:	007383b3          	add	x7,x7,x7
    80002b6c:	f8439103          	lh	x2,-124(x7) # 40007f84 <_binary_lab3_test_bin_size+0x3ffdf450>
    80002b70:	002361b3          	or	x3,x6,x2
    80002b74:	6071c093          	xori	x1,x3,1543
    80002b78:	43518093          	addi	x1,x3,1077 # cdb21f95 <_binary_lab3_test_bin_end+0x4daf9461>
    80002b7c:	03609093          	slli	x1,x1,0x36
    80002b80:	cf1bf217          	auipc	x4,0xcf1bf
    80002b84:	007fe197          	auipc	x3,0x7fe
    80002b88:	06310093          	addi	x1,x2,99 # 2ceb1b8f <_binary_lab3_test_bin_size+0x2ce8905b>
    80002b8c:	002160b3          	or	x1,x2,x2
    80002b90:	85d2f337          	lui	x6,0x85d2f
    80002b94:	3307c1b7          	lui	x3,0x3307c
    80002b98:	32ba81b7          	lui	x3,0x32ba8
    80002b9c:	249710b7          	lui	x1,0x24971
    80002ba0:	e42cf137          	lui	x2,0xe42cf
    80002ba4:	86424113          	xori	x2,x4,-1948
    80002ba8:	e4b18313          	addi	x6,x3,-437 # 32ba7e4b <_binary_lab3_test_bin_size+0x32b7f317>
    80002bac:	4010013b          	negw	x2,x1
    80002bb0:	4ec1839b          	addiw	x7,x3,1260
    80002bb4:	a6a3d1b7          	lui	x3,0xa6a3d
    80002bb8:	6621801b          	addiw	x0,x3,1634 # ffffffffa6a3d662 <_binary_lab3_test_bin_end+0xffffffff26a14b2e>
    80002bbc:	01d0519b          	srliw	x3,x0,0x1d
    80002bc0:	b99041b7          	lui	x3,0xb9904
    80002bc4:	cadf20b7          	lui	x1,0xcadf2
    80002bc8:	002182bb          	addw	x5,x3,x2
    80002bcc:	43905393          	srai	x7,x0,0x39
    80002bd0:	002121b3          	slt	x3,x2,x2
    80002bd4:	764e1117          	auipc	x2,0x764e1
    80002bd8:	5f118093          	addi	x1,x3,1521 # ffffffffb99045f1 <_binary_lab3_test_bin_end+0xffffffff398dbabd>
    80002bdc:	c8a150b7          	lui	x1,0xc8a15
    80002be0:	00c19a1b          	slliw	x20,x3,0xc
    80002be4:	00018113          	mv	x2,x3
    80002be8:	08310e63          	beq	x2,x3,80002c84 <_binary_lab3_test_bin_start+0x2c84>
    80002bec:	f110c113          	xori	x2,x1,-239
    80002bf0:	2e8c8317          	auipc	x6,0x2e8c8
    80002bf4:	4100d093          	srai	x1,x1,0x10
    80002bf8:	4010d4b3          	sra	x9,x1,x1
    80002bfc:	001130b3          	sltu	x1,x2,x1
    80002c00:	d9013113          	sltiu	x2,x2,-624
    80002c04:	a2c02193          	slti	x3,x0,-1492
    80002c08:	f0c0c113          	xori	x2,x1,-244
    80002c0c:	0011c133          	xor	x2,x3,x1
    80002c10:	0a01f197          	auipc	x3,0xa01f
    80002c14:	400080b7          	lui	x1,0x40008
    80002c18:	001080b3          	add	x1,x1,x1
    80002c1c:	f880b083          	ld	x1,-120(x1) # 40007f88 <_binary_lab3_test_bin_size+0x3ffdf454>
    80002c20:	0192959b          	slliw	x11,x5,0x19
    80002c24:	0091d19b          	srliw	x3,x3,0x9
    80002c28:	0148d3bb          	srlw	x7,x17,x20
    80002c2c:	400081b7          	lui	x3,0x40008
    80002c30:	003181b3          	add	x3,x3,x3
    80002c34:	f8119023          	sh	x1,-128(x3) # 40007f80 <_binary_lab3_test_bin_size+0x3ffdf44c>
    80002c38:	002351b3          	srl	x3,x6,x2
    80002c3c:	ac46a117          	auipc	x2,0xac46a
    80002c40:	0010f2b3          	and	x5,x1,x1
    80002c44:	0051a1b3          	slt	x3,x3,x5
    80002c48:	9c20c113          	xori	x2,x1,-1598
    80002c4c:	4012d933          	sra	x18,x5,x1
    80002c50:	22763337          	lui	x6,0x22763
    80002c54:	9e3df197          	auipc	x3,0x9e3df
    80002c58:	38bab117          	auipc	x2,0x38bab
    80002c5c:	0a71e013          	ori	x0,x3,167
    80002c60:	4071d1bb          	sraw	x3,x3,x7
    80002c64:	55c12113          	slti	x2,x2,1372
    80002c68:	400081b7          	lui	x3,0x40008
    80002c6c:	003181b3          	add	x3,x3,x3
    80002c70:	f8719723          	sh	x7,-114(x3) # 40007f8e <_binary_lab3_test_bin_size+0x3ffdf45a>
    80002c74:	00301033          	sll	x0,x0,x3
    80002c78:	a3ebb1b7          	lui	x3,0xa3ebb
    80002c7c:	5a710e63          	beq	x2,x7,80003238 <_binary_lab3_test_bin_start+0x3238>
    80002c80:	5b8001ef          	jal	x3,80003238 <_binary_lab3_test_bin_start+0x3238>
    80002c84:	0051921b          	slliw	x4,x3,0x5
    80002c88:	c620a193          	slti	x3,x1,-926
    80002c8c:	42a15513          	srai	x10,x2,0x2a
    80002c90:	8ca0e213          	ori	x4,x1,-1846
    80002c94:	ea21f193          	andi	x3,x3,-350
    80002c98:	1751f193          	andi	x3,x3,373
    80002c9c:	00301233          	sll	x4,x0,x3
    80002ca0:	40008137          	lui	x2,0x40008
    80002ca4:	00210133          	add	x2,x2,x2
    80002ca8:	f8813203          	ld	x4,-120(x2) # 40007f88 <_binary_lab3_test_bin_size+0x3ffdf454>
    80002cac:	00d320b3          	slt	x1,x6,x13
    80002cb0:	02409013          	slli	x0,x1,0x24
    80002cb4:	00224333          	xor	x6,x4,x2
    80002cb8:	73c9f637          	lui	x12,0x73c9f
    80002cbc:	0000d133          	srl	x2,x1,x0
    80002cc0:	00247133          	and	x2,x8,x2
    80002cc4:	b2b2f793          	andi	x15,x5,-1237
    80002cc8:	58f610b7          	lui	x1,0x58f61
    80002ccc:	1dd22193          	slti	x3,x4,477
    80002cd0:	a0e20193          	addi	x3,x4,-1522 # 4f1c158e <_binary_lab3_test_bin_size+0x4f198a5a>
    80002cd4:	34aa7317          	auipc	x6,0x34aa7
    80002cd8:	d0d08093          	addi	x1,x1,-755 # 58f60d0d <_binary_lab3_test_bin_size+0x58f381d9>
    80002cdc:	42815093          	srai	x1,x2,0x28
    80002ce0:	40015593          	srai	x11,x2,0x0
    80002ce4:	0041139b          	slliw	x7,x2,0x4
    80002ce8:	00d2909b          	slliw	x1,x5,0xd
    80002cec:	0050d233          	srl	x4,x1,x5
    80002cf0:	400081b7          	lui	x3,0x40008
    80002cf4:	003181b3          	add	x3,x3,x3
    80002cf8:	f881b083          	ld	x1,-120(x3) # 40007f88 <_binary_lab3_test_bin_size+0x3ffdf454>
    80002cfc:	f8f8f097          	auipc	x1,0xf8f8f
    80002d00:	40008137          	lui	x2,0x40008
    80002d04:	00210133          	add	x2,x2,x2
    80002d08:	f8013103          	ld	x2,-128(x2) # 40007f80 <_binary_lab3_test_bin_size+0x3ffdf44c>
    80002d0c:	00115133          	srl	x2,x2,x1
    80002d10:	d400b193          	sltiu	x3,x1,-704
    80002d14:	400080b7          	lui	x1,0x40008
    80002d18:	001080b3          	add	x1,x1,x1
    80002d1c:	f820b423          	sd	x2,-120(x1) # 40007f88 <_binary_lab3_test_bin_size+0x3ffdf454>
    80002d20:	a01300e3          	beq	x6,x1,80002720 <_binary_lab3_test_bin_start+0x2720>
    80002d24:	9fdff3ef          	jal	x7,80002720 <_binary_lab3_test_bin_start+0x2720>
    80002d28:	cb9eb217          	auipc	x4,0xcb9eb
    80002d2c:	f80b1317          	auipc	x6,0xf80b1
    80002d30:	44213313          	sltiu	x6,x2,1090
    80002d34:	0011101b          	slliw	x0,x2,0x1
    80002d38:	4011d1b3          	sra	x3,x3,x1
    80002d3c:	4020d13b          	sraw	x2,x1,x2
    80002d40:	fe906193          	ori	x3,x0,-23
    80002d44:	006150b3          	srl	x1,x2,x6
    80002d48:	400081b7          	lui	x3,0x40008
    80002d4c:	003181b3          	add	x3,x3,x3
    80002d50:	f8119623          	sh	x1,-116(x3) # 40007f8c <_binary_lab3_test_bin_size+0x3ffdf458>
    80002d54:	8d60c113          	xori	x2,x1,-1834
    80002d58:	0161119b          	slliw	x3,x2,0x16
    80002d5c:	40008337          	lui	x6,0x40008
    80002d60:	00630333          	add	x6,x6,x6
    80002d64:	f8232023          	sw	x2,-128(x6) # 40007f80 <_binary_lab3_test_bin_size+0x3ffdf44c>
    80002d68:	ffd1eb93          	ori	x23,x3,-3
    80002d6c:	00310f33          	add	x30,x2,x3
    80002d70:	400080b7          	lui	x1,0x40008
    80002d74:	001080b3          	add	x1,x1,x1
    80002d78:	f810b423          	sd	x1,-120(x1) # 40007f88 <_binary_lab3_test_bin_size+0x3ffdf454>
    80002d7c:	8de1011b          	addiw	x2,x2,-1826
    80002d80:	0080d11b          	srliw	x2,x1,0x8
    80002d84:	e560831b          	addiw	x6,x1,-426
    80002d88:	400081b7          	lui	x3,0x40008
    80002d8c:	003181b3          	add	x3,x3,x3
    80002d90:	f83186a3          	sb	x3,-115(x3) # 40007f8d <_binary_lab3_test_bin_size+0x3ffdf459>
    80002d94:	0011103b          	sllw	x0,x2,x1
    80002d98:	b0014193          	xori	x3,x2,-1280
    80002d9c:	6c396137          	lui	x2,0x6c396
    80002da0:	fca32193          	slti	x3,x6,-54
    80002da4:	4060d0b3          	sra	x1,x1,x6
    80002da8:	c190e113          	ori	x2,x1,-999
    80002dac:	00330263          	beq	x6,x3,80002db0 <_binary_lab3_test_bin_start+0x2db0>
    80002db0:	1fd0026f          	jal	x4,800037ac <_binary_lab3_test_bin_start+0x37ac>
    80002db4:	0041911b          	slliw	x2,x3,0x4
    80002db8:	400080b7          	lui	x1,0x40008
    80002dbc:	001080b3          	add	x1,x1,x1
    80002dc0:	f8a08103          	lb	x2,-118(x1) # 40007f8a <_binary_lab3_test_bin_size+0x3ffdf456>
    80002dc4:	01919593          	slli	x11,x3,0x19
    80002dc8:	0122d29b          	srliw	x5,x5,0x12
    80002dcc:	0052f133          	and	x2,x5,x5
    80002dd0:	8ca0a113          	slti	x2,x1,-1846
    80002dd4:	8ac17013          	andi	x0,x2,-1876
    80002dd8:	0230d113          	srli	x2,x1,0x23
    80002ddc:	0053a9b3          	slt	x19,x7,x5
    80002de0:	dfe2b093          	sltiu	x1,x5,-514
    80002de4:	400080b7          	lui	x1,0x40008
    80002de8:	001080b3          	add	x1,x1,x1
    80002dec:	f830b023          	sd	x3,-128(x1) # 40007f80 <_binary_lab3_test_bin_size+0x3ffdf44c>
    80002df0:	a772e093          	ori	x1,x5,-1417
    80002df4:	9cd1b093          	sltiu	x1,x3,-1587
    80002df8:	1340b313          	sltiu	x6,x1,308
    80002dfc:	88884137          	lui	x2,0x88884
    80002e00:	530a6137          	lui	x2,0x530a6
    80002e04:	00117133          	and	x2,x2,x1
    80002e08:	0031e2b3          	or	x5,x3,x3
    80002e0c:	00130133          	add	x2,x6,x1
    80002e10:	0021d19b          	srliw	x3,x3,0x2
    80002e14:	400083b7          	lui	x7,0x40008
    80002e18:	007383b3          	add	x7,x7,x7
    80002e1c:	f803a103          	lw	x2,-128(x7) # 40007f80 <_binary_lab3_test_bin_size+0x3ffdf44c>
    80002e20:	4fa10193          	addi	x3,x2,1274 # 530a64fa <_binary_lab3_test_bin_size+0x5307d9c6>
    80002e24:	40008137          	lui	x2,0x40008
    80002e28:	00210133          	add	x2,x2,x2
    80002e2c:	f8212423          	sw	x2,-120(x2) # 40007f88 <_binary_lab3_test_bin_size+0x3ffdf454>
    80002e30:	006191bb          	sllw	x3,x3,x6
    80002e34:	76a1809b          	addiw	x1,x3,1898
    80002e38:	48efa1b7          	lui	x3,0x48efa
    80002e3c:	001350bb          	srlw	x1,x6,x1
    80002e40:	7421f863          	bgeu	x3,x2,80003590 <_binary_lab3_test_bin_start+0x3590>
    80002e44:	7421e663          	bltu	x3,x2,80003590 <_binary_lab3_test_bin_start+0x3590>
    80002e48:	0035d133          	srl	x2,x11,x3
    80002e4c:	40008137          	lui	x2,0x40008
    80002e50:	00210133          	add	x2,x2,x2
    80002e54:	f8d10103          	lb	x2,-115(x2) # 40007f8d <_binary_lab3_test_bin_size+0x3ffdf459>
    80002e58:	400081b7          	lui	x3,0x40008
    80002e5c:	003181b3          	add	x3,x3,x3
    80002e60:	f8219083          	lh	x1,-126(x3) # 40007f82 <_binary_lab3_test_bin_size+0x3ffdf44e>
    80002e64:	40008137          	lui	x2,0x40008
    80002e68:	00210133          	add	x2,x2,x2
    80002e6c:	f8912223          	sw	x9,-124(x2) # 40007f84 <_binary_lab3_test_bin_size+0x3ffdf450>
    80002e70:	0120511b          	srliw	x2,x0,0x12
    80002e74:	00125333          	srl	x6,x4,x1
    80002e78:	90816193          	ori	x3,x2,-1784
    80002e7c:	2d39b197          	auipc	x3,0x2d39b
    80002e80:	da7152b7          	lui	x5,0xda715
    80002e84:	40008337          	lui	x6,0x40008
    80002e88:	00630333          	add	x6,x6,x6
    80002e8c:	f8331623          	sh	x3,-116(x6) # 40007f8c <_binary_lab3_test_bin_size+0x3ffdf458>
    80002e90:	400081b7          	lui	x3,0x40008
    80002e94:	003181b3          	add	x3,x3,x3
    80002e98:	f811b023          	sd	x1,-128(x3) # 40007f80 <_binary_lab3_test_bin_size+0x3ffdf44c>
    80002e9c:	0031b233          	sltu	x4,x3,x3
    80002ea0:	400080b7          	lui	x1,0x40008
    80002ea4:	001080b3          	add	x1,x1,x1
    80002ea8:	f830b423          	sd	x3,-120(x1) # 40007f88 <_binary_lab3_test_bin_size+0x3ffdf454>
    80002eac:	40a8d113          	srai	x2,x17,0xa
    80002eb0:	402081b3          	sub	x3,x1,x2
    80002eb4:	400080b7          	lui	x1,0x40008
    80002eb8:	001080b3          	add	x1,x1,x1
    80002ebc:	f8e0d083          	lhu	x1,-114(x1) # 40007f8e <_binary_lab3_test_bin_size+0x3ffdf45a>
    80002ec0:	3e222193          	slti	x3,x4,994
    80002ec4:	00270263          	beq	x14,x2,80002ec8 <_binary_lab3_test_bin_start+0x2ec8>
    80002ec8:	05d0016f          	jal	x2,80003724 <_binary_lab3_test_bin_start+0x3724>
    80002ecc:	c6427093          	andi	x1,x4,-924
    80002ed0:	40275033          	sra	x0,x14,x2
    80002ed4:	40e0d193          	srai	x3,x1,0xe
    80002ed8:	01a19113          	slli	x2,x3,0x1a
    80002edc:	001190b3          	sll	x1,x3,x1
    80002ee0:	4be30113          	addi	x2,x6,1214
    80002ee4:	b95482b7          	lui	x5,0xb9548
    80002ee8:	b58ce137          	lui	x2,0xb58ce
    80002eec:	002090bb          	sllw	x1,x1,x2
    80002ef0:	4cbf0197          	auipc	x3,0x4cbf0
    80002ef4:	ff21f193          	andi	x3,x3,-14
    80002ef8:	01f1511b          	srliw	x2,x2,0x1f
    80002efc:	0101111b          	slliw	x2,x2,0x10
    80002f00:	0ad0a093          	slti	x1,x1,173
    80002f04:	005181b3          	add	x3,x3,x5
    80002f08:	03c39113          	slli	x2,x7,0x3c
    80002f0c:	4030d0bb          	sraw	x1,x1,x3
    80002f10:	ea0cea97          	auipc	x21,0xea0ce
    80002f14:	0012c0b3          	xor	x1,x5,x1
    80002f18:	403080b3          	sub	x1,x1,x3
    80002f1c:	001141b3          	xor	x3,x2,x1
    80002f20:	0097d033          	srl	x0,x15,x9
    80002f24:	000110bb          	sllw	x1,x2,x0
    80002f28:	01311133          	sll	x2,x2,x19
    80002f2c:	c11451b7          	lui	x3,0xc1145
    80002f30:	400151bb          	sraw	x3,x2,x0
    80002f34:	40118133          	sub	x2,x3,x1
    80002f38:	4056d113          	srai	x2,x13,0x5
    80002f3c:	0911c113          	xori	x2,x3,145
    80002f40:	6ab14193          	xori	x3,x2,1707
    80002f44:	400080b7          	lui	x1,0x40008
    80002f48:	001080b3          	add	x1,x1,x1
    80002f4c:	f800b423          	sd	x0,-120(x1) # 40007f88 <_binary_lab3_test_bin_size+0x3ffdf454>
    80002f50:	02919093          	slli	x1,x3,0x29
    80002f54:	1aeb5017          	auipc	x0,0x1aeb5
    80002f58:	b1111697          	auipc	x13,0xb1111
    80002f5c:	3621f463          	bgeu	x3,x2,800032c4 <_binary_lab3_test_bin_start+0x32c4>
    80002f60:	3621e263          	bltu	x3,x2,800032c4 <_binary_lab3_test_bin_start+0x32c4>
    80002f64:	40218233          	sub	x4,x3,x2
    80002f68:	bbee5217          	auipc	x4,0xbbee5
    80002f6c:	7561a093          	slti	x1,x3,1878
    80002f70:	2711021b          	addiw	x4,x2,625 # ffffffffb58ce271 <_binary_lab3_test_bin_end+0xffffffff358a573d>
    80002f74:	4c018293          	addi	x5,x3,1216 # ffffffffc11454c0 <_binary_lab3_test_bin_end+0xffffffff4111c98c>
    80002f78:	4d77a217          	auipc	x4,0x4d77a
    80002f7c:	0070913b          	sllw	x2,x1,x7
    80002f80:	003080b3          	add	x1,x1,x3
    80002f84:	400080b7          	lui	x1,0x40008
    80002f88:	001080b3          	add	x1,x1,x1
    80002f8c:	f8709323          	sh	x7,-122(x1) # 40007f86 <_binary_lab3_test_bin_size+0x3ffdf452>
    80002f90:	6371a093          	slti	x1,x3,1591
    80002f94:	4b037193          	andi	x3,x6,1200
    80002f98:	00b3919b          	slliw	x3,x7,0xb
    80002f9c:	3541a293          	slti	x5,x3,852
    80002fa0:	003100b3          	add	x1,x2,x3
    80002fa4:	d1034797          	auipc	x15,0xd1034
    80002fa8:	00311033          	sll	x0,x2,x3
    80002fac:	20f3801b          	addiw	x0,x7,527
    80002fb0:	0060f133          	and	x2,x1,x6
    80002fb4:	e9813193          	sltiu	x3,x2,-360
    80002fb8:	0010d133          	srl	x2,x1,x1
    80002fbc:	42d05113          	srai	x2,x0,0x2d
    80002fc0:	0030919b          	slliw	x3,x1,0x3
    80002fc4:	004242b3          	xor	x5,x4,x4
    80002fc8:	405180bb          	subw	x1,x3,x5
    80002fcc:	00415bbb          	srlw	x23,x2,x4
    80002fd0:	00f1909b          	slliw	x1,x3,0xf
    80002fd4:	00d3d113          	srli	x2,x7,0xd
    80002fd8:	0031813b          	addw	x2,x3,x3
    80002fdc:	82e1f113          	andi	x2,x3,-2002
    80002fe0:	89c3b393          	sltiu	x7,x7,-1892
    80002fe4:	0030b5b3          	sltu	x11,x1,x3
    80002fe8:	41a4d233          	sra	x4,x9,x26
    80002fec:	02209413          	slli	x8,x1,0x22
    80002ff0:	d2118ce3          	beq	x3,x1,80002d28 <_binary_lab3_test_bin_start+0x2d28>
    80002ff4:	d35ff1ef          	jal	x3,80002d28 <_binary_lab3_test_bin_start+0x2d28>
    80002ff8:	003091bb          	sllw	x3,x1,x3
    80002ffc:	003261b3          	or	x3,x4,x3
    80003000:	a4ae53b7          	lui	x7,0xa4ae5
    80003004:	400080b7          	lui	x1,0x40008
    80003008:	001080b3          	add	x1,x1,x1
    8000300c:	f830b023          	sd	x3,-128(x1) # 40007f80 <_binary_lab3_test_bin_size+0x3ffdf44c>
    80003010:	8491c313          	xori	x6,x3,-1975
    80003014:	0050d133          	srl	x2,x1,x5
    80003018:	f5408093          	addi	x1,x1,-172
    8000301c:	34e16213          	ori	x4,x2,846
    80003020:	400081b7          	lui	x3,0x40008
    80003024:	003181b3          	add	x3,x3,x3
    80003028:	f821b023          	sd	x2,-128(x3) # 40007f80 <_binary_lab3_test_bin_size+0x3ffdf44c>
    8000302c:	010161b3          	or	x3,x2,x16
    80003030:	0021f3b3          	and	x7,x3,x2
    80003034:	0037a233          	slt	x4,x15,x3
    80003038:	4091d13b          	sraw	x2,x3,x9
    8000303c:	d60a6117          	auipc	x2,0xd60a6
    80003040:	003181b3          	add	x3,x3,x3
    80003044:	d8ff21b7          	lui	x3,0xd8ff2
    80003048:	2d71f593          	andi	x11,x3,727
    8000304c:	0071f0b3          	and	x1,x3,x7
    80003050:	000353b3          	srl	x7,x6,x0
    80003054:	40008337          	lui	x6,0x40008
    80003058:	00630333          	add	x6,x6,x6
    8000305c:	f8233023          	sd	x2,-128(x6) # 40007f80 <_binary_lab3_test_bin_size+0x3ffdf44c>
    80003060:	38e1c193          	xori	x3,x3,910
    80003064:	00304133          	xor	x2,x0,x3
    80003068:	37851117          	auipc	x2,0x37851
    8000306c:	012491b3          	sll	x3,x9,x18
    80003070:	0030c2b3          	xor	x5,x1,x3
    80003074:	9d52a1b7          	lui	x3,0x9d52a
    80003078:	00f3909b          	slliw	x1,x7,0xf
    8000307c:	0021c133          	xor	x2,x3,x2
    80003080:	00010113          	mv	x2,x2
    80003084:	10210e63          	beq	x2,x2,800031a0 <_binary_lab3_test_bin_start+0x31a0>
    80003088:	ebc7c117          	auipc	x2,0xebc7c
    8000308c:	4041d4bb          	sraw	x9,x3,x4
    80003090:	4071d133          	sra	x2,x3,x7
    80003094:	400080b7          	lui	x1,0x40008
    80003098:	001080b3          	add	x1,x1,x1
    8000309c:	f860c203          	lbu	x4,-122(x1) # 40007f86 <_binary_lab3_test_bin_size+0x3ffdf452>
    800030a0:	00308133          	add	x2,x1,x3
    800030a4:	401157bb          	sraw	x15,x2,x1
    800030a8:	c2b0c093          	xori	x1,x1,-981
    800030ac:	002631b3          	sltu	x3,x12,x2
    800030b0:	d941c593          	xori	x11,x3,-620
    800030b4:	01c0d113          	srli	x2,x1,0x1c
    800030b8:	e347b097          	auipc	x1,0xe347b
    800030bc:	01b1909b          	slliw	x1,x3,0x1b
    800030c0:	01419193          	slli	x3,x3,0x14
    800030c4:	402181b3          	sub	x3,x3,x2
    800030c8:	00d1d11b          	srliw	x2,x3,0xd
    800030cc:	4025d193          	srai	x3,x11,0x2
    800030d0:	01e0939b          	slliw	x7,x1,0x1e
    800030d4:	0071511b          	srliw	x2,x2,0x7
    800030d8:	c8f27213          	andi	x4,x4,-881
    800030dc:	95c0031b          	addiw	x6,x0,-1700
    800030e0:	28eea113          	slti	x2,x29,654
    800030e4:	b901021b          	addiw	x4,x2,-1136 # 6bc7ec18 <_binary_lab3_test_bin_size+0x6bc560e4>
    800030e8:	3d9a5117          	auipc	x2,0x3d9a5
    800030ec:	00013233          	sltu	x4,x2,x0
    800030f0:	03515193          	srli	x3,x2,0x35
    800030f4:	001ca0b3          	slt	x1,x25,x1
    800030f8:	6afbb137          	lui	x2,0x6afbb
    800030fc:	403183bb          	subw	x7,x3,x3
    80003100:	788bf117          	auipc	x2,0x788bf
    80003104:	51010a63          	beq	x2,x16,80003618 <_binary_lab3_test_bin_start+0x3618>
    80003108:	5100016f          	jal	x2,80003618 <_binary_lab3_test_bin_start+0x3618>
    8000310c:	e9c290b7          	lui	x1,0xe9c29
    80003110:	0014923b          	sllw	x4,x9,x1
    80003114:	0020b0b3          	sltu	x1,x1,x2
    80003118:	40008137          	lui	x2,0x40008
    8000311c:	00210133          	add	x2,x2,x2
    80003120:	f8f14103          	lbu	x2,-113(x2) # 40007f8f <_binary_lab3_test_bin_size+0x3ffdf45b>
    80003124:	0031a133          	slt	x2,x3,x3
    80003128:	40008db7          	lui	x27,0x40008
    8000312c:	01bd8db3          	add	x27,x27,x27
    80003130:	f8cdd103          	lhu	x2,-116(x27) # 40007f8c <_binary_lab3_test_bin_size+0x3ffdf458>
    80003134:	00a7d093          	srli	x1,x15,0xa
    80003138:	2ee3d097          	auipc	x1,0x2ee3d
    8000313c:	0011933b          	sllw	x6,x3,x1
    80003140:	001161b3          	or	x3,x2,x1
    80003144:	7c177117          	auipc	x2,0x7c177
    80003148:	4041519b          	sraiw	x3,x2,0x4
    8000314c:	401081bb          	subw	x3,x1,x1
    80003150:	00119133          	sll	x2,x3,x1
    80003154:	79e08093          	addi	x1,x1,1950 # aee408d6 <_binary_lab3_test_bin_end+0x2ee17da2>
    80003158:	184a76b7          	lui	x13,0x184a7
    8000315c:	a0d1e093          	ori	x1,x3,-1523
    80003160:	0042119b          	slliw	x3,x4,0x4
    80003164:	4051d01b          	sraiw	x0,x3,0x5
    80003168:	42612193          	slti	x3,x2,1062
    8000316c:	00018033          	add	x0,x3,x0
    80003170:	403284bb          	subw	x9,x5,x3
    80003174:	0010e1b3          	or	x3,x1,x1
    80003178:	400081b7          	lui	x3,0x40008
    8000317c:	003181b3          	add	x3,x3,x3
    80003180:	f8219623          	sh	x2,-116(x3) # 40007f8c <_binary_lab3_test_bin_size+0x3ffdf458>
    80003184:	0011c0b3          	xor	x1,x3,x1
    80003188:	400081b7          	lui	x3,0x40008
    8000318c:	003181b3          	add	x3,x3,x3
    80003190:	f811a623          	sw	x1,-116(x3) # 40007f8c <_binary_lab3_test_bin_size+0x3ffdf458>
    80003194:	bdb30113          	addi	x2,x6,-1061
    80003198:	00008193          	mv	x3,x1
    8000319c:	e4118ee3          	beq	x3,x1,80002ff8 <_binary_lab3_test_bin_start+0x2ff8>
    800031a0:	40210abb          	subw	x21,x2,x2
    800031a4:	0035e133          	or	x2,x11,x3
    800031a8:	0181119b          	slliw	x3,x2,0x18
    800031ac:	400080b7          	lui	x1,0x40008
    800031b0:	001080b3          	add	x1,x1,x1
    800031b4:	f8209423          	sh	x2,-120(x1) # 40007f88 <_binary_lab3_test_bin_size+0x3ffdf454>
    800031b8:	0012d0bb          	srlw	x1,x5,x1
    800031bc:	849a9317          	auipc	x6,0x849a9
    800031c0:	001015b3          	sll	x11,x0,x1
    800031c4:	003172b3          	and	x5,x2,x3
    800031c8:	405200b3          	sub	x1,x4,x5
    800031cc:	0141019b          	addiw	x3,x2,20 # fffffffffc17a158 <_binary_lab3_test_bin_end+0xffffffff7c151624>
    800031d0:	0050c233          	xor	x4,x1,x5
    800031d4:	003150bb          	srlw	x1,x2,x3
    800031d8:	0032da33          	srl	x20,x5,x3
    800031dc:	00c0911b          	slliw	x2,x1,0xc
    800031e0:	8665819b          	addiw	x3,x11,-1946 # ffffffffab126122 <_binary_lab3_test_bin_end+0xffffffff2b0fd5ee>
    800031e4:	0030a133          	slt	x2,x1,x3
    800031e8:	4092d1b3          	sra	x3,x5,x9
    800031ec:	c23c3793          	sltiu	x15,x24,-989
    800031f0:	0091121b          	slliw	x4,x2,0x9
    800031f4:	001171b3          	and	x3,x2,x1
    800031f8:	40008137          	lui	x2,0x40008
    800031fc:	00210133          	add	x2,x2,x2
    80003200:	f8012623          	sw	x0,-116(x2) # 40007f8c <_binary_lab3_test_bin_size+0x3ffdf458>
    80003204:	cf93809b          	addiw	x1,x7,-775 # ffffffffa4ae4cf9 <_binary_lab3_test_bin_end+0xffffffff24abc1c5>
    80003208:	2943031b          	addiw	x6,x6,660 # 49ac450 <_binary_lab3_test_bin_size+0x498391c>
    8000320c:	003a90b3          	sll	x1,x21,x3
    80003210:	40008837          	lui	x16,0x40008
    80003214:	01080833          	add	x16,x16,x16
    80003218:	f8283023          	sd	x2,-128(x16) # 40007f80 <_binary_lab3_test_bin_size+0x3ffdf44c>
    8000321c:	400081b7          	lui	x3,0x40008
    80003220:	003181b3          	add	x3,x3,x3
    80003224:	f81187a3          	sb	x1,-113(x3) # 40007f8f <_binary_lab3_test_bin_size+0x3ffdf45b>
    80003228:	0051813b          	addw	x2,x3,x5
    8000322c:	bcdea1b7          	lui	x3,0xbcdea
    80003230:	c8208ee3          	beq	x1,x2,80002ecc <_binary_lab3_test_bin_start+0x2ecc>
    80003234:	c99ff1ef          	jal	x3,80002ecc <_binary_lab3_test_bin_start+0x2ecc>
    80003238:	0052133b          	sllw	x6,x4,x5
    8000323c:	3a6e10b7          	lui	x1,0x3a6e1
    80003240:	400082b7          	lui	x5,0x40008
    80003244:	005282b3          	add	x5,x5,x5
    80003248:	f882b183          	ld	x3,-120(x5) # 40007f88 <_binary_lab3_test_bin_size+0x3ffdf454>
    8000324c:	0020d3b3          	srl	x7,x1,x2
    80003250:	05ab4097          	auipc	x1,0x5ab4
    80003254:	400081b7          	lui	x3,0x40008
    80003258:	003181b3          	add	x3,x3,x3
    8000325c:	f821b023          	sd	x2,-128(x3) # 40007f80 <_binary_lab3_test_bin_size+0x3ffdf44c>
    80003260:	40008137          	lui	x2,0x40008
    80003264:	00210133          	add	x2,x2,x2
    80003268:	f8413423          	sd	x4,-120(x2) # 40007f88 <_binary_lab3_test_bin_size+0x3ffdf454>
    8000326c:	4030d2bb          	sraw	x5,x1,x3
    80003270:	829e8137          	lui	x2,0x829e8
    80003274:	00d3109b          	slliw	x1,x6,0xd
    80003278:	4181d13b          	sraw	x2,x3,x24
    8000327c:	ac103013          	sltiu	x0,x0,-1343
    80003280:	da2f0117          	auipc	x2,0xda2f0
    80003284:	c3775117          	auipc	x2,0xc3775
    80003288:	6b62019b          	addiw	x3,x4,1718 # ffffffffcd77d62e <_binary_lab3_test_bin_end+0xffffffff4d754afa>
    8000328c:	0071c0b3          	xor	x1,x3,x7
    80003290:	00d0931b          	slliw	x6,x1,0xd
    80003294:	0030b1b3          	sltu	x3,x1,x3
    80003298:	ff99f1b7          	lui	x3,0xff99f
    8000329c:	4020d1bb          	sraw	x3,x1,x2
    800032a0:	2946c317          	auipc	x6,0x2946c
    800032a4:	e1313213          	sltiu	x4,x2,-493
    800032a8:	4010853b          	subw	x10,x1,x1
    800032ac:	1001f297          	auipc	x5,0x1001f
    800032b0:	0032d1bb          	srlw	x3,x5,x3
    800032b4:	58e951b7          	lui	x3,0x58e95
    800032b8:	01d0919b          	slliw	x3,x1,0x1d
    800032bc:	00010113          	mv	x2,x2
    800032c0:	ae210ae3          	beq	x2,x2,80002db4 <_binary_lab3_test_bin_start+0x2db4>
    800032c4:	8ff0a093          	slti	x1,x1,-1793
    800032c8:	0010d133          	srl	x2,x1,x1
    800032cc:	00105013          	srli	x0,x0,0x1
    800032d0:	00737133          	and	x2,x6,x7
    800032d4:	40218133          	sub	x2,x3,x2
    800032d8:	4031d0bb          	sraw	x1,x3,x3
    800032dc:	401280b3          	sub	x1,x5,x1
    800032e0:	002152bb          	srlw	x5,x2,x2
    800032e4:	03309113          	slli	x2,x1,0x33
    800032e8:	40008137          	lui	x2,0x40008
    800032ec:	00210133          	add	x2,x2,x2
    800032f0:	f8111623          	sh	x1,-116(x2) # 40007f8c <_binary_lab3_test_bin_size+0x3ffdf458>
    800032f4:	003212bb          	sllw	x5,x4,x3
    800032f8:	69708113          	addi	x2,x1,1687 # 85ab78e7 <_binary_lab3_test_bin_end+0x5a8edb3>
    800032fc:	7d795337          	lui	x6,0x7d795
    80003300:	25ee6117          	auipc	x2,0x25ee6
    80003304:	00f1111b          	slliw	x2,x2,0xf
    80003308:	8478b197          	auipc	x3,0x8478b
    8000330c:	00931393          	slli	x7,x6,0x9
    80003310:	40b0d09b          	sraiw	x1,x1,0xb
    80003314:	003191b3          	sll	x3,x3,x3
    80003318:	916d1397          	auipc	x7,0x916d1
    8000331c:	400081b7          	lui	x3,0x40008
    80003320:	003181b3          	add	x3,x3,x3
    80003324:	f851b023          	sd	x5,-128(x3) # 40007f80 <_binary_lab3_test_bin_size+0x3ffdf44c>
    80003328:	40008337          	lui	x6,0x40008
    8000332c:	00630333          	add	x6,x6,x6
    80003330:	f8332023          	sw	x3,-128(x6) # 40007f80 <_binary_lab3_test_bin_size+0x3ffdf44c>
    80003334:	400080b7          	lui	x1,0x40008
    80003338:	001080b3          	add	x1,x1,x1
    8000333c:	f830b023          	sd	x3,-128(x1) # 40007f80 <_binary_lab3_test_bin_size+0x3ffdf44c>
    80003340:	ea34c097          	auipc	x1,0xea34c
    80003344:	bd70821b          	addiw	x4,x1,-1065 # 6a34ef17 <_binary_lab3_test_bin_size+0x6a3263e3>
    80003348:	0087509b          	srliw	x1,x14,0x8
    8000334c:	00000013          	nop
    80003350:	12000863          	beqz	x0,80003480 <_binary_lab3_test_bin_start+0x3480>
    80003354:	9330b137          	lui	x2,0x9330b
    80003358:	00223133          	sltu	x2,x4,x2
    8000335c:	400080b7          	lui	x1,0x40008
    80003360:	001080b3          	add	x1,x1,x1
    80003364:	f880b083          	ld	x1,-120(x1) # 40007f88 <_binary_lab3_test_bin_size+0x3ffdf454>
    80003368:	00313033          	sltu	x0,x2,x3
    8000336c:	01c1119b          	slliw	x3,x2,0x1c
    80003370:	d1019197          	auipc	x3,0xd1019
    80003374:	400086b7          	lui	x13,0x40008
    80003378:	00d686b3          	add	x13,x13,x13
    8000337c:	f8369223          	sh	x3,-124(x13) # 40007f84 <_binary_lab3_test_bin_size+0x3ffdf450>
    80003380:	e172c213          	xori	x4,x5,-489
    80003384:	0020d13b          	srlw	x2,x1,x2
    80003388:	3fc0b093          	sltiu	x1,x1,1020
    8000338c:	4033d1b3          	sra	x3,x7,x3
    80003390:	62e12193          	slti	x3,x2,1582
    80003394:	ac908113          	addi	x2,x1,-1335
    80003398:	40008137          	lui	x2,0x40008
    8000339c:	00210133          	add	x2,x2,x2
    800033a0:	f8113423          	sd	x1,-120(x2) # 40007f88 <_binary_lab3_test_bin_size+0x3ffdf454>
    800033a4:	0040d31b          	srliw	x6,x1,0x4
    800033a8:	00703133          	snez	x2,x7
    800033ac:	0cb0e213          	ori	x4,x1,203
    800033b0:	0023101b          	slliw	x0,x6,0x2
    800033b4:	400081b7          	lui	x3,0x40008
    800033b8:	003181b3          	add	x3,x3,x3
    800033bc:	f861d103          	lhu	x2,-122(x3) # 40007f86 <_binary_lab3_test_bin_size+0x3ffdf452>
    800033c0:	400081b7          	lui	x3,0x40008
    800033c4:	003181b3          	add	x3,x3,x3
    800033c8:	f881b103          	ld	x2,-120(x3) # 40007f88 <_binary_lab3_test_bin_size+0x3ffdf454>
    800033cc:	c9116113          	ori	x2,x2,-879
    800033d0:	40250133          	sub	x2,x10,x2
    800033d4:	cdaf9197          	auipc	x3,0xcdaf9
    800033d8:	45114217          	auipc	x4,0x45114
    800033dc:	402150bb          	sraw	x1,x2,x2
    800033e0:	8e673137          	lui	x2,0x8e673
    800033e4:	b82080e3          	beq	x1,x2,80002f64 <_binary_lab3_test_bin_start+0x2f64>
    800033e8:	b7dff16f          	jal	x2,80002f64 <_binary_lab3_test_bin_start+0x2f64>
    800033ec:	25e841b7          	lui	x3,0x25e84
    800033f0:	001130b3          	sltu	x1,x2,x1
    800033f4:	0062d0b3          	srl	x1,x5,x6
    800033f8:	400082b7          	lui	x5,0x40008
    800033fc:	005282b3          	add	x5,x5,x5
    80003400:	f832c103          	lbu	x2,-125(x5) # 40007f83 <_binary_lab3_test_bin_size+0x3ffdf44f>
    80003404:	0011d1b3          	srl	x3,x3,x1
    80003408:	40010133          	sub	x2,x2,x0
    8000340c:	63328093          	addi	x1,x5,1587
    80003410:	69410213          	addi	x4,x2,1684 # ffffffff8e673694 <_binary_lab3_test_bin_end+0xffffffff0e64ab60>
    80003414:	00321133          	sll	x2,x4,x3
    80003418:	000070b3          	and	x1,x0,x0
    8000341c:	40008337          	lui	x6,0x40008
    80003420:	00630333          	add	x6,x6,x6
    80003424:	f8333423          	sd	x3,-120(x6) # 40007f88 <_binary_lab3_test_bin_size+0x3ffdf454>
    80003428:	01c171b3          	and	x3,x2,x28
    8000342c:	002130b3          	sltu	x1,x2,x2
    80003430:	00216133          	or	x2,x2,x2
    80003434:	400082b7          	lui	x5,0x40008
    80003438:	005282b3          	add	x5,x5,x5
    8000343c:	f822a423          	sw	x2,-120(x5) # 40007f88 <_binary_lab3_test_bin_size+0x3ffdf454>
    80003440:	a804e113          	ori	x2,x9,-1408
    80003444:	9f61e113          	ori	x2,x3,-1546
    80003448:	400081b7          	lui	x3,0x40008
    8000344c:	003181b3          	add	x3,x3,x3
    80003450:	f801b423          	sd	x0,-120(x3) # 40007f88 <_binary_lab3_test_bin_size+0x3ffdf454>
    80003454:	003120b3          	slt	x1,x2,x3
    80003458:	0af69197          	auipc	x3,0xaf69
    8000345c:	0012c133          	xor	x2,x5,x1
    80003460:	aac9b197          	auipc	x3,0xaac9b
    80003464:	002110b3          	sll	x1,x2,x2
    80003468:	40d4d79b          	sraiw	x15,x9,0xd
    8000346c:	400080b7          	lui	x1,0x40008
    80003470:	001080b3          	add	x1,x1,x1
    80003474:	f81081a3          	sb	x1,-125(x1) # 40007f83 <_binary_lab3_test_bin_size+0x3ffdf44f>
    80003478:	ec00fee3          	bgeu	x1,x0,80003354 <_binary_lab3_test_bin_start+0x3354>
    8000347c:	ec00ece3          	bltu	x1,x0,80003354 <_binary_lab3_test_bin_start+0x3354>
    80003480:	400085b7          	lui	x11,0x40008
    80003484:	00b585b3          	add	x11,x11,x11
    80003488:	f885b303          	ld	x6,-120(x11) # 40007f88 <_binary_lab3_test_bin_size+0x3ffdf454>
    8000348c:	c2f421b7          	lui	x3,0xc2f42
    80003490:	002130b3          	sltu	x1,x2,x2
    80003494:	0020903b          	sllw	x0,x1,x2
    80003498:	400081b7          	lui	x3,0x40008
    8000349c:	003181b3          	add	x3,x3,x3
    800034a0:	f881a103          	lw	x2,-120(x3) # 40007f88 <_binary_lab3_test_bin_size+0x3ffdf454>
    800034a4:	0030d193          	srli	x3,x1,0x3
    800034a8:	32f13113          	sltiu	x2,x2,815
    800034ac:	0cd40193          	addi	x3,x8,205
    800034b0:	4601b393          	sltiu	x7,x3,1120
    800034b4:	e9602097          	auipc	x1,0xe9602
    800034b8:	40008137          	lui	x2,0x40008
    800034bc:	00210133          	add	x2,x2,x2
    800034c0:	f8e14183          	lbu	x3,-114(x2) # 40007f8e <_binary_lab3_test_bin_size+0x3ffdf45a>
    800034c4:	8f854097          	auipc	x1,0x8f854
    800034c8:	03339193          	slli	x3,x7,0x33
    800034cc:	98a14293          	xori	x5,x2,-1654
    800034d0:	0161dc9b          	srliw	x25,x3,0x16
    800034d4:	29110193          	addi	x3,x2,657
    800034d8:	00225c3b          	srlw	x24,x4,x2
    800034dc:	00811a9b          	slliw	x21,x2,0x8
    800034e0:	a981811b          	addiw	x2,x3,-1384
    800034e4:	e1996117          	auipc	x2,0xe1996
    800034e8:	7a02019b          	addiw	x3,x4,1952 # ffffffffc5117b78 <_binary_lab3_test_bin_end+0xffffffff450ef044>
    800034ec:	0d917113          	andi	x2,x2,217
    800034f0:	400080b7          	lui	x1,0x40008
    800034f4:	001080b3          	add	x1,x1,x1
    800034f8:	f8109423          	sh	x1,-120(x1) # 40007f88 <_binary_lab3_test_bin_size+0x3ffdf454>
    800034fc:	00000117          	auipc	x2,0x0
    80003500:	008102e7          	jalr	x5,8(x2) # 80003504 <_binary_lab3_test_bin_start+0x3504>
    80003504:	f529d0b7          	lui	x1,0xf529d
    80003508:	03b3d293          	srli	x5,x7,0x3b
    8000350c:	400081b7          	lui	x3,0x40008
    80003510:	003181b3          	add	x3,x3,x3
    80003514:	f801b283          	ld	x5,-128(x3) # 40007f80 <_binary_lab3_test_bin_size+0x3ffdf44c>
    80003518:	43115093          	srai	x1,x2,0x31
    8000351c:	41a0d393          	srai	x7,x1,0x1a
    80003520:	400081b7          	lui	x3,0x40008
    80003524:	003181b3          	add	x3,x3,x3
    80003528:	f8219623          	sh	x2,-116(x3) # 40007f8c <_binary_lab3_test_bin_size+0x3ffdf458>
    8000352c:	40008237          	lui	x4,0x40008
    80003530:	00420233          	add	x4,x4,x4
    80003534:	f8323423          	sd	x3,-120(x4) # 40007f88 <_binary_lab3_test_bin_size+0x3ffdf454>
    80003538:	0566c1b7          	lui	x3,0x566c
    8000353c:	0030d09b          	srliw	x1,x1,0x3
    80003540:	00313333          	sltu	x6,x2,x3
    80003544:	45bd49b7          	lui	x19,0x45bd4
    80003548:	1eccd117          	auipc	x2,0x1eccd
    8000354c:	87fed017          	auipc	x0,0x87fed
    80003550:	00c1d11b          	srliw	x2,x3,0xc
    80003554:	00663333          	sltu	x6,x12,x6
    80003558:	7843c1b7          	lui	x3,0x7843c
    8000355c:	a4b3d0b7          	lui	x1,0xa4b3d
    80003560:	8fd09137          	lui	x2,0x8fd09
    80003564:	04f30313          	addi	x6,x6,79
    80003568:	003351b3          	srl	x3,x6,x3
    8000356c:	0010d1b3          	srl	x3,x1,x1
    80003570:	0091913b          	sllw	x2,x3,x9
    80003574:	0026c1b3          	xor	x3,x13,x2
    80003578:	0020f3b3          	and	x7,x1,x2
    8000357c:	00b1b133          	sltu	x2,x3,x11
    80003580:	4b51809b          	addiw	x1,x3,1205 # 7843c4b5 <_binary_lab3_test_bin_size+0x78413981>
    80003584:	0091e1b3          	or	x3,x3,x9
    80003588:	00028093          	mv	x1,x5
    8000358c:	8a508ee3          	beq	x1,x5,80002e48 <_binary_lab3_test_bin_start+0x2e48>
    80003590:	34096197          	auipc	x3,0x34096
    80003594:	400080b7          	lui	x1,0x40008
    80003598:	001080b3          	add	x1,x1,x1
    8000359c:	f800a083          	lw	x1,-128(x1) # 40007f80 <_binary_lab3_test_bin_size+0x3ffdf44c>
    800035a0:	accfa0b7          	lui	x1,0xaccfa
    800035a4:	4032033b          	subw	x6,x4,x3
    800035a8:	9f4d9117          	auipc	x2,0x9f4d9
    800035ac:	400080b7          	lui	x1,0x40008
    800035b0:	001080b3          	add	x1,x1,x1
    800035b4:	f8208103          	lb	x2,-126(x1) # 40007f82 <_binary_lab3_test_bin_size+0x3ffdf44e>
    800035b8:	d5706093          	ori	x1,x0,-681
    800035bc:	00b1d11b          	srliw	x2,x3,0xb
    800035c0:	002f9133          	sll	x2,x31,x2
    800035c4:	0050109b          	slliw	x1,x0,0x5
    800035c8:	6aeb809b          	addiw	x1,x23,1710 # ffffffffc6e6d6ae <_binary_lab3_test_bin_end+0xffffffff46e44b7a>
    800035cc:	4011d2bb          	sraw	x5,x3,x1
    800035d0:	01713133          	sltu	x2,x2,x23
    800035d4:	cef1f113          	andi	x2,x3,-785
    800035d8:	8440b013          	sltiu	x0,x1,-1980
    800035dc:	7c216193          	ori	x3,x2,1986
    800035e0:	0060b0b3          	sltu	x1,x1,x6
    800035e4:	0011d1b3          	srl	x3,x3,x1
    800035e8:	d600e393          	ori	x7,x1,-672
    800035ec:	fd62819b          	addiw	x3,x5,-42
    800035f0:	4171d19b          	sraiw	x3,x3,0x17
    800035f4:	89aff113          	andi	x2,x31,-1894
    800035f8:	002170b3          	and	x1,x2,x2
    800035fc:	400082b7          	lui	x5,0x40008
    80003600:	005282b3          	add	x5,x5,x5
    80003604:	f842b423          	sd	x4,-120(x5) # 40007f88 <_binary_lab3_test_bin_size+0x3ffdf454>
    80003608:	5d7c81b7          	lui	x3,0x5d7c8
    8000360c:	0031b933          	sltu	x18,x3,x3
    80003610:	ae410ee3          	beq	x2,x4,8000310c <_binary_lab3_test_bin_start+0x310c>
    80003614:	af9ff1ef          	jal	x3,8000310c <_binary_lab3_test_bin_start+0x310c>
    80003618:	cb50b3b7          	lui	x7,0xcb50b
    8000361c:	4003d0b3          	sra	x1,x7,x0
    80003620:	00209093          	slli	x1,x1,0x2
    80003624:	ae3c73b7          	lui	x7,0xae3c7
    80003628:	e4574d97          	auipc	x27,0xe4574
    8000362c:	40215133          	sra	x2,x2,x2
    80003630:	006170b3          	and	x1,x2,x6
    80003634:	0121511b          	srliw	x2,x2,0x12
    80003638:	ea1da117          	auipc	x2,0xea1da
    8000363c:	0040e333          	or	x6,x1,x4
    80003640:	40008137          	lui	x2,0x40008
    80003644:	00210133          	add	x2,x2,x2
    80003648:	f8211523          	sh	x2,-118(x2) # 40007f8a <_binary_lab3_test_bin_size+0x3ffdf456>
    8000364c:	3cf1011b          	addiw	x2,x2,975
    80003650:	4020d7b3          	sra	x15,x1,x2
    80003654:	401150bb          	sraw	x1,x2,x1
    80003658:	5741a093          	slti	x1,x3,1396
    8000365c:	0021d0bb          	srlw	x1,x3,x2
    80003660:	400081b7          	lui	x3,0x40008
    80003664:	003181b3          	add	x3,x3,x3
    80003668:	f881b183          	ld	x3,-120(x3) # 40007f88 <_binary_lab3_test_bin_size+0x3ffdf454>
    8000366c:	0030d0b3          	srl	x1,x1,x3
    80003670:	f3c42037          	lui	x0,0xf3c42
    80003674:	402000bb          	negw	x1,x2
    80003678:	02609113          	slli	x2,x1,0x26
    8000367c:	bbc50317          	auipc	x6,0xbbc50
    80003680:	be2d2093          	slti	x1,x26,-1054
    80003684:	400080b7          	lui	x1,0x40008
    80003688:	001080b3          	add	x1,x1,x1
    8000368c:	f880b103          	ld	x2,-120(x1) # 40007f88 <_binary_lab3_test_bin_size+0x3ffdf454>
    80003690:	4140511b          	sraiw	x2,x0,0x14
    80003694:	40008137          	lui	x2,0x40008
    80003698:	00210133          	add	x2,x2,x2
    8000369c:	f8813203          	ld	x4,-120(x2) # 40007f88 <_binary_lab3_test_bin_size+0x3ffdf454>
    800036a0:	00310463          	beq	x2,x3,800036a8 <_binary_lab3_test_bin_start+0x36a8>
    800036a4:	0040016f          	jal	x2,800036a8 <_binary_lab3_test_bin_start+0x36a8>
    800036a8:	400080b7          	lui	x1,0x40008
    800036ac:	001080b3          	add	x1,x1,x1
    800036b0:	f880b183          	ld	x3,-120(x1) # 40007f88 <_binary_lab3_test_bin_size+0x3ffdf454>
    800036b4:	eaf37137          	lui	x2,0xeaf37
    800036b8:	e203c097          	auipc	x1,0xe203c
    800036bc:	40008137          	lui	x2,0x40008
    800036c0:	00210133          	add	x2,x2,x2
    800036c4:	f8813083          	ld	x1,-120(x2) # 40007f88 <_binary_lab3_test_bin_size+0x3ffdf454>
    800036c8:	d9e820b7          	lui	x1,0xd9e82
    800036cc:	aea1a213          	slti	x4,x3,-1302
    800036d0:	4164d5bb          	sraw	x11,x9,x22
    800036d4:	003151b3          	srl	x3,x2,x3
    800036d8:	40325a3b          	sraw	x20,x4,x3
    800036dc:	0181d23b          	srlw	x4,x3,x24
    800036e0:	001121b3          	slt	x3,x2,x1
    800036e4:	dd66809b          	addiw	x1,x13,-554
    800036e8:	952ea217          	auipc	x4,0x952ea
    800036ec:	0011513b          	srlw	x2,x2,x1
    800036f0:	69640217          	auipc	x4,0x69640
    800036f4:	ec210097          	auipc	x1,0xec210
    800036f8:	ad1df137          	lui	x2,0xad1df
    800036fc:	400080b7          	lui	x1,0x40008
    80003700:	001080b3          	add	x1,x1,x1
    80003704:	f880e083          	lwu	x1,-120(x1) # 40007f88 <_binary_lab3_test_bin_size+0x3ffdf454>
    80003708:	8441f193          	andi	x3,x3,-1980
    8000370c:	2fdc7197          	auipc	x3,0x2fdc7
    80003710:	00210dbb          	addw	x27,x2,x2
    80003714:	00a1101b          	slliw	x0,x2,0xa
    80003718:	e1252197          	auipc	x3,0xe1252
    8000371c:	00018313          	mv	x6,x3
    80003720:	60330a63          	beq	x6,x3,80003d34 <_binary_lab3_test_bin_start+0x3d34>
    80003724:	f1e13193          	sltiu	x3,x2,-226
    80003728:	1cf8c117          	auipc	x2,0x1cf8c
    8000372c:	6c820213          	addi	x4,x4,1736 # e9643db8 <_binary_lab3_test_bin_end+0x6961b284>
    80003730:	0031813b          	addw	x2,x3,x3
    80003734:	33eb6097          	auipc	x1,0x33eb6
    80003738:	01f3111b          	slliw	x2,x6,0x1f
    8000373c:	f7acd197          	auipc	x3,0xf7acd
    80003740:	10108093          	addi	x1,x1,257 # b3eb9835 <_binary_lab3_test_bin_end+0x33e90d01>
    80003744:	400081b7          	lui	x3,0x40008
    80003748:	003181b3          	add	x3,x3,x3
    8000374c:	f881b183          	ld	x3,-120(x3) # 40007f88 <_binary_lab3_test_bin_size+0x3ffdf454>
    80003750:	6ba13137          	lui	x2,0x6ba13
    80003754:	36dea093          	slti	x1,x29,877
    80003758:	6f285097          	auipc	x1,0x6f285
    8000375c:	dc6071b7          	lui	x3,0xdc607
    80003760:	b481801b          	addiw	x0,x3,-1208 # ffffffffdc606b48 <_binary_lab3_test_bin_end+0xffffffff5c5de014>
    80003764:	a000b117          	auipc	x2,0xa000b
    80003768:	25614113          	xori	x2,x2,598
    8000376c:	51a4d137          	lui	x2,0x51a4d
    80003770:	0020e0b3          	or	x1,x1,x2
    80003774:	c3f7d217          	auipc	x4,0xc3f7d
    80003778:	004150bb          	srlw	x1,x2,x4
    8000377c:	8e8281b7          	lui	x3,0x8e828
    80003780:	400080b7          	lui	x1,0x40008
    80003784:	001080b3          	add	x1,x1,x1
    80003788:	f8d0c183          	lbu	x3,-115(x1) # 40007f8d <_binary_lab3_test_bin_size+0x3ffdf459>
    8000378c:	0170919b          	slliw	x3,x1,0x17
    80003790:	59b1021b          	addiw	x4,x2,1435 # 51a4d59b <_binary_lab3_test_bin_size+0x51a24a67>
    80003794:	0161131b          	slliw	x6,x2,0x16
    80003798:	14095e97          	auipc	x29,0x14095
    8000379c:	004c61b3          	or	x3,x24,x4
    800037a0:	ae52c137          	lui	x2,0xae52c
    800037a4:	c41384e3          	beq	x7,x1,800033ec <_binary_lab3_test_bin_start+0x33ec>
    800037a8:	c45ff1ef          	jal	x3,800033ec <_binary_lab3_test_bin_start+0x33ec>
    800037ac:	400084b7          	lui	x9,0x40008
    800037b0:	009484b3          	add	x9,x9,x9
    800037b4:	f8c49183          	lh	x3,-116(x9) # 40007f8c <_binary_lab3_test_bin_size+0x3ffdf458>
    800037b8:	1abf21b7          	lui	x3,0x1abf2
    800037bc:	b7413117          	auipc	x2,0xb7413
    800037c0:	3cc8a117          	auipc	x2,0x3cc8a
    800037c4:	01f2d29b          	srliw	x5,x5,0x1f
    800037c8:	e56bf3b7          	lui	x7,0xe56bf
    800037cc:	c32f4137          	lui	x2,0xc32f4
    800037d0:	0010a0b3          	slt	x1,x1,x1
    800037d4:	77918113          	addi	x2,x3,1913 # 1abf2779 <_binary_lab3_test_bin_size+0x1abc9c45>
    800037d8:	44a00113          	li	x2,1098
    800037dc:	005581bb          	addw	x3,x11,x5
    800037e0:	00e1119b          	slliw	x3,x2,0xe
    800037e4:	400081b7          	lui	x3,0x40008
    800037e8:	003181b3          	add	x3,x3,x3
    800037ec:	f871b423          	sd	x7,-120(x3) # 40007f88 <_binary_lab3_test_bin_size+0x3ffdf454>
    800037f0:	e6753213          	sltiu	x4,x10,-409
    800037f4:	d1e17293          	andi	x5,x2,-738
    800037f8:	367a6117          	auipc	x2,0x367a6
    800037fc:	cf0b10b7          	lui	x1,0xcf0b1
    80003800:	003102bb          	addw	x5,x2,x3
    80003804:	001091bb          	sllw	x3,x1,x1
    80003808:	00b3b133          	sltu	x2,x7,x11
    8000380c:	000f3333          	sltu	x6,x30,x0
    80003810:	400080b7          	lui	x1,0x40008
    80003814:	001080b3          	add	x1,x1,x1
    80003818:	f800b003          	ld	x0,-128(x1) # 40007f80 <_binary_lab3_test_bin_size+0x3ffdf44c>
    8000381c:	0841d197          	auipc	x3,0x841d
    80003820:	005101bb          	addw	x3,x2,x5
    80003824:	e0f7e093          	ori	x1,x15,-497
    80003828:	85e12113          	slti	x2,x2,-1954
    8000382c:	84310ee3          	beq	x2,x3,80003088 <_binary_lab3_test_bin_start+0x3088>
    80003830:	859ff26f          	jal	x4,80003088 <_binary_lab3_test_bin_start+0x3088>
    80003834:	b912e113          	ori	x2,x5,-1135
    80003838:	00b0d31b          	srliw	x6,x1,0xb
    8000383c:	1bd35097          	auipc	x1,0x1bd35
    80003840:	89e8c197          	auipc	x3,0x89e8c
    80003844:	01f1109b          	slliw	x1,x2,0x1f
    80003848:	c0c28013          	addi	x0,x5,-1012
    8000384c:	40230bb3          	sub	x23,x6,x2
    80003850:	400080b7          	lui	x1,0x40008
    80003854:	001080b3          	add	x1,x1,x1
    80003858:	f8509223          	sh	x5,-124(x1) # 40007f84 <_binary_lab3_test_bin_size+0x3ffdf450>
    8000385c:	be208193          	addi	x3,x1,-1054
    80003860:	007100b3          	add	x1,x2,x7
    80003864:	005290b3          	sll	x1,x5,x5
    80003868:	7989f317          	auipc	x6,0x7989f
    8000386c:	41f0d19b          	sraiw	x3,x1,0x1f
    80003870:	aa6ab197          	auipc	x3,0xaa6ab
    80003874:	00514333          	xor	x6,x2,x5
    80003878:	03c0d093          	srli	x1,x1,0x3c
    8000387c:	c95c21b7          	lui	x3,0xc95c2
    80003880:	0021b133          	sltu	x2,x3,x2
    80003884:	f537c193          	xori	x3,x15,-173
    80003888:	37998697          	auipc	x13,0x37998
    8000388c:	a3dfe117          	auipc	x2,0xa3dfe
    80003890:	4031dc3b          	sraw	x24,x3,x3
    80003894:	003191bb          	sllw	x3,x3,x3
    80003898:	ca1c3217          	auipc	x4,0xca1c3
    8000389c:	b394e1b7          	lui	x3,0xb394e
    800038a0:	7a80e193          	ori	x3,x1,1960
    800038a4:	95e4a117          	auipc	x2,0x95e4a
    800038a8:	0030b033          	sltu	x0,x1,x3
    800038ac:	4091513b          	sraw	x2,x2,x9
    800038b0:	26d01137          	lui	x2,0x26d01
    800038b4:	4161509b          	sraiw	x1,x2,0x16
    800038b8:	0c31f313          	andi	x6,x3,195
    800038bc:	402782b3          	sub	x5,x15,x2
    800038c0:	00115133          	srl	x2,x2,x1
    800038c4:	00308263          	beq	x1,x3,800038c8 <_binary_lab3_test_bin_start+0x38c8>
    800038c8:	1550016f          	jal	x2,8000421c <_binary_lab3_test_bin_start+0x421c>
    800038cc:	b4068093          	addi	x1,x13,-1216 # b799b3c8 <_binary_lab3_test_bin_end+0x37972894>
    800038d0:	0061969b          	slliw	x13,x3,0x6
    800038d4:	4030813b          	subw	x2,x1,x3
    800038d8:	221a8093          	addi	x1,x21,545 # 6a0d1131 <_binary_lab3_test_bin_size+0x6a0a85fd>
    800038dc:	001050bb          	srlw	x1,x0,x1
    800038e0:	400081b7          	lui	x3,0x40008
    800038e4:	003181b3          	add	x3,x3,x3
    800038e8:	f8e1d783          	lhu	x15,-114(x3) # 40007f8e <_binary_lab3_test_bin_size+0x3ffdf45a>
    800038ec:	4031511b          	sraiw	x2,x2,0x3
    800038f0:	e78651b7          	lui	x3,0xe7865
    800038f4:	baa15137          	lui	x2,0xbaa15
    800038f8:	0012c133          	xor	x2,x5,x1
    800038fc:	db515097          	auipc	x1,0xdb515
    80003900:	0001903b          	sllw	x0,x3,x0
    80003904:	0060d0bb          	srlw	x1,x1,x6
    80003908:	400080b7          	lui	x1,0x40008
    8000390c:	001080b3          	add	x1,x1,x1
    80003910:	f820b023          	sd	x2,-128(x1) # 40007f80 <_binary_lab3_test_bin_size+0x3ffdf44c>
    80003914:	07821197          	auipc	x3,0x7821
    80003918:	4011d3b3          	sra	x7,x3,x1
    8000391c:	0000b0b3          	sltu	x1,x1,x0
    80003920:	88c14113          	xori	x2,x2,-1908
    80003924:	9aeca193          	slti	x3,x25,-1618
    80003928:	b597f213          	andi	x4,x15,-1191
    8000392c:	b8a1e0b7          	lui	x1,0xb8a1e
    80003930:	cdb23093          	sltiu	x1,x4,-805
    80003934:	00219093          	slli	x1,x3,0x2
    80003938:	400083b7          	lui	x7,0x40008
    8000393c:	007383b3          	add	x7,x7,x7
    80003940:	f8138623          	sb	x1,-116(x7) # 40007f8c <_binary_lab3_test_bin_size+0x3ffdf458>
    80003944:	c9088137          	lui	x2,0xc9088
    80003948:	ad7ed197          	auipc	x3,0xad7ed
    8000394c:	83ed2117          	auipc	x2,0x83ed2
    80003950:	00000093          	li	x1,0
    80003954:	00008263          	beqz	x1,80003958 <_binary_lab3_test_bin_start+0x3958>
    80003958:	40ae5093          	srai	x1,x28,0xa
    8000395c:	40008337          	lui	x6,0x40008
    80003960:	00630333          	add	x6,x6,x6
    80003964:	f8133023          	sd	x1,-128(x6) # 40007f80 <_binary_lab3_test_bin_size+0x3ffdf44c>
    80003968:	402003b3          	neg	x7,x2
    8000396c:	00a1919b          	slliw	x3,x3,0xa
    80003970:	e9f17093          	andi	x1,x2,-353
    80003974:	6ae0f093          	andi	x1,x1,1710
    80003978:	4045813b          	subw	x2,x11,x4
    8000397c:	001100b3          	add	x1,x2,x1
    80003980:	0040803b          	addw	x0,x1,x4
    80003984:	98513193          	sltiu	x3,x2,-1659
    80003988:	40008137          	lui	x2,0x40008
    8000398c:	00210133          	add	x2,x2,x2
    80003990:	f8e11283          	lh	x5,-114(x2) # 40007f8e <_binary_lab3_test_bin_size+0x3ffdf45a>
    80003994:	56258197          	auipc	x3,0x56258
    80003998:	9c20821b          	addiw	x4,x1,-1598 # ffffffffb8a1d9c2 <_binary_lab3_test_bin_end+0xffffffff389f4e8e>
    8000399c:	0192c133          	xor	x2,x5,x25
    800039a0:	ac0fb0b7          	lui	x1,0xac0fb
    800039a4:	003256bb          	srlw	x13,x4,x3
    800039a8:	f525b117          	auipc	x2,0xf525b
    800039ac:	0fd0e213          	ori	x4,x1,253
    800039b0:	3e888137          	lui	x2,0x3e888
    800039b4:	01d11013          	slli	x0,x2,0x1d
    800039b8:	ddc0a193          	slti	x3,x1,-548
    800039bc:	00310133          	add	x2,x2,x3
    800039c0:	0061d333          	srl	x6,x3,x6
    800039c4:	003143b3          	xor	x7,x2,x3
    800039c8:	002090b3          	sll	x1,x1,x2
    800039cc:	d781c197          	auipc	x3,0xd781c
    800039d0:	40008137          	lui	x2,0x40008
    800039d4:	00210133          	add	x2,x2,x2
    800039d8:	f8813083          	ld	x1,-120(x2) # 40007f88 <_binary_lab3_test_bin_size+0x3ffdf454>
    800039dc:	08110863          	beq	x2,x1,80003a6c <_binary_lab3_test_bin_start+0x3a6c>
    800039e0:	08c000ef          	jal	80003a6c <_binary_lab3_test_bin_start+0x3a6c>
    800039e4:	02705113          	srli	x2,x0,0x27
    800039e8:	0020f1b3          	and	x3,x1,x2
    800039ec:	40008337          	lui	x6,0x40008
    800039f0:	00630333          	add	x6,x6,x6
    800039f4:	f8833183          	ld	x3,-120(x6) # 40007f88 <_binary_lab3_test_bin_size+0x3ffdf454>
    800039f8:	00d0531b          	srliw	x6,x0,0xd
    800039fc:	01109193          	slli	x3,x1,0x11
    80003a00:	001102bb          	addw	x5,x2,x1
    80003a04:	75e0e193          	ori	x3,x1,1886
    80003a08:	02f19113          	slli	x2,x3,0x2f
    80003a0c:	40008137          	lui	x2,0x40008
    80003a10:	00210133          	add	x2,x2,x2
    80003a14:	f8813303          	ld	x6,-120(x2) # 40007f88 <_binary_lab3_test_bin_size+0x3ffdf454>
    80003a18:	002182b3          	add	x5,x3,x2
    80003a1c:	6591021b          	addiw	x4,x2,1625
    80003a20:	4022dfbb          	sraw	x31,x5,x2
    80003a24:	4051d093          	srai	x1,x3,0x5
    80003a28:	0031e1b3          	or	x3,x3,x3
    80003a2c:	0020f0b3          	and	x1,x1,x2
    80003a30:	403253b3          	sra	x7,x4,x3
    80003a34:	0021b0b3          	sltu	x1,x3,x2
    80003a38:	a6714313          	xori	x6,x2,-1433
    80003a3c:	0050f1b3          	and	x3,x1,x5
    80003a40:	001091b3          	sll	x3,x1,x1
    80003a44:	0050bf33          	sltu	x30,x1,x5
    80003a48:	0143549b          	srliw	x9,x6,0x14
    80003a4c:	1191809b          	addiw	x1,x3,281 # 5781fae5 <_binary_lab3_test_bin_size+0x577f6fb1>
    80003a50:	9fa04117          	auipc	x2,0x9fa04
    80003a54:	60f24017          	auipc	x0,0x60f24
    80003a58:	03311113          	slli	x2,x2,0x33
    80003a5c:	02f19213          	slli	x4,x3,0x2f
    80003a60:	0c6b63b7          	lui	x7,0xc6b6
    80003a64:	1a310663          	beq	x2,x3,80003c10 <_binary_lab3_test_bin_start+0x3c10>
    80003a68:	1a8000ef          	jal	80003c10 <_binary_lab3_test_bin_start+0x3c10>
    80003a6c:	01a1119b          	slliw	x3,x2,0x1a
    80003a70:	1870f193          	andi	x3,x1,391
    80003a74:	400080b7          	lui	x1,0x40008
    80003a78:	001080b3          	add	x1,x1,x1
    80003a7c:	f800e103          	lwu	x2,-128(x1) # 40007f80 <_binary_lab3_test_bin_size+0x3ffdf44c>
    80003a80:	03409113          	slli	x2,x1,0x34
    80003a84:	0001803b          	addw	x0,x3,x0
    80003a88:	1f061097          	auipc	x1,0x1f061
    80003a8c:	0090d213          	srli	x4,x1,0x9
    80003a90:	4071013b          	subw	x2,x2,x7
    80003a94:	0021e1b3          	or	x3,x3,x2
    80003a98:	3f60e413          	ori	x8,x1,1014
    80003a9c:	f2b78197          	auipc	x3,0xf2b78
    80003aa0:	ee1ce117          	auipc	x2,0xee1ce
    80003aa4:	6493009b          	addiw	x1,x6,1609
    80003aa8:	ced28097          	auipc	x1,0xced28
    80003aac:	41d151bb          	sraw	x3,x2,x29
    80003ab0:	0000c1b3          	xor	x3,x1,x0
    80003ab4:	0041a2b3          	slt	x5,x3,x4
    80003ab8:	e0627393          	andi	x7,x4,-506
    80003abc:	4010d033          	sra	x0,x1,x1
    80003ac0:	0011d233          	srl	x4,x3,x1
    80003ac4:	002110b3          	sll	x1,x2,x2
    80003ac8:	c690b293          	sltiu	x5,x1,-919
    80003acc:	d4a470b7          	lui	x1,0xd4a47
    80003ad0:	0063d533          	srl	x10,x7,x6
    80003ad4:	400080b7          	lui	x1,0x40008
    80003ad8:	001080b3          	add	x1,x1,x1
    80003adc:	f830b023          	sd	x3,-128(x1) # 40007f80 <_binary_lab3_test_bin_size+0x3ffdf44c>
    80003ae0:	01a1911b          	slliw	x2,x3,0x1a
    80003ae4:	54004093          	xori	x1,x0,1344
    80003ae8:	00078093          	mv	x1,x15
    80003aec:	46f08c63          	beq	x1,x15,80003f64 <_binary_lab3_test_bin_start+0x3f64>
    80003af0:	405081b3          	sub	x3,x1,x5
    80003af4:	23ab96b7          	lui	x13,0x23ab9
    80003af8:	01b0919b          	slliw	x3,x1,0x1b
    80003afc:	40008337          	lui	x6,0x40008
    80003b00:	00630333          	add	x6,x6,x6
    80003b04:	f8e31103          	lh	x2,-114(x6) # 40007f8e <_binary_lab3_test_bin_size+0x3ffdf45a>
    80003b08:	0ed0e213          	ori	x4,x1,237
    80003b0c:	0100d09b          	srliw	x1,x1,0x10
    80003b10:	9f598313          	addi	x6,x19,-1547 # 45bd39f5 <_binary_lab3_test_bin_size+0x45baaec1>
    80003b14:	4011d2b3          	sra	x5,x3,x1
    80003b18:	400081b7          	lui	x3,0x40008
    80003b1c:	003181b3          	add	x3,x3,x3
    80003b20:	f8218723          	sb	x2,-114(x3) # 40007f8e <_binary_lab3_test_bin_size+0x3ffdf45a>
    80003b24:	7be39117          	auipc	x2,0x7be39
    80003b28:	5a132013          	slti	x0,x6,1441
    80003b2c:	001350bb          	srlw	x1,x6,x1
    80003b30:	406081b3          	sub	x3,x1,x6
    80003b34:	42fff1b7          	lui	x3,0x42fff
    80003b38:	003151b3          	srl	x3,x2,x3
    80003b3c:	0030e133          	or	x2,x1,x3
    80003b40:	002291b3          	sll	x3,x5,x2
    80003b44:	0091109b          	slliw	x1,x2,0x9
    80003b48:	64106b17          	auipc	x22,0x64106
    80003b4c:	19708213          	addi	x4,x1,407
    80003b50:	0290b113          	sltiu	x2,x1,41
    80003b54:	b1b05197          	auipc	x3,0xb1b05
    80003b58:	fb41a013          	slti	x0,x3,-76
    80003b5c:	00f0911b          	slliw	x2,x1,0xf
    80003b60:	0011e133          	or	x2,x3,x1
    80003b64:	0051e0b3          	or	x1,x3,x5
    80003b68:	42413113          	sltiu	x2,x2,1060
    80003b6c:	12510a63          	beq	x2,x5,80003ca0 <_binary_lab3_test_bin_start+0x3ca0>
    80003b70:	1300016f          	jal	x2,80003ca0 <_binary_lab3_test_bin_start+0x3ca0>
    80003b74:	b1610093          	addi	x1,x2,-1258 # fbe3c63a <_binary_lab3_test_bin_end+0x7be13b06>
    80003b78:	42f1de13          	srai	x28,x3,0x2f
    80003b7c:	01b1119b          	slliw	x3,x2,0x1b
    80003b80:	40325133          	sra	x2,x4,x3
    80003b84:	a7602093          	slti	x1,x0,-1418
    80003b88:	0011b1b3          	sltu	x3,x3,x1
    80003b8c:	43315093          	srai	x1,x2,0x33
    80003b90:	00c0909b          	slliw	x1,x1,0xc
    80003b94:	bb0c3017          	auipc	x0,0xbb0c3
    80003b98:	00d184bb          	addw	x9,x3,x13
    80003b9c:	a1e6d217          	auipc	x4,0xa1e6d
    80003ba0:	efe14193          	xori	x3,x2,-258
    80003ba4:	2cc6e1b7          	lui	x3,0x2cc6e
    80003ba8:	40208133          	sub	x2,x1,x2
    80003bac:	400083b7          	lui	x7,0x40008
    80003bb0:	007383b3          	add	x7,x7,x7
    80003bb4:	f8d3b023          	sd	x13,-128(x7) # 40007f80 <_binary_lab3_test_bin_size+0x3ffdf44c>
    80003bb8:	0010d13b          	srlw	x2,x1,x1
    80003bbc:	007090bb          	sllw	x1,x1,x7
    80003bc0:	00f300bb          	addw	x1,x6,x15
    80003bc4:	c8a2a617          	auipc	x12,0xc8a2a
    80003bc8:	400082b7          	lui	x5,0x40008
    80003bcc:	005282b3          	add	x5,x5,x5
    80003bd0:	f80282a3          	sb	x0,-123(x5) # 40007f85 <_binary_lab3_test_bin_size+0x3ffdf451>
    80003bd4:	42e8d193          	srai	x3,x17,0x2e
    80003bd8:	40008137          	lui	x2,0x40008
    80003bdc:	00210133          	add	x2,x2,x2
    80003be0:	f8113423          	sd	x1,-120(x2) # 40007f88 <_binary_lab3_test_bin_size+0x3ffdf454>
    80003be4:	400087b7          	lui	x15,0x40008
    80003be8:	00f787b3          	add	x15,x15,x15
    80003bec:	f8678383          	lb	x7,-122(x15) # 40007f86 <_binary_lab3_test_bin_size+0x3ffdf452>
    80003bf0:	f8a121b7          	lui	x3,0xf8a12
    80003bf4:	75f3a117          	auipc	x2,0x75f3a
    80003bf8:	00b180b3          	add	x1,x3,x11
    80003bfc:	400080b7          	lui	x1,0x40008
    80003c00:	001080b3          	add	x1,x1,x1
    80003c04:	f880b103          	ld	x2,-120(x1) # 40007f88 <_binary_lab3_test_bin_size+0x3ffdf454>
    80003c08:	1c10f063          	bgeu	x1,x1,80003dc8 <_binary_lab3_test_bin_start+0x3dc8>
    80003c0c:	1a10ee63          	bltu	x1,x1,80003dc8 <_binary_lab3_test_bin_start+0x3dc8>
    80003c10:	7a20829b          	addiw	x5,x1,1954
    80003c14:	80b0a117          	auipc	x2,0x80b0a
    80003c18:	003091bb          	sllw	x3,x1,x3
    80003c1c:	3df6f1b7          	lui	x3,0x3df6f
    80003c20:	b5b97137          	lui	x2,0xb5b97
    80003c24:	40008337          	lui	x6,0x40008
    80003c28:	00630333          	add	x6,x6,x6
    80003c2c:	f8c36083          	lwu	x1,-116(x6) # 40007f8c <_binary_lab3_test_bin_size+0x3ffdf458>
    80003c30:	01d39193          	slli	x3,x7,0x1d
    80003c34:	0032a133          	slt	x2,x5,x3
    80003c38:	001251bb          	srlw	x3,x4,x1
    80003c3c:	0041d133          	srl	x2,x3,x4
    80003c40:	b831c493          	xori	x9,x3,-1149
    80003c44:	001670b3          	and	x1,x12,x1
    80003c48:	0191511b          	srliw	x2,x2,0x19
    80003c4c:	01235113          	srli	x2,x6,0x12
    80003c50:	f70d5217          	auipc	x4,0xf70d5
    80003c54:	001151b3          	srl	x3,x2,x1
    80003c58:	aa83c193          	xori	x3,x7,-1368
    80003c5c:	f1033317          	auipc	x6,0xf1033
    80003c60:	7cb1b393          	sltiu	x7,x3,1995
    80003c64:	4040d03b          	sraw	x0,x1,x4
    80003c68:	41c0d193          	srai	x3,x1,0x1c
    80003c6c:	7780821b          	addiw	x4,x1,1912
    80003c70:	a570009b          	addiw	x1,x0,-1449
    80003c74:	00d15213          	srli	x4,x2,0xd
    80003c78:	f7814113          	xori	x2,x2,-136
    80003c7c:	402101b3          	sub	x3,x2,x2
    80003c80:	6c329017          	auipc	x0,0x6c329
    80003c84:	001082b3          	add	x5,x1,x1
    80003c88:	b05a9217          	auipc	x4,0xb05a9
    80003c8c:	2ec13113          	sltiu	x2,x2,748
    80003c90:	cecfe0b7          	lui	x1,0xcecfe
    80003c94:	50efce37          	lui	x28,0x50efc
    80003c98:	1a10f663          	bgeu	x1,x1,80003e44 <_binary_lab3_test_bin_start+0x3e44>
    80003c9c:	1a10e463          	bltu	x1,x1,80003e44 <_binary_lab3_test_bin_start+0x3e44>
    80003ca0:	62279137          	lui	x2,0x62279
    80003ca4:	00a1901b          	slliw	x0,x3,0xa
    80003ca8:	4051d13b          	sraw	x2,x3,x5
    80003cac:	fd932193          	slti	x3,x6,-39
    80003cb0:	9c847297          	auipc	x5,0x9c847
    80003cb4:	400081b7          	lui	x3,0x40008
    80003cb8:	003181b3          	add	x3,x3,x3
    80003cbc:	f821b023          	sd	x2,-128(x3) # 40007f80 <_binary_lab3_test_bin_size+0x3ffdf44c>
    80003cc0:	6d4fe097          	auipc	x1,0x6d4fe
    80003cc4:	17f1c137          	lui	x2,0x17f1c
    80003cc8:	403081b3          	sub	x3,x1,x3
    80003ccc:	f5b520b7          	lui	x1,0xf5b52
    80003cd0:	41e3511b          	sraiw	x2,x6,0x1e
    80003cd4:	68e1019b          	addiw	x3,x2,1678 # 17f1c68e <_binary_lab3_test_bin_size+0x17ef3b5a>
    80003cd8:	006008b3          	add	x17,x0,x6
    80003cdc:	401f00bb          	subw	x1,x30,x1
    80003ce0:	9251e337          	lui	x6,0x9251e
    80003ce4:	00c300bb          	addw	x1,x6,x12
    80003ce8:	00d1911b          	slliw	x2,x3,0xd
    80003cec:	400080b7          	lui	x1,0x40008
    80003cf0:	001080b3          	add	x1,x1,x1
    80003cf4:	f800b103          	ld	x2,-128(x1) # 40007f80 <_binary_lab3_test_bin_size+0x3ffdf44c>
    80003cf8:	7aab7193          	andi	x3,x22,1962
    80003cfc:	f3e18113          	addi	x2,x3,-194
    80003d00:	0130803b          	addw	x0,x1,x19
    80003d04:	0030013b          	addw	x2,x0,x3
    80003d08:	7f71c393          	xori	x7,x3,2039
    80003d0c:	0020a9b3          	slt	x19,x1,x2
    80003d10:	9d40f193          	andi	x3,x1,-1580
    80003d14:	4251d193          	srai	x3,x3,0x25
    80003d18:	93e17117          	auipc	x2,0x93e17
    80003d1c:	fb00e693          	ori	x13,x1,-80
    80003d20:	0031d23b          	srlw	x4,x3,x3
    80003d24:	f9758093          	addi	x1,x11,-105
    80003d28:	79eed1b7          	lui	x3,0x79eed
    80003d2c:	00258263          	beq	x11,x2,80003d30 <_binary_lab3_test_bin_start+0x3d30>
    80003d30:	1a9002ef          	jal	x5,800046d8 <_binary_lab3_test_bin_start+0x46d8>
    80003d34:	6d253137          	lui	x2,0x6d253
    80003d38:	17017113          	andi	x2,x2,368
    80003d3c:	001100bb          	addw	x1,x2,x1
    80003d40:	40610133          	sub	x2,x2,x6
    80003d44:	0103519b          	srliw	x3,x6,0x10
    80003d48:	40008137          	lui	x2,0x40008
    80003d4c:	00210133          	add	x2,x2,x2
    80003d50:	f8013103          	ld	x2,-128(x2) # 40007f80 <_binary_lab3_test_bin_size+0x3ffdf44c>
    80003d54:	e60a4097          	auipc	x1,0xe60a4
    80003d58:	68a2819b          	addiw	x3,x5,1674 # 1c84b33a <_binary_lab3_test_bin_size+0x1c822806>
    80003d5c:	400080b7          	lui	x1,0x40008
    80003d60:	001080b3          	add	x1,x1,x1
    80003d64:	f880b203          	ld	x4,-120(x1) # 40007f88 <_binary_lab3_test_bin_size+0x3ffdf454>
    80003d68:	c02b6397          	auipc	x7,0xc02b6
    80003d6c:	0191d13b          	srlw	x2,x3,x25
    80003d70:	40008237          	lui	x4,0x40008
    80003d74:	00420233          	add	x4,x4,x4
    80003d78:	f81202a3          	sb	x1,-123(x4) # 40007f85 <_binary_lab3_test_bin_size+0x3ffdf451>
    80003d7c:	4040d133          	sra	x2,x1,x4
    80003d80:	4001d09b          	sraiw	x1,x3,0x0
    80003d84:	403ed0bb          	sraw	x1,x29,x3
    80003d88:	02609393          	slli	x7,x1,0x26
    80003d8c:	a64140b7          	lui	x1,0xa6414
    80003d90:	0010f133          	and	x2,x1,x1
    80003d94:	002081b3          	add	x3,x1,x2
    80003d98:	d751811b          	addiw	x2,x3,-651 # 79eecd75 <_binary_lab3_test_bin_size+0x79ec4241>
    80003d9c:	1ea67197          	auipc	x3,0x1ea67
    80003da0:	0040b3b3          	sltu	x7,x1,x4
    80003da4:	f1c7d0b7          	lui	x1,0xf1c7d
    80003da8:	0020e133          	or	x2,x1,x2
    80003dac:	400080b7          	lui	x1,0x40008
    80003db0:	001080b3          	add	x1,x1,x1
    80003db4:	f800b183          	ld	x3,-128(x1) # 40007f80 <_binary_lab3_test_bin_size+0x3ffdf44c>
    80003db8:	4110d11b          	sraiw	x2,x1,0x11
    80003dbc:	402081bb          	subw	x3,x1,x2
    80003dc0:	00058113          	mv	x2,x11
    80003dc4:	b0b104e3          	beq	x2,x11,800038cc <_binary_lab3_test_bin_start+0x38cc>
    80003dc8:	403081b3          	sub	x3,x1,x3
    80003dcc:	0030113b          	sllw	x2,x0,x3
    80003dd0:	4050813b          	subw	x2,x1,x5
    80003dd4:	003661b3          	or	x3,x12,x3
    80003dd8:	40008237          	lui	x4,0x40008
    80003ddc:	00420233          	add	x4,x4,x4
    80003de0:	f8020183          	lb	x3,-128(x4) # 40007f80 <_binary_lab3_test_bin_size+0x3ffdf44c>
    80003de4:	d45b0197          	auipc	x3,0xd45b0
    80003de8:	0180d09b          	srliw	x1,x1,0x18
    80003dec:	039e1193          	slli	x3,x28,0x39
    80003df0:	76c37097          	auipc	x1,0x76c37
    80003df4:	00116033          	or	x0,x2,x1
    80003df8:	7e64f0b7          	lui	x1,0x7e64f
    80003dfc:	0022e1b3          	or	x3,x5,x2
    80003e00:	00214133          	xor	x2,x2,x2
    80003e04:	001031b3          	snez	x3,x1
    80003e08:	8e71a113          	slti	x2,x3,-1817
    80003e0c:	0060a333          	slt	x6,x1,x6
    80003e10:	0034b033          	sltu	x0,x9,x3
    80003e14:	002151b3          	srl	x3,x2,x2
    80003e18:	000101bb          	addw	x3,x2,x0
    80003e1c:	d7338193          	addi	x3,x7,-653 # 402b9adb <_binary_lab3_test_bin_size+0x40290fa7>
    80003e20:	400082b7          	lui	x5,0x40008
    80003e24:	005282b3          	add	x5,x5,x5
    80003e28:	f8128223          	sb	x1,-124(x5) # 40007f84 <_binary_lab3_test_bin_size+0x3ffdf450>
    80003e2c:	0055d13b          	srlw	x2,x11,x5
    80003e30:	40008137          	lui	x2,0x40008
    80003e34:	00210133          	add	x2,x2,x2
    80003e38:	f81104a3          	sb	x1,-119(x2) # 40007f89 <_binary_lab3_test_bin_size+0x3ffdf455>
    80003e3c:	2441f063          	bgeu	x3,x4,8000407c <_binary_lab3_test_bin_start+0x407c>
    80003e40:	2241ee63          	bltu	x3,x4,8000407c <_binary_lab3_test_bin_start+0x407c>
    80003e44:	287cc097          	auipc	x1,0x287cc
    80003e48:	00315d3b          	srlw	x26,x2,x3
    80003e4c:	01d0911b          	slliw	x2,x1,0x1d
    80003e50:	0001131b          	slliw	x6,x2,0x0
    80003e54:	f2216093          	ori	x1,x2,-222
    80003e58:	7c01011b          	addiw	x2,x2,1984
    80003e5c:	b12bb3b7          	lui	x7,0xb12bb
    80003e60:	02119013          	slli	x0,x3,0x21
    80003e64:	2fc0e113          	ori	x2,x1,764
    80003e68:	001206bb          	addw	x13,x4,x1
    80003e6c:	c4d12213          	slti	x4,x2,-947
    80003e70:	40008137          	lui	x2,0x40008
    80003e74:	00210133          	add	x2,x2,x2
    80003e78:	f8113423          	sd	x1,-120(x2) # 40007f88 <_binary_lab3_test_bin_size+0x3ffdf454>
    80003e7c:	0073d0bb          	srlw	x1,x7,x7
    80003e80:	402150b3          	sra	x1,x2,x2
    80003e84:	0030f133          	and	x2,x1,x3
    80003e88:	ab494397          	auipc	x7,0xab494
    80003e8c:	0060d13b          	srlw	x2,x1,x6
    80003e90:	c50372b7          	lui	x5,0xc5037
    80003e94:	00c3e0b3          	or	x1,x7,x12
    80003e98:	ab614213          	xori	x4,x2,-1354
    80003e9c:	b075c097          	auipc	x1,0xb075c
    80003ea0:	f4b5b193          	sltiu	x3,x11,-181
    80003ea4:	00d0909b          	slliw	x1,x1,0xd
    80003ea8:	400081b7          	lui	x3,0x40008
    80003eac:	003181b3          	add	x3,x3,x3
    80003eb0:	f801b103          	ld	x2,-128(x3) # 40007f80 <_binary_lab3_test_bin_size+0x3ffdf44c>
    80003eb4:	27b1819b          	addiw	x3,x3,635
    80003eb8:	0030c0b3          	xor	x1,x1,x3
    80003ebc:	002120b3          	slt	x1,x2,x2
    80003ec0:	4000d0bb          	sraw	x1,x1,x0
    80003ec4:	01e2939b          	slliw	x7,x5,0x1e
    80003ec8:	00000817          	auipc	x16,0x0
    80003ecc:	24c801e7          	jalr	x3,588(x16) # 80004114 <_binary_lab3_test_bin_start+0x4114>
    80003ed0:	80d36593          	ori	x11,x6,-2035
    80003ed4:	0030d1b3          	srl	x3,x1,x3
    80003ed8:	f1308f13          	addi	x30,x1,-237 # 3075fdaf <_binary_lab3_test_bin_size+0x3073727b>
    80003edc:	400080b7          	lui	x1,0x40008
    80003ee0:	001080b3          	add	x1,x1,x1
    80003ee4:	f830b023          	sd	x3,-128(x1) # 40007f80 <_binary_lab3_test_bin_size+0x3ffdf44c>
    80003ee8:	001190bb          	sllw	x1,x3,x1
    80003eec:	400082b7          	lui	x5,0x40008
    80003ef0:	005282b3          	add	x5,x5,x5
    80003ef4:	f84282a3          	sb	x4,-123(x5) # 40007f85 <_binary_lab3_test_bin_size+0x3ffdf451>
    80003ef8:	00978033          	add	x0,x15,x9
    80003efc:	40008d37          	lui	x26,0x40008
    80003f00:	01ad0d33          	add	x26,x26,x26
    80003f04:	f83d1023          	sh	x3,-128(x26) # 40007f80 <_binary_lab3_test_bin_size+0x3ffdf44c>
    80003f08:	401001bb          	negw	x3,x1
    80003f0c:	0060911b          	slliw	x2,x1,0x6
    80003f10:	b6f0c793          	xori	x15,x1,-1169
    80003f14:	0120149b          	slliw	x9,x0,0x12
    80003f18:	5f10f113          	andi	x2,x1,1521
    80003f1c:	40418033          	sub	x0,x3,x4
    80003f20:	40008137          	lui	x2,0x40008
    80003f24:	00210133          	add	x2,x2,x2
    80003f28:	f8013183          	ld	x3,-128(x2) # 40007f80 <_binary_lab3_test_bin_size+0x3ffdf44c>
    80003f2c:	59b5a117          	auipc	x2,0x59b5a
    80003f30:	212fe0b7          	lui	x1,0x212fe
    80003f34:	00f19093          	slli	x1,x3,0xf
    80003f38:	40008137          	lui	x2,0x40008
    80003f3c:	00210133          	add	x2,x2,x2
    80003f40:	f8310123          	sb	x3,-126(x2) # 40007f82 <_binary_lab3_test_bin_size+0x3ffdf44e>
    80003f44:	d96f3017          	auipc	x0,0xd96f3
    80003f48:	54c35117          	auipc	x2,0x54c35
    80003f4c:	0062513b          	srlw	x2,x4,x6
    80003f50:	00225233          	srl	x4,x4,x2
    80003f54:	2e616093          	ori	x1,x2,742
    80003f58:	003170b3          	and	x1,x2,x3
    80003f5c:	34310263          	beq	x2,x3,800042a0 <_binary_lab3_test_bin_start+0x42a0>
    80003f60:	340001ef          	jal	x3,800042a0 <_binary_lab3_test_bin_start+0x42a0>
    80003f64:	bbbd3097          	auipc	x1,0xbbbd3
    80003f68:	007995bb          	sllw	x11,x19,x7
    80003f6c:	1d43b2b7          	lui	x5,0x1d43b
    80003f70:	00509133          	sll	x2,x1,x5
    80003f74:	0060b133          	sltu	x2,x1,x6
    80003f78:	4011d2bb          	sraw	x5,x3,x1
    80003f7c:	42a6f193          	andi	x3,x13,1066
    80003f80:	404150bb          	sraw	x1,x2,x4
    80003f84:	e39b9397          	auipc	x7,0xe39b9
    80003f88:	00368133          	add	x2,x13,x3
    80003f8c:	41f3509b          	sraiw	x1,x6,0x1f
    80003f90:	752a0237          	lui	x4,0x752a0
    80003f94:	0210d113          	srli	x2,x1,0x21
    80003f98:	52918193          	addi	x3,x3,1321
    80003f9c:	0091c5b3          	xor	x11,x3,x9
    80003fa0:	402181bb          	subw	x3,x3,x2
    80003fa4:	2ea08113          	addi	x2,x1,746 # 3bbd724e <_binary_lab3_test_bin_size+0x3bbae71a>
    80003fa8:	400081b7          	lui	x3,0x40008
    80003fac:	003181b3          	add	x3,x3,x3
    80003fb0:	f881b103          	ld	x2,-120(x3) # 40007f88 <_binary_lab3_test_bin_size+0x3ffdf454>
    80003fb4:	d56aa1b7          	lui	x3,0xd56aa
    80003fb8:	c68c4037          	lui	x0,0xc68c4
    80003fbc:	4668f1b7          	lui	x3,0x4668f
    80003fc0:	00b101b3          	add	x3,x2,x11
    80003fc4:	fe608213          	addi	x4,x1,-26
    80003fc8:	400080b7          	lui	x1,0x40008
    80003fcc:	001080b3          	add	x1,x1,x1
    80003fd0:	f8a08103          	lb	x2,-118(x1) # 40007f8a <_binary_lab3_test_bin_size+0x3ffdf456>
    80003fd4:	a161019b          	addiw	x3,x2,-1514 # ffffffffd4c3895e <_binary_lab3_test_bin_end+0xffffffff54c0fe2a>
    80003fd8:	406591b7          	lui	x3,0x40659
    80003fdc:	10250213          	addi	x4,x10,258 # 415c102 <_binary_lab3_test_bin_size+0x41335ce>
    80003fe0:	0011d0bb          	srlw	x1,x3,x1
    80003fe4:	a02080e3          	beq	x1,x2,800039e4 <_binary_lab3_test_bin_start+0x39e4>
    80003fe8:	9fdff1ef          	jal	x3,800039e4 <_binary_lab3_test_bin_start+0x39e4>
    80003fec:	b687a097          	auipc	x1,0xb687a
    80003ff0:	b3c0a193          	slti	x3,x1,-1220
    80003ff4:	40c080bb          	subw	x1,x1,x12
    80003ff8:	00709113          	slli	x2,x1,0x7
    80003ffc:	f150b093          	sltiu	x1,x1,-235
    80004000:	40008137          	lui	x2,0x40008
    80004004:	00210133          	add	x2,x2,x2
    80004008:	f8311723          	sh	x3,-114(x2) # 40007f8e <_binary_lab3_test_bin_size+0x3ffdf45a>
    8000400c:	f0b683b7          	lui	x7,0xf0b68
    80004010:	400083b7          	lui	x7,0x40008
    80004014:	007383b3          	add	x7,x7,x7
    80004018:	f99387a3          	sb	x25,-113(x7) # 40007f8f <_binary_lab3_test_bin_size+0x3ffdf45b>
    8000401c:	30abb097          	auipc	x1,0x30abb
    80004020:	fb60819b          	addiw	x3,x1,-74 # ffffffffb0abefd2 <_binary_lab3_test_bin_end+0xffffffff30a9649e>
    80004024:	c9c57193          	andi	x3,x10,-868
    80004028:	0021013b          	addw	x2,x2,x2
    8000402c:	bcf62217          	auipc	x4,0xbcf62
    80004030:	4010d133          	sra	x2,x1,x1
    80004034:	400081b7          	lui	x3,0x40008
    80004038:	003181b3          	add	x3,x3,x3
    8000403c:	f881b283          	ld	x5,-120(x3) # 40007f88 <_binary_lab3_test_bin_size+0x3ffdf454>
    80004040:	db824193          	xori	x3,x4,-584
    80004044:	777b0117          	auipc	x2,0x777b0
    80004048:	400080b7          	lui	x1,0x40008
    8000404c:	001080b3          	add	x1,x1,x1
    80004050:	f860c383          	lbu	x7,-122(x1) # 40007f86 <_binary_lab3_test_bin_size+0x3ffdf452>
    80004054:	584cb197          	auipc	x3,0x584cb
    80004058:	0000909b          	slliw	x1,x1,0x0
    8000405c:	0051a1b3          	slt	x3,x3,x5
    80004060:	2a0a81b7          	lui	x3,0x2a0a8
    80004064:	400081b7          	lui	x3,0x40008
    80004068:	003181b3          	add	x3,x3,x3
    8000406c:	f881a083          	lw	x1,-120(x3) # 40007f88 <_binary_lab3_test_bin_size+0x3ffdf454>
    80004070:	a18e10b7          	lui	x1,0xa18e1
    80004074:	a6310ee3          	beq	x2,x3,80003af0 <_binary_lab3_test_bin_start+0x3af0>
    80004078:	a79ff16f          	jal	x2,80003af0 <_binary_lab3_test_bin_start+0x3af0>
    8000407c:	48085117          	auipc	x2,0x48085
    80004080:	0030e1b3          	or	x3,x1,x3
    80004084:	8891c117          	auipc	x2,0x8891c
    80004088:	0020e1b3          	or	x3,x1,x2
    8000408c:	01019113          	slli	x2,x3,0x10
    80004090:	4afec197          	auipc	x3,0x4afec
    80004094:	403580b3          	sub	x1,x11,x3
    80004098:	00b310bb          	sllw	x1,x6,x11
    8000409c:	01d8129b          	slliw	x5,x16,0x1d
    800040a0:	003151bb          	srlw	x3,x2,x3
    800040a4:	1315c193          	xori	x3,x11,305
    800040a8:	0051a7b3          	slt	x15,x3,x5
    800040ac:	1f42831b          	addiw	x6,x5,500 # 1d43b1f4 <_binary_lab3_test_bin_size+0x1d4126c0>
    800040b0:	3f600093          	li	x1,1014
    800040b4:	40008137          	lui	x2,0x40008
    800040b8:	00210133          	add	x2,x2,x2
    800040bc:	f8313023          	sd	x3,-128(x2) # 40007f80 <_binary_lab3_test_bin_size+0x3ffdf44c>
    800040c0:	02e11093          	slli	x1,x2,0x2e
    800040c4:	dbdc0137          	lui	x2,0xdbdc0
    800040c8:	00016133          	or	x2,x2,x0
    800040cc:	40008137          	lui	x2,0x40008
    800040d0:	00210133          	add	x2,x2,x2
    800040d4:	f8213023          	sd	x2,-128(x2) # 40007f80 <_binary_lab3_test_bin_size+0x3ffdf44c>
    800040d8:	2de17693          	andi	x13,x2,734
    800040dc:	1df0b313          	sltiu	x6,x1,479
    800040e0:	0d510093          	addi	x1,x2,213
    800040e4:	03f09113          	slli	x2,x1,0x3f
    800040e8:	40008137          	lui	x2,0x40008
    800040ec:	00210133          	add	x2,x2,x2
    800040f0:	f8611523          	sh	x6,-118(x2) # 40007f8a <_binary_lab3_test_bin_size+0x3ffdf456>
    800040f4:	01719193          	slli	x3,x3,0x17
    800040f8:	8a3f8237          	lui	x4,0x8a3f8
    800040fc:	406350bb          	sraw	x1,x6,x6
    80004100:	8cc04137          	lui	x2,0x8cc04
    80004104:	f6645137          	lui	x2,0xf6645
    80004108:	40348233          	sub	x4,x9,x3
    8000410c:	00010093          	mv	x1,x2
    80004110:	ec208ee3          	beq	x1,x2,80003fec <_binary_lab3_test_bin_start+0x3fec>
    80004114:	00109033          	sll	x0,x1,x1
    80004118:	1e212293          	slti	x5,x2,482
    8000411c:	0051b133          	sltu	x2,x3,x5
    80004120:	0051913b          	sllw	x2,x3,x5
    80004124:	0000d0bb          	srlw	x1,x1,x0
    80004128:	0011b0b3          	sltu	x1,x3,x1
    8000412c:	f221a113          	slti	x2,x3,-222
    80004130:	01608133          	add	x2,x1,x22
    80004134:	00234133          	xor	x2,x6,x2
    80004138:	40008137          	lui	x2,0x40008
    8000413c:	00210133          	add	x2,x2,x2
    80004140:	f8012103          	lw	x2,-128(x2) # 40007f80 <_binary_lab3_test_bin_size+0x3ffdf44c>
    80004144:	73628097          	auipc	x1,0x73628
    80004148:	d3dcf097          	auipc	x1,0xd3dcf
    8000414c:	bab9b337          	lui	x6,0xbab9b
    80004150:	403300bb          	subw	x1,x6,x3
    80004154:	7a4fc117          	auipc	x2,0x7a4fc
    80004158:	853b80b7          	lui	x1,0x853b8
    8000415c:	0020e0b3          	or	x1,x1,x2
    80004160:	400080b7          	lui	x1,0x40008
    80004164:	001080b3          	add	x1,x1,x1
    80004168:	f820d303          	lhu	x6,-126(x1) # 40007f82 <_binary_lab3_test_bin_size+0x3ffdf44e>
    8000416c:	907ac317          	auipc	x6,0x907ac
    80004170:	400081b7          	lui	x3,0x40008
    80004174:	003181b3          	add	x3,x3,x3
    80004178:	f801b203          	ld	x4,-128(x3) # 40007f80 <_binary_lab3_test_bin_size+0x3ffdf44c>
    8000417c:	4022813b          	subw	x2,x5,x2
    80004180:	0021f1b3          	and	x3,x3,x2
    80004184:	400081b7          	lui	x3,0x40008
    80004188:	003181b3          	add	x3,x3,x3
    8000418c:	f801bc83          	ld	x25,-128(x3) # 40007f80 <_binary_lab3_test_bin_size+0x3ffdf44c>
    80004190:	00735113          	srli	x2,x6,0x7
    80004194:	0021a1b3          	slt	x3,x3,x2
    80004198:	15d1f393          	andi	x7,x3,349
    8000419c:	d2308ae3          	beq	x1,x3,80003ed0 <_binary_lab3_test_bin_start+0x3ed0>
    800041a0:	d31ff16f          	jal	x2,80003ed0 <_binary_lab3_test_bin_start+0x3ed0>
    800041a4:	39900093          	li	x1,921
    800041a8:	0031111b          	slliw	x2,x2,0x3
    800041ac:	02609193          	slli	x3,x1,0x26
    800041b0:	40c1031b          	addiw	x6,x2,1036 # fffffffffa500560 <_binary_lab3_test_bin_end+0xffffffff7a4d7a2c>
    800041b4:	43535093          	srai	x1,x6,0x35
    800041b8:	400080b7          	lui	x1,0x40008
    800041bc:	001080b3          	add	x1,x1,x1
    800041c0:	f880b303          	ld	x6,-120(x1) # 40007f88 <_binary_lab3_test_bin_size+0x3ffdf454>
    800041c4:	f7e30493          	addi	x9,x6,-130 # 107b00ea <_binary_lab3_test_bin_size+0x107875b6>
    800041c8:	00200333          	add	x6,x0,x2
    800041cc:	09c3f197          	auipc	x3,0x9c3f
    800041d0:	0030d7b3          	srl	x15,x1,x3
    800041d4:	001fa133          	slt	x2,x31,x1
    800041d8:	400080b7          	lui	x1,0x40008
    800041dc:	001080b3          	add	x1,x1,x1
    800041e0:	f8a0c083          	lbu	x1,-118(x1) # 40007f8a <_binary_lab3_test_bin_size+0x3ffdf456>
    800041e4:	286b5bb7          	lui	x23,0x286b5
    800041e8:	40528033          	sub	x0,x5,x5
    800041ec:	215d8097          	auipc	x1,0x215d8
    800041f0:	e0f2011b          	addiw	x2,x4,-497 # ffffffff8a3f7e0f <_binary_lab3_test_bin_end+0xffffffff0a3cf2db>
    800041f4:	00116033          	or	x0,x2,x1
    800041f8:	00214033          	xor	x0,x2,x2
    800041fc:	4021533b          	sraw	x6,x2,x2
    80004200:	81526597          	auipc	x11,0x81526
    80004204:	4160d0bb          	sraw	x1,x1,x22
    80004208:	46412093          	slti	x1,x2,1124
    8000420c:	91a1b113          	sltiu	x2,x3,-1766
    80004210:	13e1e193          	ori	x3,x3,318
    80004214:	00018263          	beqz	x3,80004218 <_binary_lab3_test_bin_start+0x4218>
    80004218:	e1cff96f          	jal	x18,80003834 <_binary_lab3_test_bin_start+0x3834>
    8000421c:	101fd197          	auipc	x3,0x101fd
    80004220:	00f1111b          	slliw	x2,x2,0xf
    80004224:	00216333          	or	x6,x2,x2
    80004228:	03521113          	slli	x2,x4,0x35
    8000422c:	4132501b          	sraiw	x0,x4,0x13
    80004230:	245bf1b7          	lui	x3,0x245bf
    80004234:	2a01af13          	slti	x30,x3,672
    80004238:	40115193          	srai	x3,x2,0x1
    8000423c:	400081b7          	lui	x3,0x40008
    80004240:	003181b3          	add	x3,x3,x3
    80004244:	f8219523          	sh	x2,-118(x3) # 40007f8a <_binary_lab3_test_bin_size+0x3ffdf456>
    80004248:	004181bb          	addw	x3,x3,x4
    8000424c:	01e1111b          	slliw	x2,x2,0x1e
    80004250:	403003bb          	negw	x7,x3
    80004254:	00bda133          	slt	x2,x27,x11
    80004258:	4021d13b          	sraw	x2,x3,x2
    8000425c:	03441113          	slli	x2,x8,0x34
    80004260:	40008137          	lui	x2,0x40008
    80004264:	00210133          	add	x2,x2,x2
    80004268:	f8211723          	sh	x2,-114(x2) # 40007f8e <_binary_lab3_test_bin_size+0x3ffdf45a>
    8000426c:	b521b113          	sltiu	x2,x3,-1198
    80004270:	005119bb          	sllw	x19,x2,x5
    80004274:	9f20e197          	auipc	x3,0x9f20e
    80004278:	cac12313          	slti	x6,x2,-852
    8000427c:	c5a12313          	slti	x6,x2,-934
    80004280:	400082b7          	lui	x5,0x40008
    80004284:	005282b3          	add	x5,x5,x5
    80004288:	f8c2a003          	lw	x0,-116(x5) # 40007f8c <_binary_lab3_test_bin_size+0x3ffdf458>
    8000428c:	000397b3          	sll	x15,x7,x0
    80004290:	00e0911b          	slliw	x2,x1,0xe
    80004294:	40110133          	sub	x2,x2,x1
    80004298:	8d908ee3          	beq	x1,x25,80003b74 <_binary_lab3_test_bin_start+0x3b74>
    8000429c:	8d9ff16f          	jal	x2,80003b74 <_binary_lab3_test_bin_start+0x3b74>
    800042a0:	1411e193          	ori	x3,x3,321
    800042a4:	41cc531b          	sraiw	x6,x24,0x1c
    800042a8:	88c1a0b7          	lui	x1,0x88c1a
    800042ac:	400081b7          	lui	x3,0x40008
    800042b0:	003181b3          	add	x3,x3,x3
    800042b4:	f8a19423          	sh	x10,-120(x3) # 40007f88 <_binary_lab3_test_bin_size+0x3ffdf454>
    800042b8:	004180b3          	add	x1,x3,x4
    800042bc:	400081b7          	lui	x3,0x40008
    800042c0:	003181b3          	add	x3,x3,x3
    800042c4:	f82187a3          	sb	x2,-113(x3) # 40007f8f <_binary_lab3_test_bin_size+0x3ffdf45b>
    800042c8:	4021813b          	subw	x2,x3,x2
    800042cc:	df908093          	addi	x1,x1,-519 # ffffffff88c19df9 <_binary_lab3_test_bin_end+0xffffffff08bf12c5>
    800042d0:	cd51e393          	ori	x7,x3,-811
    800042d4:	0071119b          	slliw	x3,x2,0x7
    800042d8:	4061d133          	sra	x2,x3,x6
    800042dc:	19002337          	lui	x6,0x19002
    800042e0:	6d524097          	auipc	x1,0x6d524
    800042e4:	0bd1c093          	xori	x1,x3,189
    800042e8:	0111b6b3          	sltu	x13,x3,x17
    800042ec:	f0b0c017          	auipc	x0,0xf0b0c
    800042f0:	01ccd013          	srli	x0,x25,0x1c
    800042f4:	b4129137          	lui	x2,0xb4129
    800042f8:	0000d593          	srli	x11,x1,0x0
    800042fc:	0031d233          	srl	x4,x3,x3
    80004300:	400086b7          	lui	x13,0x40008
    80004304:	00d686b3          	add	x13,x13,x13
    80004308:	f806b103          	ld	x2,-128(x13) # 40007f80 <_binary_lab3_test_bin_size+0x3ffdf44c>
    8000430c:	401250b3          	sra	x1,x4,x1
    80004310:	002080bb          	addw	x1,x1,x2
    80004314:	5d1530b7          	lui	x1,0x5d153
    80004318:	00310533          	add	x10,x2,x3
    8000431c:	4a050197          	auipc	x3,0x4a050
    80004320:	e83172e3          	bgeu	x2,x3,800041a4 <_binary_lab3_test_bin_start+0x41a4>
    80004324:	e83160e3          	bltu	x2,x3,800041a4 <_binary_lab3_test_bin_start+0x41a4>
    80004328:	ef71e117          	auipc	x2,0xef71e
    8000432c:	0011a1b3          	slt	x3,x3,x1
    80004330:	003150b3          	srl	x1,x2,x3
    80004334:	659e5397          	auipc	x7,0x659e5
    80004338:	ac816113          	ori	x2,x2,-1336
    8000433c:	0063d1bb          	srlw	x3,x7,x6
    80004340:	003121b3          	slt	x3,x2,x3
    80004344:	3b1b4117          	auipc	x2,0x3b1b4
    80004348:	400081b7          	lui	x3,0x40008
    8000434c:	003181b3          	add	x3,x3,x3
    80004350:	f8518523          	sb	x5,-118(x3) # 40007f8a <_binary_lab3_test_bin_size+0x3ffdf456>
    80004354:	0012b033          	sltu	x0,x5,x1
    80004358:	400081b7          	lui	x3,0x40008
    8000435c:	003181b3          	add	x3,x3,x3
    80004360:	f881e103          	lwu	x2,-120(x3) # 40007f88 <_binary_lab3_test_bin_size+0x3ffdf454>
    80004364:	4033d0b3          	sra	x1,x7,x3
    80004368:	24b1f093          	andi	x1,x3,587
    8000436c:	00217133          	and	x2,x2,x2
    80004370:	45027113          	andi	x2,x4,1104
    80004374:	001121b3          	slt	x3,x2,x1
    80004378:	0012b1b3          	sltu	x3,x5,x1
    8000437c:	734ad197          	auipc	x3,0x734ad
    80004380:	023e2117          	auipc	x2,0x23e2
    80004384:	0022d0b3          	srl	x1,x5,x2
    80004388:	2e82b213          	sltiu	x4,x5,744
    8000438c:	003102bb          	addw	x5,x2,x3
    80004390:	400081b7          	lui	x3,0x40008
    80004394:	003181b3          	add	x3,x3,x3
    80004398:	f8a1d183          	lhu	x3,-118(x3) # 40007f8a <_binary_lab3_test_bin_size+0x3ffdf456>
    8000439c:	00317133          	and	x2,x2,x3
    800043a0:	0131d09b          	srliw	x1,x3,0x13
    800043a4:	4012d333          	sra	x6,x5,x1
    800043a8:	002161b3          	or	x3,x2,x2
    800043ac:	be50c113          	xori	x2,x1,-1051
    800043b0:	4043523b          	sraw	x4,x6,x4
    800043b4:	6f90c393          	xori	x7,x1,1785
    800043b8:	40008137          	lui	x2,0x40008
    800043bc:	00210133          	add	x2,x2,x2
    800043c0:	f8310023          	sb	x3,-128(x2) # 40007f80 <_binary_lab3_test_bin_size+0x3ffdf44c>
    800043c4:	0020c133          	xor	x2,x1,x2
    800043c8:	00608263          	beq	x1,x6,800043cc <_binary_lab3_test_bin_start+0x43cc>
    800043cc:	185003ef          	jal	x7,80004d50 <_binary_lab3_test_bin_start+0x4d50>
    800043d0:	0071109b          	slliw	x1,x2,0x7
    800043d4:	400080b7          	lui	x1,0x40008
    800043d8:	001080b3          	add	x1,x1,x1
    800043dc:	f830a623          	sw	x3,-116(x1) # 40007f8c <_binary_lab3_test_bin_size+0x3ffdf458>
    800043e0:	4004d2bb          	sraw	x5,x9,x0
    800043e4:	715b3597          	auipc	x11,0x715b3
    800043e8:	e56d30b7          	lui	x1,0xe56d3
    800043ec:	41e18133          	sub	x2,x3,x30
    800043f0:	0001a133          	sltz	x2,x3
    800043f4:	f4d2b113          	sltiu	x2,x5,-179
    800043f8:	0020f133          	and	x2,x1,x2
    800043fc:	400081b7          	lui	x3,0x40008
    80004400:	003181b3          	add	x3,x3,x3
    80004404:	f8419083          	lh	x1,-124(x3) # 40007f84 <_binary_lab3_test_bin_size+0x3ffdf450>
    80004408:	03819113          	slli	x2,x3,0x38
    8000440c:	d0bdd597          	auipc	x11,0xd0bdd
    80004410:	d920e113          	ori	x2,x1,-622
    80004414:	001200b3          	add	x1,x4,x1
    80004418:	e9ee2193          	slti	x3,x28,-354
    8000441c:	002480b3          	add	x1,x9,x2
    80004420:	400081b7          	lui	x3,0x40008
    80004424:	003181b3          	add	x3,x3,x3
    80004428:	f82180a3          	sb	x2,-127(x3) # 40007f81 <_binary_lab3_test_bin_size+0x3ffdf44d>
    8000442c:	4051d1b3          	sra	x3,x3,x5
    80004430:	4cbd9137          	lui	x2,0x4cbd9
    80004434:	003150bb          	srlw	x1,x2,x3
    80004438:	002131b3          	sltu	x3,x2,x2
    8000443c:	0031003b          	addw	x0,x2,x3
    80004440:	3384a197          	auipc	x3,0x3384a
    80004444:	44218113          	addi	x2,x3,1090 # b384e882 <_binary_lab3_test_bin_end+0x33825d4e>
    80004448:	0011e133          	or	x2,x3,x1
    8000444c:	00000193          	li	x3,0
    80004450:	7e018263          	beqz	x3,80004c34 <_binary_lab3_test_bin_start+0x4c34>
    80004454:	0002c233          	xor	x4,x5,x0
    80004458:	9ab1c093          	xori	x1,x3,-1621
    8000445c:	4010d09b          	sraiw	x1,x1,0x1
    80004460:	4040d133          	sra	x2,x1,x4
    80004464:	00b150b3          	srl	x1,x2,x11
    80004468:	0192119b          	slliw	x3,x4,0x19
    8000446c:	40008137          	lui	x2,0x40008
    80004470:	00210133          	add	x2,x2,x2
    80004474:	f8013103          	ld	x2,-128(x2) # 40007f80 <_binary_lab3_test_bin_size+0x3ffdf44c>
    80004478:	3a085eb7          	lui	x29,0x3a085
    8000447c:	7e830113          	addi	x2,x6,2024 # 190027e8 <_binary_lab3_test_bin_size+0x18fd9cb4>
    80004480:	0031b133          	sltu	x2,x3,x3
    80004484:	00316233          	or	x4,x2,x3
    80004488:	401186bb          	subw	x13,x3,x1
    8000448c:	402150b3          	sra	x1,x2,x2
    80004490:	0020f033          	and	x0,x1,x2
    80004494:	40008337          	lui	x6,0x40008
    80004498:	00630333          	add	x6,x6,x6
    8000449c:	f8033183          	ld	x3,-128(x6) # 40007f80 <_binary_lab3_test_bin_size+0x3ffdf44c>
    800044a0:	85a1f293          	andi	x5,x3,-1958
    800044a4:	00c0911b          	slliw	x2,x1,0xc
    800044a8:	d8918b1b          	addiw	x22,x3,-631
    800044ac:	0040913b          	sllw	x2,x1,x4
    800044b0:	401100b3          	sub	x1,x2,x1
    800044b4:	400083b7          	lui	x7,0x40008
    800044b8:	007383b3          	add	x7,x7,x7
    800044bc:	f883b103          	ld	x2,-120(x7) # 40007f88 <_binary_lab3_test_bin_size+0x3ffdf454>
    800044c0:	d3620493          	addi	x9,x4,-714 # fffffffffffffd36 <_binary_lab3_test_bin_end+0xffffffff7ffd7202>
    800044c4:	00216333          	or	x6,x2,x2
    800044c8:	0111911b          	slliw	x2,x3,0x11
    800044cc:	33b69337          	lui	x6,0x33b69
    800044d0:	001030b3          	snez	x1,x1
    800044d4:	0010f133          	and	x2,x1,x1
    800044d8:	001149b3          	xor	x19,x2,x1
    800044dc:	41315213          	srai	x4,x2,0x13
    800044e0:	0014d133          	srl	x2,x9,x1
    800044e4:	003210b3          	sll	x1,x4,x3
    800044e8:	3518b037          	lui	x0,0x3518b
    800044ec:	00313133          	sltu	x2,x2,x3
    800044f0:	00008193          	mv	x3,x1
    800044f4:	e2118ae3          	beq	x3,x1,80004328 <_binary_lab3_test_bin_start+0x4328>
    800044f8:	0080d71b          	srliw	x14,x1,0x8
    800044fc:	0026a0b3          	slt	x1,x13,x2
    80004500:	8ef3e113          	ori	x2,x7,-1809
    80004504:	40008137          	lui	x2,0x40008
    80004508:	00210133          	add	x2,x2,x2
    8000450c:	f8211423          	sh	x2,-120(x2) # 40007f88 <_binary_lab3_test_bin_size+0x3ffdf454>
    80004510:	40f0531b          	sraiw	x6,x0,0xf
    80004514:	402151b3          	sra	x3,x2,x2
    80004518:	002210b3          	sll	x1,x4,x2
    8000451c:	4e8d50b7          	lui	x1,0x4e8d5
    80004520:	a221a293          	slti	x5,x3,-1502
    80004524:	005a3f93          	sltiu	x31,x20,5
    80004528:	40318233          	sub	x4,x3,x3
    8000452c:	0011e0b3          	or	x1,x3,x1
    80004530:	400083b7          	lui	x7,0x40008
    80004534:	007383b3          	add	x7,x7,x7
    80004538:	f82386a3          	sb	x2,-115(x7) # 40007f8d <_binary_lab3_test_bin_size+0x3ffdf459>
    8000453c:	0050d0b3          	srl	x1,x1,x5
    80004540:	0021c0b3          	xor	x1,x3,x2
    80004544:	0015b233          	sltu	x4,x11,x1
    80004548:	3b9ea137          	lui	x2,0x3b9ea
    8000454c:	0072f433          	and	x8,x5,x7
    80004550:	6fc13113          	sltiu	x2,x2,1788
    80004554:	2a15e137          	lui	x2,0x2a15e
    80004558:	af6a9117          	auipc	x2,0xaf6a9
    8000455c:	0036d11b          	srliw	x2,x13,0x3
    80004560:	00b1c0b3          	xor	x1,x3,x11
    80004564:	b600c193          	xori	x3,x1,-1184
    80004568:	0031913b          	sllw	x2,x3,x3
    8000456c:	0031d1b3          	srl	x3,x3,x3
    80004570:	b8412113          	slti	x2,x2,-1148
    80004574:	001392bb          	sllw	x5,x7,x1
    80004578:	004195b3          	sll	x11,x3,x4
    8000457c:	00714133          	xor	x2,x2,x7
    80004580:	400086b7          	lui	x13,0x40008
    80004584:	00d686b3          	add	x13,x13,x13
    80004588:	f836b023          	sd	x3,-128(x13) # 40007f80 <_binary_lab3_test_bin_size+0x3ffdf44c>
    8000458c:	0001c1b3          	xor	x3,x3,x0
    80004590:	0000e0b3          	or	x1,x1,x0
    80004594:	00010613          	mv	x12,x2
    80004598:	1c260a63          	beq	x12,x2,8000476c <_binary_lab3_test_bin_start+0x476c>
    8000459c:	50947137          	lui	x2,0x50947
    800045a0:	6ca74113          	xori	x2,x14,1738
    800045a4:	5bb0c193          	xori	x3,x1,1467
    800045a8:	fcf1b113          	sltiu	x2,x3,-49
    800045ac:	01f3d39b          	srliw	x7,x7,0x1f
    800045b0:	3803b137          	lui	x2,0x3803b
    800045b4:	00219133          	sll	x2,x3,x2
    800045b8:	0031d0bb          	srlw	x1,x3,x3
    800045bc:	002210bb          	sllw	x1,x4,x2
    800045c0:	00f0d0bb          	srlw	x1,x1,x15
    800045c4:	002113b3          	sll	x7,x2,x2
    800045c8:	00f1109b          	slliw	x1,x2,0xf
    800045cc:	96df9117          	auipc	x2,0x96df9
    800045d0:	007191bb          	sllw	x3,x3,x7
    800045d4:	002090bb          	sllw	x1,x1,x2
    800045d8:	01e21193          	slli	x3,x4,0x1e
    800045dc:	04e1a193          	slti	x3,x3,78
    800045e0:	40008237          	lui	x4,0x40008
    800045e4:	00420233          	add	x4,x4,x4
    800045e8:	f8121523          	sh	x1,-118(x4) # 40007f8a <_binary_lab3_test_bin_size+0x3ffdf456>
    800045ec:	6261f193          	andi	x3,x3,1574
    800045f0:	001190b3          	sll	x1,x3,x1
    800045f4:	bda1e093          	ori	x1,x3,-1062
    800045f8:	016181b3          	add	x3,x3,x22
