
temp_disassemble.elf:     file format elf64-littleriscv


Disassembly of section .text:

0000000000000000 <_binary_lab1_extra_test_bin_start>:
       0:	02e468b3          	rem	x17,x8,x14
       4:	01ea0abb          	addw	x21,x20,x30
       8:	0044863b          	addw	x12,x9,x4
       c:	021774b3          	remu	x9,x14,x1
      10:	bddb6793          	ori	x15,x22,-1059
      14:	01e0e433          	or	x8,x1,x30
      18:	076d7813          	andi	x16,x26,118
      1c:	0311833b          	mulw	x6,x3,x17
      20:	0382ddb3          	divu	x27,x5,x24
      24:	03e1c533          	div	x10,x3,x30
      28:	7f10fb13          	andi	x22,x1,2033
      2c:	fda6fa13          	andi	x20,x13,-38
      30:	019147b3          	xor	x15,x2,x25
      34:	41568a33          	sub	x20,x13,x21
      38:	035185bb          	mulw	x11,x3,x21
      3c:	029e4d3b          	divw	x26,x28,x9
      40:	0336df3b          	divuw	x30,x13,x19
      44:	013affb3          	and	x31,x21,x19
      48:	03cbda33          	divu	x20,x23,x28
      4c:	02108c3b          	mulw	x24,x1,x1
      50:	f2c18c9b          	addiw	x25,x3,-212
      54:	02526bb3          	rem	x23,x4,x5
      58:	026a0e33          	mul	x28,x20,x6
      5c:	011fcc33          	xor	x24,x31,x17
      60:	400e823b          	subw	x4,x29,x0
      64:	02c2ceb3          	div	x29,x5,x12
      68:	00be7cb3          	and	x25,x28,x11
      6c:	d102f593          	andi	x11,x5,-752
      70:	025445bb          	divw	x11,x8,x5
      74:	0392713b          	remuw	x2,x4,x25
      78:	03adfb33          	remu	x22,x27,x26
      7c:	02cc82b3          	mul	x5,x25,x12
      80:	f301cb93          	xori	x23,x3,-208
      84:	99e77f93          	andi	x31,x14,-1634
      88:	02c00f33          	mul	x30,x0,x12
      8c:	d9b1001b          	addiw	x0,x2,-613
      90:	02ca0433          	mul	x8,x20,x12
      94:	039007b3          	mul	x15,x0,x25
      98:	0274c4bb          	divw	x9,x9,x7
      9c:	0152063b          	addw	x12,x4,x21
      a0:	c12f0e13          	addi	x28,x30,-1006
      a4:	01bcccb3          	xor	x25,x25,x27
      a8:	00f4f5b3          	and	x11,x9,x15
      ac:	e3bb811b          	addiw	x2,x23,-453
      b0:	03dcd6bb          	divuw	x13,x25,x29
      b4:	5663cf93          	xori	x31,x7,1382
      b8:	03d78e3b          	mulw	x28,x15,x29
      bc:	03a6f633          	remu	x12,x13,x26
      c0:	e6e0cc93          	xori	x25,x1,-402
      c4:	025e7db3          	remu	x27,x28,x5
      c8:	41458233          	sub	x4,x11,x20
      cc:	010d01bb          	addw	x3,x26,x16
      d0:	03ce0dbb          	mulw	x27,x28,x28
      d4:	0301f633          	remu	x12,x3,x16
      d8:	c40ef413          	andi	x8,x29,-960
      dc:	03f7d733          	divu	x14,x15,x31
      e0:	7c45041b          	addiw	x8,x10,1988
      e4:	016d843b          	addw	x8,x27,x22
      e8:	003f4c33          	xor	x24,x30,x3
      ec:	40860e33          	sub	x28,x12,x8
      f0:	005284bb          	addw	x9,x5,x5
      f4:	00ff0133          	add	x2,x30,x15
      f8:	0187e933          	or	x18,x15,x24
      fc:	03d1fab3          	remu	x21,x3,x29
     100:	0125043b          	addw	x8,x10,x18
     104:	025868bb          	remw	x17,x16,x5
     108:	0295723b          	remuw	x4,x10,x9
     10c:	b0e17a93          	andi	x21,x2,-1266
     110:	590d0613          	addi	x12,x26,1424
     114:	0234f23b          	remuw	x4,x9,x3
     118:	f8bce313          	ori	x6,x25,-117
     11c:	03ba8033          	mul	x0,x21,x27
     120:	b95bc213          	xori	x4,x23,-1131
     124:	968c6113          	ori	x2,x24,-1688
     128:	0238d533          	divu	x10,x17,x3
     12c:	02607a33          	remu	x20,x0,x6
     130:	47dd8d13          	addi	x26,x27,1149
     134:	01047db3          	and	x27,x8,x16
     138:	00f3e7b3          	or	x15,x7,x15
     13c:	036eec3b          	remw	x24,x29,x22
     140:	00d18d3b          	addw	x26,x3,x13
     144:	631f7b13          	andi	x22,x30,1585
     148:	02aed2b3          	divu	x5,x29,x10
     14c:	61d1fd93          	andi	x27,x3,1565
     150:	0307f633          	remu	x12,x15,x16
     154:	f6b14b13          	xori	x22,x2,-149
     158:	b094f993          	andi	x19,x9,-1271
     15c:	02a1feb3          	remu	x29,x3,x10
     160:	4c15c893          	xori	x17,x11,1217
     164:	00396f33          	or	x30,x18,x3
     168:	cd01ff93          	andi	x31,x3,-816
     16c:	02c9c0b3          	div	x1,x19,x12
     170:	35987513          	andi	x10,x16,857
     174:	034c07b3          	mul	x15,x24,x20
     178:	00498eb3          	add	x29,x19,x4
     17c:	03694b33          	div	x22,x18,x22
     180:	024ec2bb          	divw	x5,x29,x4
     184:	24206593          	ori	x11,x0,578
     188:	1398f393          	andi	x7,x17,313
     18c:	035eeebb          	remw	x29,x29,x21
     190:	1fa34193          	xori	x3,x6,506
     194:	40b586b3          	sub	x13,x11,x11
     198:	036fc0bb          	divw	x1,x31,x22
     19c:	0380eabb          	remw	x21,x1,x24
     1a0:	94fc089b          	addiw	x17,x24,-1713
     1a4:	0041f633          	and	x12,x3,x4
     1a8:	03e7c7b3          	div	x15,x15,x30
     1ac:	00b905b3          	add	x11,x18,x11
     1b0:	02dc03bb          	mulw	x7,x24,x13
     1b4:	f563e593          	ori	x11,x7,-170
     1b8:	01656133          	or	x2,x10,x22
     1bc:	02bd05bb          	mulw	x11,x26,x11
     1c0:	e50c0e13          	addi	x28,x24,-432
     1c4:	02950833          	mul	x16,x10,x9
     1c8:	017c01bb          	addw	x3,x24,x23
     1cc:	0280ccbb          	divw	x25,x1,x8
     1d0:	3dff029b          	addiw	x5,x30,991
     1d4:	00f662b3          	or	x5,x12,x15
     1d8:	ba8d4f13          	xori	x30,x26,-1112
     1dc:	00a4f533          	and	x10,x9,x10
     1e0:	0260f8b3          	remu	x17,x1,x6
     1e4:	0230cc3b          	divw	x24,x1,x3
     1e8:	412a8e3b          	subw	x28,x21,x18
     1ec:	02c6c3bb          	divw	x7,x13,x12
     1f0:	032752bb          	divuw	x5,x14,x18
     1f4:	02a0ddb3          	divu	x27,x1,x10
     1f8:	03e7d8bb          	divuw	x17,x15,x30
     1fc:	01a56433          	or	x8,x10,x26
     200:	02756bb3          	rem	x23,x10,x7
     204:	3ac8e493          	ori	x9,x17,940
     208:	40728133          	sub	x2,x5,x7
     20c:	020d08b3          	mul	x17,x26,x0
     210:	03da59b3          	divu	x19,x20,x29
     214:	419385b3          	sub	x11,x7,x25
     218:	0222533b          	divuw	x6,x4,x2
     21c:	036746bb          	divw	x13,x14,x22
     220:	03347133          	remu	x2,x8,x19
     224:	02d3eab3          	rem	x21,x7,x13
     228:	41678d33          	sub	x26,x15,x22
     22c:	40190f33          	sub	x30,x18,x1
     230:	020f8db3          	mul	x27,x31,x0
     234:	036bfb3b          	remuw	x22,x23,x22
     238:	0314d4bb          	divuw	x9,x9,x17
     23c:	a59b6193          	ori	x3,x22,-1447
     240:	d6b64c13          	xori	x24,x12,-661
     244:	03e3f633          	remu	x12,x7,x30
     248:	e4f34d93          	xori	x27,x6,-433
     24c:	03ee56bb          	divuw	x13,x28,x30
     250:	adac0793          	addi	x15,x24,-1318
     254:	0190f4b3          	and	x9,x1,x25
     258:	405301bb          	subw	x3,x6,x5
     25c:	0165f133          	and	x2,x11,x22
     260:	3799e513          	ori	x10,x19,889
     264:	03dcc733          	div	x14,x25,x29
     268:	02f747b3          	div	x15,x14,x15
     26c:	0144c333          	xor	x6,x9,x20
     270:	0275f53b          	remuw	x10,x11,x7
     274:	0357033b          	mulw	x6,x14,x21
     278:	002606bb          	addw	x13,x12,x2
     27c:	f2d64313          	xori	x6,x12,-211
     280:	033c51b3          	divu	x3,x24,x19
     284:	000ec433          	xor	x8,x29,x0
     288:	ca340e9b          	addiw	x29,x8,-861
     28c:	0226873b          	mulw	x14,x13,x2
     290:	df427613          	andi	x12,x4,-524
     294:	f4d7cc13          	xori	x24,x15,-179
     298:	0259cdb3          	div	x27,x19,x5
     29c:	0224493b          	divw	x18,x8,x2
     2a0:	00fce433          	or	x8,x25,x15
     2a4:	0159c9b3          	xor	x19,x19,x21
     2a8:	d8a9e013          	ori	x0,x19,-630
     2ac:	003c69b3          	or	x19,x24,x3
     2b0:	007e0a33          	add	x20,x28,x7
     2b4:	01c5083b          	addw	x16,x10,x28
     2b8:	0297d93b          	divuw	x18,x15,x9
     2bc:	0043ccb3          	xor	x25,x7,x4
     2c0:	01d7c0b3          	xor	x1,x15,x29
     2c4:	02130133          	mul	x2,x6,x1
     2c8:	0220d933          	divu	x18,x1,x2
     2cc:	03598d33          	mul	x26,x19,x21
     2d0:	03e3f33b          	remuw	x6,x7,x30
     2d4:	0069003b          	addw	x0,x18,x6
     2d8:	fd328e9b          	addiw	x29,x5,-45
     2dc:	0297853b          	mulw	x10,x15,x9
     2e0:	006908b3          	add	x17,x18,x6
     2e4:	03ffc6b3          	div	x13,x31,x31
     2e8:	01fd6db3          	or	x27,x26,x31
     2ec:	032672b3          	remu	x5,x12,x18
     2f0:	029581b3          	mul	x3,x11,x9
     2f4:	402c863b          	subw	x12,x25,x2
     2f8:	63696513          	ori	x10,x18,1590
     2fc:	c81bee93          	ori	x29,x23,-895
     300:	2666cb13          	xori	x22,x13,614
     304:	0324fb3b          	remuw	x22,x9,x18
     308:	83b36513          	ori	x10,x6,-1989
     30c:	03d940bb          	divw	x1,x18,x29
     310:	e75ecb13          	xori	x22,x29,-395
     314:	4e3b029b          	addiw	x5,x22,1251
     318:	03e95fbb          	divuw	x31,x18,x30
     31c:	03b4f6bb          	remuw	x13,x9,x27
     320:	00c94633          	xor	x12,x18,x12
     324:	02948db3          	mul	x27,x9,x9
     328:	007f4db3          	xor	x27,x30,x7
     32c:	0192c633          	xor	x12,x5,x25
     330:	02e8de3b          	divuw	x28,x17,x14
     334:	02b38b33          	mul	x22,x7,x11
     338:	4169063b          	subw	x12,x18,x22
     33c:	0329c033          	div	x0,x19,x18
     340:	41ae0c33          	sub	x24,x28,x26
     344:	0b7be113          	ori	x2,x23,183
     348:	0229dd3b          	divuw	x26,x19,x2
     34c:	031d5633          	divu	x12,x26,x17
     350:	9773ca93          	xori	x21,x7,-1673
     354:	41468ab3          	sub	x21,x13,x20
     358:	42a54c13          	xori	x24,x10,1066
     35c:	01fb4933          	xor	x18,x22,x31
     360:	021656b3          	divu	x13,x12,x1
     364:	d17eea13          	ori	x20,x29,-745
     368:	000d7e33          	and	x28,x26,x0
     36c:	03687abb          	remuw	x21,x16,x22
     370:	038b013b          	mulw	x2,x22,x24
     374:	03a28dbb          	mulw	x27,x5,x26
     378:	02f9073b          	mulw	x14,x18,x15
     37c:	03806ab3          	rem	x21,x0,x24
     380:	074e8c1b          	addiw	x24,x29,116
     384:	02b0c933          	div	x18,x1,x11
     388:	033f6f33          	rem	x30,x30,x19
     38c:	0063f5b3          	and	x11,x7,x6
     390:	02a9d73b          	divuw	x14,x19,x10
     394:	034ce5b3          	rem	x11,x25,x20
     398:	012cf133          	and	x2,x25,x18
     39c:	009886bb          	addw	x13,x17,x9
     3a0:	021fd233          	divu	x4,x31,x1
     3a4:	03fe873b          	mulw	x14,x29,x31
     3a8:	02e1023b          	mulw	x4,x2,x14
     3ac:	02c27b33          	remu	x22,x4,x12
     3b0:	03fb0533          	mul	x10,x22,x31
     3b4:	0255863b          	mulw	x12,x11,x5
     3b8:	016cc6b3          	xor	x13,x25,x22
     3bc:	0396eab3          	rem	x21,x13,x25
     3c0:	030b463b          	divw	x12,x22,x16
     3c4:	bdf67e93          	andi	x29,x12,-1057
     3c8:	416807b3          	sub	x15,x16,x22
     3cc:	caebff13          	andi	x30,x23,-850
     3d0:	035b563b          	divuw	x12,x22,x21
     3d4:	00cb8b3b          	addw	x22,x23,x12
     3d8:	a9f70713          	addi	x14,x14,-1377
     3dc:	8f7dc813          	xori	x16,x27,-1801
     3e0:	014deeb3          	or	x29,x27,x20
     3e4:	0361dcb3          	divu	x25,x3,x22
     3e8:	01500fbb          	addw	x31,x0,x21
     3ec:	035d6c33          	rem	x24,x26,x21
     3f0:	03766133          	rem	x2,x12,x23
     3f4:	1f228f9b          	addiw	x31,x5,498
     3f8:	038cc333          	div	x6,x25,x24
     3fc:	03c572b3          	remu	x5,x10,x28
     400:	57e48a93          	addi	x21,x9,1406
     404:	403003bb          	negw	x7,x3
     408:	0397603b          	remw	x0,x14,x25
     40c:	00bf6ab3          	or	x21,x30,x11
     410:	02b5863b          	mulw	x12,x11,x11
     414:	01958833          	add	x16,x11,x25
     418:	0331003b          	mulw	x0,x2,x19
     41c:	b4294013          	xori	x0,x18,-1214
     420:	7f0a8f93          	addi	x31,x21,2032
     424:	02e77e3b          	remuw	x28,x14,x14
     428:	024e4133          	div	x2,x28,x4
     42c:	d5294c93          	xori	x25,x18,-686
     430:	025f853b          	mulw	x10,x31,x5
     434:	03b55d33          	divu	x26,x10,x27
     438:	0183ce33          	xor	x28,x7,x24
     43c:	f5b37c13          	andi	x24,x6,-165
     440:	03638f3b          	mulw	x30,x7,x22
     444:	018a0fbb          	addw	x31,x20,x24
     448:	015400bb          	addw	x1,x8,x21
     44c:	001c42b3          	xor	x5,x24,x1
     450:	03fddfbb          	divuw	x31,x27,x31
     454:	01807a33          	and	x20,x0,x24
     458:	0309c8bb          	divw	x17,x19,x16
     45c:	412f82bb          	subw	x5,x31,x18
     460:	01d67ab3          	and	x21,x12,x29
     464:	0009e233          	or	x4,x19,x0
     468:	aef07d93          	andi	x27,x0,-1297
     46c:	020a653b          	remw	x10,x20,x0
     470:	028b6833          	rem	x16,x22,x8
     474:	0315d4bb          	divuw	x9,x11,x17
     478:	00e9c9b3          	xor	x19,x19,x14
     47c:	0058fc33          	and	x24,x17,x5
     480:	039789b3          	mul	x19,x15,x25
     484:	00478bbb          	addw	x23,x15,x4
     488:	02265e33          	divu	x28,x12,x2
     48c:	405d83b3          	sub	x7,x27,x5
     490:	004ce7b3          	or	x15,x25,x4
     494:	0250f83b          	remuw	x16,x1,x5
     498:	03a1c333          	div	x6,x3,x26
     49c:	0092833b          	addw	x6,x5,x9
     4a0:	026bda3b          	divuw	x20,x23,x6
     4a4:	01528d33          	add	x26,x5,x21
     4a8:	03ce7abb          	remuw	x21,x28,x28
     4ac:	029385b3          	mul	x11,x7,x9
     4b0:	024842b3          	div	x5,x16,x4
     4b4:	03390533          	mul	x10,x18,x19
     4b8:	030570bb          	remuw	x1,x10,x16
     4bc:	0326c3b3          	div	x7,x13,x18
     4c0:	0222d2bb          	divuw	x5,x5,x2
     4c4:	419f0bb3          	sub	x23,x30,x25
     4c8:	01d7f7b3          	and	x15,x15,x29
     4cc:	74f7fc13          	andi	x24,x15,1871
     4d0:	f4db8713          	addi	x14,x23,-179
     4d4:	029d553b          	divuw	x10,x26,x9
     4d8:	99e64e13          	xori	x28,x12,-1634
     4dc:	01176633          	or	x12,x14,x17
     4e0:	90fc4113          	xori	x2,x24,-1777
     4e4:	41ff01bb          	subw	x3,x30,x31
     4e8:	1fd14693          	xori	x13,x2,509
     4ec:	2a3d6613          	ori	x12,x26,675
     4f0:	0287f6b3          	remu	x13,x15,x8
     4f4:	db8d0093          	addi	x1,x26,-584
     4f8:	9ed88d1b          	addiw	x26,x17,-1555
     4fc:	409485bb          	subw	x11,x9,x9
     500:	0242e03b          	remw	x0,x5,x4
     504:	64f9881b          	addiw	x16,x19,1615
     508:	028cdcbb          	divuw	x25,x25,x8
     50c:	4131073b          	subw	x14,x2,x19
     510:	02aef7bb          	remuw	x15,x29,x10
     514:	02494eb3          	div	x29,x18,x4
     518:	02054b3b          	divw	x22,x10,x0
     51c:	031647bb          	divw	x15,x12,x17
     520:	4823f293          	andi	x5,x7,1154
     524:	027de4b3          	rem	x9,x27,x7
     528:	02a65233          	divu	x4,x12,x10
     52c:	01bc6e33          	or	x28,x24,x27
     530:	ad977e13          	andi	x28,x14,-1319
     534:	016ac4b3          	xor	x9,x21,x22
     538:	009ef333          	and	x6,x29,x9
     53c:	01917c33          	and	x24,x2,x25
     540:	41e1051b          	addiw	x10,x2,1054
     544:	015c083b          	addw	x16,x24,x21
     548:	02317fbb          	remuw	x31,x2,x3
     54c:	02dc61bb          	remw	x3,x24,x13
     550:	00a24a33          	xor	x20,x4,x10
     554:	03c00d3b          	mulw	x26,x0,x28
     558:	02fcebb3          	rem	x23,x25,x15
     55c:	9a8a6193          	ori	x3,x20,-1624
     560:	014f7833          	and	x16,x30,x20
     564:	411a8033          	sub	x0,x21,x17
     568:	03e1d2bb          	divuw	x5,x3,x30
     56c:	02154db3          	div	x27,x10,x1
     570:	3fa0001b          	addiw	x0,x0,1018
     574:	03b064b3          	rem	x9,x0,x27
     578:	e77e4893          	xori	x17,x28,-393
     57c:	02b7c233          	div	x4,x15,x11
     580:	0301f133          	remu	x2,x3,x16
     584:	411f00b3          	sub	x1,x30,x17
     588:	02a36533          	rem	x10,x6,x10
     58c:	03e757bb          	divuw	x15,x14,x30
     590:	0276c03b          	divw	x0,x13,x7
     594:	0216733b          	remuw	x6,x12,x1
     598:	031601bb          	mulw	x3,x12,x17
     59c:	024bdfb3          	divu	x31,x23,x4
     5a0:	0eab8e93          	addi	x29,x23,234
     5a4:	40ec82bb          	subw	x5,x25,x14
     5a8:	02a3d333          	divu	x6,x7,x10
     5ac:	0325823b          	mulw	x4,x11,x18
     5b0:	6eda4713          	xori	x14,x20,1773
     5b4:	d8c4869b          	addiw	x13,x9,-628
     5b8:	415e89bb          	subw	x19,x29,x21
     5bc:	02af8633          	mul	x12,x31,x10
     5c0:	03b5ffb3          	remu	x31,x11,x27
     5c4:	00d865b3          	or	x11,x16,x13
     5c8:	3005ec93          	ori	x25,x11,768
     5cc:	03fa033b          	mulw	x6,x20,x31
     5d0:	0339ec33          	rem	x24,x19,x19
     5d4:	02c259b3          	divu	x19,x4,x12
     5d8:	41bc87b3          	sub	x15,x25,x27
     5dc:	3c014993          	xori	x19,x2,960
     5e0:	416682bb          	subw	x5,x13,x22
     5e4:	002c0bbb          	addw	x23,x24,x2
     5e8:	02fc5e3b          	divuw	x28,x24,x15
     5ec:	03275b33          	divu	x22,x14,x18
     5f0:	0233fdb3          	remu	x27,x7,x3
     5f4:	0192f933          	and	x18,x5,x25
     5f8:	00448cb3          	add	x25,x9,x4
     5fc:	02d5ce3b          	divw	x28,x11,x13
     600:	033371b3          	remu	x3,x6,x19
     604:	895f8a13          	addi	x20,x31,-1899
     608:	61ede493          	ori	x9,x27,1566
     60c:	007b8b33          	add	x22,x23,x7
     610:	0134edb3          	or	x27,x9,x19
     614:	00606f33          	or	x30,x0,x6
     618:	006500bb          	addw	x1,x10,x6
     61c:	c19a7513          	andi	x10,x20,-999
     620:	14c9cf93          	xori	x31,x19,332
     624:	0000ef33          	or	x30,x1,x0
     628:	916b8713          	addi	x14,x23,-1770
     62c:	004f4b33          	xor	x22,x30,x4
     630:	014f77b3          	and	x15,x30,x20
     634:	40a7813b          	subw	x2,x15,x10
     638:	e177c913          	xori	x18,x15,-489
     63c:	0160f8b3          	and	x17,x1,x22
     640:	59b34913          	xori	x18,x6,1435
     644:	01907f33          	and	x30,x0,x25
     648:	03a2deb3          	divu	x29,x5,x26
     64c:	033108bb          	mulw	x17,x2,x19
     650:	011cc233          	xor	x4,x25,x17
     654:	400f88b3          	sub	x17,x31,x0
     658:	02215f33          	divu	x30,x2,x2
     65c:	02ddec33          	rem	x24,x27,x13
     660:	40f10c33          	sub	x24,x2,x15
     664:	41d08133          	sub	x2,x1,x29
     668:	024585b3          	mul	x11,x11,x4
     66c:	40b585bb          	subw	x11,x11,x11
     670:	01ace433          	or	x8,x25,x26
     674:	028744b3          	div	x9,x14,x8
     678:	02a3edb3          	rem	x27,x7,x10
     67c:	4bfb0813          	addi	x16,x22,1215
     680:	8a79879b          	addiw	x15,x19,-1881
     684:	0206e0b3          	rem	x1,x13,x0
     688:	029475b3          	remu	x11,x8,x9
     68c:	f44a6293          	ori	x5,x20,-188
     690:	02cd65bb          	remw	x11,x26,x12
     694:	02d46733          	rem	x14,x8,x13
     698:	033887bb          	mulw	x15,x17,x19
     69c:	034386bb          	mulw	x13,x7,x20
     6a0:	021e04b3          	mul	x9,x28,x1
     6a4:	41888e3b          	subw	x28,x17,x24
     6a8:	013afdb3          	and	x27,x21,x19
     6ac:	413f873b          	subw	x14,x31,x19
     6b0:	0212e73b          	remw	x14,x5,x1
     6b4:	40be8cb3          	sub	x25,x29,x11
     6b8:	0263ccbb          	divw	x25,x7,x6
     6bc:	01c5e633          	or	x12,x11,x28
     6c0:	e793f993          	andi	x19,x7,-391
     6c4:	028e4f33          	div	x30,x28,x8
     6c8:	71e56a93          	ori	x21,x10,1822
     6cc:	2921f093          	andi	x1,x3,658
     6d0:	416e8fb3          	sub	x31,x29,x22
     6d4:	017a0c33          	add	x24,x20,x23
     6d8:	03a85f3b          	divuw	x30,x16,x26
     6dc:	02040cbb          	mulw	x25,x8,x0
     6e0:	03ead7bb          	divuw	x15,x21,x30
     6e4:	027cedbb          	remw	x27,x25,x7
     6e8:	02f36eb3          	rem	x29,x6,x15
     6ec:	0265d433          	divu	x8,x11,x6
     6f0:	035fd63b          	divuw	x12,x31,x21
     6f4:	03e4c333          	div	x6,x9,x30
     6f8:	038c83bb          	mulw	x7,x25,x24
     6fc:	02c2c9b3          	div	x19,x5,x12
     700:	e8954993          	xori	x19,x10,-375
     704:	03c8563b          	divuw	x12,x16,x28
     708:	0263043b          	mulw	x8,x6,x6
     70c:	0394ff3b          	remuw	x30,x9,x25
     710:	0231d633          	divu	x12,x3,x3
     714:	03db793b          	remuw	x18,x22,x29
     718:	0394ce33          	div	x28,x9,x25
     71c:	02110a3b          	mulw	x20,x2,x1
     720:	00540d3b          	addw	x26,x8,x5
     724:	40ca0ebb          	subw	x29,x20,x12
     728:	03ff05b3          	mul	x11,x30,x31
     72c:	00acc9b3          	xor	x19,x25,x10
     730:	01bf8833          	add	x16,x31,x27
     734:	29310813          	addi	x16,x2,659
     738:	1e3d6513          	ori	x10,x26,483
     73c:	009d84bb          	addw	x9,x27,x9
     740:	917f0313          	addi	x6,x30,-1769
     744:	cc6f001b          	addiw	x0,x30,-826
     748:	025f0abb          	mulw	x21,x30,x5
     74c:	41e10f3b          	subw	x30,x2,x30
     750:	03f4cc3b          	divw	x24,x9,x31
     754:	0200593b          	divuw	x18,x0,x0
     758:	029078b3          	remu	x17,x0,x9
     75c:	02fae7b3          	rem	x15,x21,x15
     760:	b6ebc413          	xori	x8,x23,-1170
     764:	02df4333          	div	x6,x30,x13
     768:	037bdbbb          	divuw	x23,x23,x23
     76c:	03dcd0bb          	divuw	x1,x25,x29
     770:	0297efb3          	rem	x31,x15,x9
     774:	015909b3          	add	x19,x18,x21
     778:	82c04a93          	xori	x21,x0,-2004
     77c:	02f90e3b          	mulw	x28,x18,x15
     780:	02fc8533          	mul	x10,x25,x15
     784:	7cb68f9b          	addiw	x31,x13,1995
     788:	031a6f33          	rem	x30,x20,x17
     78c:	40c80c3b          	subw	x24,x16,x12
     790:	01f36ab3          	or	x21,x6,x31
     794:	036bc73b          	divw	x14,x23,x22
     798:	03810d33          	mul	x26,x2,x24
     79c:	027f53bb          	divuw	x7,x30,x7
     7a0:	02707abb          	remuw	x21,x0,x7
     7a4:	76e1f613          	andi	x12,x3,1902
     7a8:	75a98e93          	addi	x29,x19,1882
     7ac:	8fc5f813          	andi	x16,x11,-1796
     7b0:	03edec3b          	remw	x24,x27,x30
     7b4:	c196859b          	addiw	x11,x13,-999
     7b8:	aa224113          	xori	x2,x4,-1374
     7bc:	02f142b3          	div	x5,x2,x15
     7c0:	41ae03bb          	subw	x7,x28,x26
     7c4:	46f90513          	addi	x10,x18,1135
     7c8:	404603b3          	sub	x7,x12,x4
     7cc:	031b41bb          	divw	x3,x22,x17
     7d0:	02fc5db3          	divu	x27,x24,x15
     7d4:	0066e433          	or	x8,x13,x6
     7d8:	4779cc13          	xori	x24,x19,1143
     7dc:	02e7f1bb          	remuw	x3,x15,x14
     7e0:	021defbb          	remw	x31,x27,x1
     7e4:	03346ebb          	remw	x29,x8,x19
     7e8:	01030cb3          	add	x25,x6,x16
     7ec:	02e0703b          	remuw	x0,x0,x14
     7f0:	00b804b3          	add	x9,x16,x11
     7f4:	015f0233          	add	x4,x30,x21
     7f8:	02eddc33          	divu	x24,x27,x14
     7fc:	020482b3          	mul	x5,x9,x0
     800:	0079e7b3          	or	x15,x19,x7
     804:	02770e3b          	mulw	x28,x14,x7
     808:	83b1f193          	andi	x3,x3,-1989
     80c:	415f85b3          	sub	x11,x31,x21
     810:	0389cb3b          	divw	x22,x19,x24
     814:	41158a3b          	subw	x20,x11,x17
     818:	01b76233          	or	x4,x14,x27
     81c:	bdfe6293          	ori	x5,x28,-1057
     820:	01a2013b          	addw	x2,x4,x26
     824:	01eb8bb3          	add	x23,x23,x30
     828:	01e0c0b3          	xor	x1,x1,x30
     82c:	008ef1b3          	and	x3,x29,x8
     830:	0312e133          	rem	x2,x5,x17
     834:	012840b3          	xor	x1,x16,x18
     838:	47670613          	addi	x12,x14,1142
     83c:	023d77bb          	remuw	x15,x26,x3
     840:	00c40b3b          	addw	x22,x8,x12
     844:	023859b3          	divu	x19,x16,x3
     848:	438d811b          	addiw	x2,x27,1080
     84c:	03b1c0bb          	divw	x1,x3,x27
     850:	0245fc33          	remu	x24,x11,x4
     854:	03c8fabb          	remuw	x21,x17,x28
     858:	300e0e13          	addi	x28,x28,768
     85c:	02925033          	divu	x0,x4,x9
     860:	12934f93          	xori	x31,x6,297
     864:	40ca6e13          	ori	x28,x20,1036
     868:	40308fb3          	sub	x31,x1,x3
     86c:	01417d33          	and	x26,x2,x20
     870:	6e3b8f1b          	addiw	x30,x23,1763
     874:	2c957513          	andi	x10,x10,713
     878:	0375083b          	mulw	x16,x10,x23
     87c:	fd86861b          	addiw	x12,x13,-40
     880:	362cf293          	andi	x5,x25,866
     884:	00c86eb3          	or	x29,x16,x12
     888:	417f07bb          	subw	x15,x30,x23
     88c:	1a756193          	ori	x3,x10,423
     890:	40cb063b          	subw	x12,x22,x12
     894:	2e457c93          	andi	x25,x10,740
     898:	01bcc433          	xor	x8,x25,x27
     89c:	410e0bbb          	subw	x23,x28,x16
     8a0:	03278c3b          	mulw	x24,x15,x18
     8a4:	00fc0fbb          	addw	x31,x24,x15
     8a8:	02597dbb          	remuw	x27,x18,x5
     8ac:	7dbc7113          	andi	x2,x24,2011
     8b0:	03fcca3b          	divw	x20,x25,x31
     8b4:	01240eb3          	add	x29,x8,x18
     8b8:	01cf6b33          	or	x22,x30,x28
     8bc:	02c17f3b          	remuw	x30,x2,x12
     8c0:	01d487bb          	addw	x15,x9,x29
     8c4:	401e0e3b          	subw	x28,x28,x1
     8c8:	034a75b3          	remu	x11,x20,x20
     8cc:	024e5a3b          	divuw	x20,x28,x4
     8d0:	02626ab3          	rem	x21,x4,x6
     8d4:	039bc2b3          	div	x5,x23,x25
     8d8:	024b553b          	divuw	x10,x22,x4
     8dc:	0285843b          	mulw	x8,x11,x8
     8e0:	dd344b13          	xori	x22,x8,-557
     8e4:	00b08c33          	add	x24,x1,x11
     8e8:	03427abb          	remuw	x21,x4,x20
     8ec:	0312d03b          	divuw	x0,x5,x17
     8f0:	029b04b3          	mul	x9,x22,x9
     8f4:	130a0493          	addi	x9,x20,304
     8f8:	033305b3          	mul	x11,x6,x19
     8fc:	034deebb          	remw	x29,x27,x20
     900:	40a803bb          	subw	x7,x16,x10
     904:	03f3763b          	remuw	x12,x6,x31
     908:	0380793b          	remuw	x18,x0,x24
     90c:	03e4643b          	remw	x8,x8,x30
     910:	d745839b          	addiw	x7,x11,-652
     914:	03dafd33          	remu	x26,x21,x29
     918:	411d8db3          	sub	x27,x27,x17
     91c:	00aa63b3          	or	x7,x20,x10
     920:	009c0733          	add	x14,x24,x9
     924:	adb16413          	ori	x8,x2,-1317
     928:	0067f033          	and	x0,x15,x6
     92c:	02f155b3          	divu	x11,x2,x15
     930:	02e3f6b3          	remu	x13,x7,x14
     934:	024d7333          	remu	x6,x26,x4
     938:	407c86bb          	subw	x13,x25,x7
     93c:	00268933          	add	x18,x13,x2
     940:	40a6883b          	subw	x16,x13,x10
     944:	000b76b3          	and	x13,x22,x0
     948:	00f20dbb          	addw	x27,x4,x15
     94c:	32dc4a93          	xori	x21,x24,813
     950:	0286d9b3          	divu	x19,x13,x8
     954:	01a9c733          	xor	x14,x19,x26
     958:	0289f833          	remu	x16,x19,x8
     95c:	1966c113          	xori	x2,x13,406
     960:	000e0cbb          	addw	x25,x28,x0
     964:	013cf0b3          	and	x1,x25,x19
     968:	f2a00e9b          	addiw	x29,x0,-214
     96c:	41e28033          	sub	x0,x5,x30
     970:	0064833b          	addw	x6,x9,x6
     974:	006be1b3          	or	x3,x23,x6
     978:	03776fbb          	remw	x31,x14,x23
     97c:	028afbbb          	remuw	x23,x21,x8
     980:	01598dbb          	addw	x27,x19,x21
     984:	016105bb          	addw	x11,x2,x22
     988:	014281b3          	add	x3,x5,x20
     98c:	0151e333          	or	x6,x3,x21
     990:	42cc7193          	andi	x3,x24,1068
     994:	0287d9bb          	divuw	x19,x15,x8
     998:	03ea05b3          	mul	x11,x20,x30
     99c:	b747899b          	addiw	x19,x15,-1164
     9a0:	0004c6b3          	xor	x13,x9,x0
     9a4:	03515033          	divu	x0,x2,x21
     9a8:	40278bbb          	subw	x23,x15,x2
     9ac:	02ca0ab3          	mul	x21,x20,x12
     9b0:	0345c93b          	divw	x18,x11,x20
     9b4:	01590d33          	add	x26,x18,x21
     9b8:	03ec5e33          	divu	x28,x24,x30
     9bc:	1ea48113          	addi	x2,x9,490
     9c0:	d6566d13          	ori	x26,x12,-667
     9c4:	c27dce13          	xori	x28,x27,-985
     9c8:	02e501bb          	mulw	x3,x10,x14
     9cc:	0372c6b3          	div	x13,x5,x23
     9d0:	414288b3          	sub	x17,x5,x20
     9d4:	00ec6133          	or	x2,x24,x14
     9d8:	e50c7893          	andi	x17,x24,-432
     9dc:	00a80bb3          	add	x23,x16,x10
     9e0:	01a08abb          	addw	x21,x1,x26
     9e4:	03fc6db3          	rem	x27,x24,x31
     9e8:	02e549bb          	divw	x19,x10,x14
     9ec:	00336f33          	or	x30,x6,x3
     9f0:	0119003b          	addw	x0,x18,x17
     9f4:	412089b3          	sub	x19,x1,x18
     9f8:	03650f33          	mul	x30,x10,x22
     9fc:	011872b3          	and	x5,x16,x17
     a00:	00a6f633          	and	x12,x13,x10
     a04:	029b58bb          	divuw	x17,x22,x9
     a08:	0285cdb3          	div	x27,x11,x8
     a0c:	03aa4e3b          	divw	x28,x20,x26
     a10:	71990593          	addi	x11,x18,1817
     a14:	02fdd63b          	divuw	x12,x27,x15
     a18:	36354193          	xori	x3,x10,867
     a1c:	40fa083b          	subw	x16,x20,x15
     a20:	4153083b          	subw	x16,x6,x21
     a24:	015f84b3          	add	x9,x31,x21
     a28:	03018db3          	mul	x27,x3,x16
     a2c:	019de733          	or	x14,x27,x25
     a30:	ac46f693          	andi	x13,x13,-1340
     a34:	009ded33          	or	x26,x27,x9
     a38:	036684b3          	mul	x9,x13,x22
     a3c:	0373e833          	rem	x16,x7,x23
     a40:	039281bb          	mulw	x3,x5,x25
     a44:	02adf0bb          	remuw	x1,x27,x10
     a48:	02a24cb3          	div	x25,x4,x10
     a4c:	40ea06bb          	subw	x13,x20,x14
     a50:	300d0a9b          	addiw	x21,x26,768
     a54:	0148873b          	addw	x14,x17,x20
     a58:	0249c033          	div	x0,x19,x4
     a5c:	023a8c3b          	mulw	x24,x21,x3
     a60:	025f51b3          	divu	x3,x30,x5
     a64:	03724033          	div	x0,x4,x23
     a68:	00088033          	add	x0,x17,x0
     a6c:	02c4dcbb          	divuw	x25,x9,x12
     a70:	002c87b3          	add	x15,x25,x2
     a74:	022077b3          	remu	x15,x0,x2
     a78:	004ecdb3          	xor	x27,x29,x4
     a7c:	a00f8a9b          	addiw	x21,x31,-1536
     a80:	0046873b          	addw	x14,x13,x4
     a84:	40838c33          	sub	x24,x7,x8
     a88:	022dffbb          	remuw	x31,x27,x2
     a8c:	02aa863b          	mulw	x12,x21,x10
     a90:	036be8b3          	rem	x17,x23,x22
     a94:	0343cebb          	divw	x29,x7,x20
     a98:	03e8c43b          	divw	x8,x17,x30
     a9c:	40cc07bb          	subw	x15,x24,x12
     aa0:	02e85a33          	divu	x20,x16,x14
     aa4:	4068883b          	subw	x16,x17,x6
     aa8:	028bc63b          	divw	x12,x23,x8
     aac:	01780e33          	add	x28,x16,x23
     ab0:	028580b3          	mul	x1,x11,x8
     ab4:	020e57b3          	divu	x15,x28,x0
     ab8:	0279e9bb          	remw	x19,x19,x7
     abc:	419f08b3          	sub	x17,x30,x25
     ac0:	03d276b3          	remu	x13,x4,x29
     ac4:	010163b3          	or	x7,x2,x16
     ac8:	02456e33          	rem	x28,x10,x4
     acc:	012cedb3          	or	x27,x25,x18
     ad0:	02a450bb          	divuw	x1,x8,x10
     ad4:	06756c93          	ori	x25,x10,103
     ad8:	035c6eb3          	rem	x29,x24,x21
     adc:	414f81bb          	subw	x3,x31,x20
     ae0:	02a1773b          	remuw	x14,x2,x10
     ae4:	03de8ab3          	mul	x21,x29,x29
     ae8:	01e57b33          	and	x22,x10,x30
     aec:	02ae78bb          	remuw	x17,x28,x10
     af0:	03c67abb          	remuw	x21,x12,x28
     af4:	0253773b          	remuw	x14,x6,x5
     af8:	29b6c213          	xori	x4,x13,667
     afc:	41a40e3b          	subw	x28,x8,x26
     b00:	037cf1b3          	remu	x3,x25,x23
     b04:	5c2afa93          	andi	x21,x21,1474
     b08:	03c16e33          	rem	x28,x2,x28
     b0c:	01496933          	or	x18,x18,x20
     b10:	985fc213          	xori	x4,x31,-1659
     b14:	01dc45b3          	xor	x11,x24,x29
     b18:	00150ab3          	add	x21,x10,x1
     b1c:	036142bb          	divw	x5,x2,x22
     b20:	03bef1b3          	remu	x3,x29,x27
     b24:	007c6433          	or	x8,x24,x7
     b28:	0291f733          	remu	x14,x3,x9
     b2c:	418283bb          	subw	x7,x5,x24
     b30:	01d74133          	xor	x2,x14,x29
     b34:	012f073b          	addw	x14,x30,x18
     b38:	03ab6eb3          	rem	x29,x22,x26
     b3c:	02075533          	divu	x10,x14,x0
     b40:	030160b3          	rem	x1,x2,x16
     b44:	1421fc93          	andi	x25,x3,322
     b48:	01d30bb3          	add	x23,x6,x29
     b4c:	03644f3b          	divw	x30,x8,x22
     b50:	02f7f1bb          	remuw	x3,x15,x15
     b54:	038cc4bb          	divw	x9,x25,x24
     b58:	ad907693          	andi	x13,x0,-1319
     b5c:	41ba0a33          	sub	x20,x20,x27
     b60:	13307b93          	andi	x23,x0,307
     b64:	cb76c393          	xori	x7,x13,-841
     b68:	68b2c393          	xori	x7,x5,1675
     b6c:	0104c3b3          	xor	x7,x9,x16
     b70:	cd980193          	addi	x3,x16,-807
     b74:	00226eb3          	or	x29,x4,x2
     b78:	0301d933          	divu	x18,x3,x16
     b7c:	01276933          	or	x18,x14,x18
     b80:	0230f6b3          	remu	x13,x1,x3
     b84:	cff50293          	addi	x5,x10,-769
     b88:	1b4fe893          	ori	x17,x31,436
     b8c:	000663b3          	or	x7,x12,x0
     b90:	0301ecb3          	rem	x25,x3,x16
     b94:	03e845b3          	div	x11,x16,x30
     b98:	00d10ab3          	add	x21,x2,x13
     b9c:	020e55b3          	divu	x11,x28,x0
     ba0:	021ce7bb          	remw	x15,x25,x1
     ba4:	02f7eeb3          	rem	x29,x15,x15
     ba8:	02b9e03b          	remw	x0,x19,x11
     bac:	15034593          	xori	x11,x6,336
     bb0:	a991e393          	ori	x7,x3,-1383
     bb4:	02a97b3b          	remuw	x22,x18,x10
     bb8:	41598b33          	sub	x22,x19,x21
     bbc:	0212f933          	remu	x18,x5,x1
     bc0:	15d24e93          	xori	x29,x4,349
     bc4:	03614f33          	div	x30,x2,x22
     bc8:	401786bb          	subw	x13,x15,x1
     bcc:	00324333          	xor	x6,x4,x3
     bd0:	f5f8079b          	addiw	x15,x16,-161
     bd4:	03924e3b          	divw	x28,x4,x25
     bd8:	025c6133          	rem	x2,x24,x5
     bdc:	0062083b          	addw	x16,x4,x6
     be0:	ffa9e513          	ori	x10,x19,-6
     be4:	d8e2009b          	addiw	x1,x4,-626 # fffffffffffffd8e <_binary_lab1_extra_test_bin_end+0xfffffffffffdfd6e>
     be8:	40600133          	neg	x2,x6
     bec:	041c0c1b          	addiw	x24,x24,65
     bf0:	02f66533          	rem	x10,x12,x15
     bf4:	41f3063b          	subw	x12,x6,x31
     bf8:	0360df33          	divu	x30,x1,x22
     bfc:	01166f33          	or	x30,x12,x17
     c00:	02cbddb3          	divu	x27,x23,x12
     c04:	0379e233          	rem	x4,x19,x23
     c08:	41f58a33          	sub	x20,x11,x31
     c0c:	026c7bb3          	remu	x23,x24,x6
     c10:	f3b3fa13          	andi	x20,x7,-197
     c14:	036464b3          	rem	x9,x8,x22
     c18:	03bb663b          	remw	x12,x22,x27
     c1c:	03074a3b          	divw	x20,x14,x16
     c20:	8dd34f13          	xori	x30,x6,-1827
     c24:	9aa7e713          	ori	x14,x15,-1622
     c28:	008477b3          	and	x15,x8,x8
     c2c:	0247fcb3          	remu	x25,x15,x4
     c30:	02c85933          	divu	x18,x16,x12
     c34:	028644bb          	divw	x9,x12,x8
     c38:	02d7ebbb          	remw	x23,x15,x13
     c3c:	004a88bb          	addw	x17,x21,x4
     c40:	419c09b3          	sub	x19,x24,x25
     c44:	022ecab3          	div	x21,x29,x2
     c48:	03ab053b          	mulw	x10,x22,x26
     c4c:	1692ea13          	ori	x20,x5,361
     c50:	03fdd3b3          	divu	x7,x27,x31
     c54:	8b908b9b          	addiw	x23,x1,-1863
     c58:	19168793          	addi	x15,x13,401
     c5c:	003d0db3          	add	x27,x26,x3
     c60:	40f40dbb          	subw	x27,x8,x15
     c64:	03338b33          	mul	x22,x7,x19
     c68:	0304ee33          	rem	x28,x9,x16
     c6c:	0138053b          	addw	x10,x16,x19
     c70:	025e06bb          	mulw	x13,x28,x5
     c74:	40ae8a33          	sub	x20,x29,x10
     c78:	763c8493          	addi	x9,x25,1891
     c7c:	005d6433          	or	x8,x26,x5
     c80:	01b27233          	and	x4,x4,x27
     c84:	e4958913          	addi	x18,x11,-439
     c88:	0342eb33          	rem	x22,x5,x20
     c8c:	03167dbb          	remuw	x27,x12,x17
     c90:	02f2d43b          	divuw	x8,x5,x15
     c94:	02c980bb          	mulw	x1,x19,x12
     c98:	0081ee33          	or	x28,x3,x8
     c9c:	40f2803b          	subw	x0,x5,x15
     ca0:	41640d33          	sub	x26,x8,x22
     ca4:	611d0b13          	addi	x22,x26,1553
     ca8:	0239fabb          	remuw	x21,x19,x3
     cac:	029e4a3b          	divw	x20,x28,x9
     cb0:	0091e1b3          	or	x3,x3,x9
     cb4:	00d18633          	add	x12,x3,x13
     cb8:	03d565b3          	rem	x11,x10,x29
     cbc:	af40e093          	ori	x1,x1,-1292
     cc0:	0360c33b          	divw	x6,x1,x22
     cc4:	01ba0c33          	add	x24,x20,x27
     cc8:	b8d6fb93          	andi	x23,x13,-1139
     ccc:	03f58abb          	mulw	x21,x11,x31
     cd0:	031c8d3b          	mulw	x26,x25,x17
     cd4:	40b983bb          	subw	x7,x19,x11
     cd8:	01a2c0b3          	xor	x1,x5,x26
     cdc:	8dc37a13          	andi	x20,x6,-1828
     ce0:	24448f9b          	addiw	x31,x9,580
     ce4:	02f7753b          	remuw	x10,x14,x15
     ce8:	40190e3b          	subw	x28,x18,x1
     cec:	006d7eb3          	and	x29,x26,x6
     cf0:	00a50d33          	add	x26,x10,x10
     cf4:	021f4633          	div	x12,x30,x1
     cf8:	40bd04b3          	sub	x9,x26,x11
     cfc:	a31a0713          	addi	x14,x20,-1487
     d00:	032a5333          	divu	x6,x20,x18
     d04:	0133c1b3          	xor	x3,x7,x19
     d08:	02ad0bbb          	mulw	x23,x26,x10
     d0c:	023341bb          	divw	x3,x6,x3
     d10:	035e7b33          	remu	x22,x28,x21
     d14:	403105bb          	subw	x11,x2,x3
     d18:	407081bb          	subw	x3,x1,x7
     d1c:	00fec333          	xor	x6,x29,x15
     d20:	01e9c6b3          	xor	x13,x19,x30
     d24:	01807eb3          	and	x29,x0,x24
     d28:	03b90c3b          	mulw	x24,x18,x27
     d2c:	1f446993          	ori	x19,x8,500
     d30:	014170b3          	and	x1,x2,x20
     d34:	40460333          	sub	x6,x12,x4
     d38:	407c81b3          	sub	x3,x25,x7
     d3c:	02296eb3          	rem	x29,x18,x2
     d40:	03d2e733          	rem	x14,x5,x29
     d44:	037a60b3          	rem	x1,x20,x23
     d48:	026f0233          	mul	x4,x30,x6
     d4c:	004a6d33          	or	x26,x20,x4
     d50:	419e05bb          	subw	x11,x28,x25
     d54:	0359cd33          	div	x26,x19,x21
     d58:	00a58a3b          	addw	x20,x11,x10
     d5c:	02beea33          	rem	x20,x29,x11
     d60:	838d4213          	xori	x4,x26,-1992
     d64:	41e6033b          	subw	x6,x12,x30
     d68:	415f8e3b          	subw	x28,x31,x21
     d6c:	0340dabb          	divuw	x21,x1,x20
     d70:	000e8f33          	add	x30,x29,x0
     d74:	0decf113          	andi	x2,x25,222
     d78:	023a66b3          	rem	x13,x20,x3
     d7c:	0089fd33          	and	x26,x19,x8
     d80:	8e897b13          	andi	x22,x18,-1816
     d84:	0325c133          	div	x2,x11,x18
     d88:	01a18cbb          	addw	x25,x3,x26
     d8c:	02066fb3          	rem	x31,x12,x0
     d90:	02370ab3          	mul	x21,x14,x3
     d94:	851f6d13          	ori	x26,x30,-1967
     d98:	024bcebb          	divw	x29,x23,x4
     d9c:	02a6e3bb          	remw	x7,x13,x10
     da0:	03ab8d3b          	mulw	x26,x23,x26
     da4:	0374eabb          	remw	x21,x9,x23
     da8:	405783b3          	sub	x7,x15,x5
     dac:	008e8db3          	add	x27,x29,x8
     db0:	02125d33          	divu	x26,x4,x1
     db4:	01b0013b          	addw	x2,x0,x27
     db8:	02d98ebb          	mulw	x29,x19,x13
     dbc:	00064633          	xor	x12,x12,x0
     dc0:	9e988913          	addi	x18,x17,-1559
     dc4:	d895809b          	addiw	x1,x11,-631
     dc8:	02b2dcb3          	divu	x25,x5,x11
     dcc:	cd960a13          	addi	x20,x12,-807
     dd0:	4f784613          	xori	x12,x16,1271
     dd4:	c07a0d9b          	addiw	x27,x20,-1017
     dd8:	0043cf33          	xor	x30,x7,x4
     ddc:	00996cb3          	or	x25,x18,x9
     de0:	01b3c5b3          	xor	x11,x7,x27
     de4:	02f6c5bb          	divw	x11,x13,x15
     de8:	036060b3          	rem	x1,x0,x22
     dec:	0343fb33          	remu	x22,x7,x20
     df0:	0349753b          	remuw	x10,x18,x20
     df4:	02f1fe3b          	remuw	x28,x3,x15
     df8:	4016873b          	subw	x14,x13,x1
     dfc:	41390233          	sub	x4,x18,x19
     e00:	01f30533          	add	x10,x6,x31
     e04:	033f5eb3          	divu	x29,x30,x19
     e08:	027ac133          	div	x2,x21,x7
     e0c:	11c4869b          	addiw	x13,x9,284
     e10:	0237cc3b          	divw	x24,x15,x3
     e14:	02294f3b          	divw	x30,x18,x2
     e18:	001c8e33          	add	x28,x25,x1
     e1c:	02615f3b          	divuw	x30,x2,x6
     e20:	1a928f13          	addi	x30,x5,425
     e24:	03b067b3          	rem	x15,x0,x27
     e28:	01228db3          	add	x27,x5,x18
     e2c:	00d0e833          	or	x16,x1,x13
     e30:	02c5d13b          	divuw	x2,x11,x12
     e34:	035cde3b          	divuw	x28,x25,x21
     e38:	048b0313          	addi	x6,x22,72
     e3c:	02a30333          	mul	x6,x6,x10
     e40:	adc66a13          	ori	x20,x12,-1316
     e44:	036c7133          	remu	x2,x24,x22
     e48:	7af28a13          	addi	x20,x5,1967
     e4c:	d2658f9b          	addiw	x31,x11,-730
     e50:	24316913          	ori	x18,x2,579
     e54:	03124a3b          	divw	x20,x4,x17
     e58:	00714833          	xor	x16,x2,x7
     e5c:	00064eb3          	xor	x29,x12,x0
     e60:	02c64c3b          	divw	x24,x12,x12
     e64:	00087333          	and	x6,x16,x0
     e68:	021d61b3          	rem	x3,x26,x1
     e6c:	027bfdb3          	remu	x27,x23,x7
     e70:	023fd53b          	divuw	x10,x31,x3
     e74:	01074db3          	xor	x27,x14,x16
     e78:	ff00021b          	addiw	x4,x0,-16
     e7c:	024efa3b          	remuw	x20,x29,x4
     e80:	029d0333          	mul	x6,x26,x9
     e84:	021b5c3b          	divuw	x24,x22,x1
     e88:	7b596213          	ori	x4,x18,1973
     e8c:	02fbfabb          	remuw	x21,x23,x15
     e90:	c2c78f1b          	addiw	x30,x15,-980
     e94:	02c67b3b          	remuw	x22,x12,x12
     e98:	4189023b          	subw	x4,x18,x24
     e9c:	00d9f033          	and	x0,x19,x13
     ea0:	026688bb          	mulw	x17,x13,x6
     ea4:	8db7e793          	ori	x15,x15,-1829
     ea8:	0348523b          	divuw	x4,x16,x20
     eac:	1eda879b          	addiw	x15,x21,493
     eb0:	03dac33b          	divw	x6,x21,x29
     eb4:	02a2fd3b          	remuw	x26,x5,x10
     eb8:	02630833          	mul	x16,x6,x6
     ebc:	02d60c3b          	mulw	x24,x12,x13
     ec0:	029c86b3          	mul	x13,x25,x9
     ec4:	027e5db3          	divu	x27,x28,x7
     ec8:	018b093b          	addw	x18,x22,x24
     ecc:	0274093b          	mulw	x18,x8,x7
     ed0:	015c03b3          	add	x7,x24,x21
     ed4:	0252c833          	div	x16,x5,x5
     ed8:	02e4613b          	remw	x2,x8,x14
     edc:	002d6eb3          	or	x29,x26,x2
     ee0:	026f03b3          	mul	x7,x30,x6
     ee4:	001884b3          	add	x9,x17,x1
     ee8:	b3e7ca93          	xori	x21,x15,-1218
     eec:	02f4fd3b          	remuw	x26,x9,x15
     ef0:	03ea753b          	remuw	x10,x20,x30
     ef4:	3c746413          	ori	x8,x8,967
     ef8:	d107859b          	addiw	x11,x15,-752
     efc:	0380043b          	mulw	x8,x0,x24
     f00:	a61dce93          	xori	x29,x27,-1439
     f04:	1d9b8613          	addi	x12,x23,473
     f08:	30fb7113          	andi	x2,x22,783
     f0c:	016c0fb3          	add	x31,x24,x22
     f10:	2b927193          	andi	x3,x4,697
     f14:	03c58ab3          	mul	x21,x11,x28
     f18:	035bc9bb          	divw	x19,x23,x21
     f1c:	0339f73b          	remuw	x14,x19,x19
     f20:	02da52b3          	divu	x5,x20,x13
     f24:	5f25f093          	andi	x1,x11,1522
     f28:	00aec533          	xor	x10,x29,x10
     f2c:	4014083b          	subw	x16,x8,x1
     f30:	0030803b          	addw	x0,x1,x3
     f34:	02f2623b          	remw	x4,x4,x15
     f38:	41ec8633          	sub	x12,x25,x30
     f3c:	4616099b          	addiw	x19,x12,1121
     f40:	41dd0a33          	sub	x20,x26,x29
     f44:	01e2eab3          	or	x21,x5,x30
     f48:	032b583b          	divuw	x16,x22,x18
     f4c:	0079ceb3          	xor	x29,x19,x7
     f50:	978bcc13          	xori	x24,x23,-1672
     f54:	40bf8033          	sub	x0,x31,x11
     f58:	0023c333          	xor	x6,x7,x2
     f5c:	03148333          	mul	x6,x9,x17
     f60:	036e763b          	remuw	x12,x28,x22
     f64:	020cfe33          	remu	x28,x25,x0
     f68:	0318ffb3          	remu	x31,x17,x17
     f6c:	0303e833          	rem	x16,x7,x16
     f70:	00c26733          	or	x14,x4,x12
     f74:	00ccf8b3          	and	x17,x25,x12
     f78:	03c4c13b          	divw	x2,x9,x28
     f7c:	03e1813b          	mulw	x2,x3,x30
     f80:	03aa80b3          	mul	x1,x21,x26
     f84:	03d90133          	mul	x2,x18,x29
     f88:	41778b3b          	subw	x22,x15,x23
     f8c:	1437f813          	andi	x16,x15,323
     f90:	0289c8b3          	div	x17,x19,x8
     f94:	0355ccbb          	divw	x25,x11,x21
     f98:	02497a33          	remu	x20,x18,x4
     f9c:	00096ab3          	or	x21,x18,x0
     fa0:	0225e7b3          	rem	x15,x11,x2
     fa4:	005f8b3b          	addw	x22,x31,x5
     fa8:	1e298113          	addi	x2,x19,482
     fac:	5032081b          	addiw	x16,x4,1283 # 503 <_binary_lab1_extra_test_bin_start+0x503>
     fb0:	026dcbbb          	divw	x23,x27,x6
     fb4:	021f4833          	div	x16,x30,x1
     fb8:	005a6233          	or	x4,x20,x5
     fbc:	75b10493          	addi	x9,x2,1883
     fc0:	02d44133          	div	x2,x8,x13
     fc4:	40c48b3b          	subw	x22,x9,x12
     fc8:	40d482bb          	subw	x5,x9,x13
     fcc:	40cc8033          	sub	x0,x25,x12
     fd0:	40628233          	sub	x4,x5,x6
     fd4:	03b1f3b3          	remu	x7,x3,x27
     fd8:	010a0f3b          	addw	x30,x20,x16
     fdc:	05c20d93          	addi	x27,x4,92 # 5c <_binary_lab1_extra_test_bin_start+0x5c>
     fe0:	027be33b          	remw	x6,x23,x7
     fe4:	41618bbb          	subw	x23,x3,x22
     fe8:	2e368d9b          	addiw	x27,x13,739
     fec:	02e8f233          	remu	x4,x17,x14
     ff0:	57570813          	addi	x16,x14,1397
     ff4:	03fdd7b3          	divu	x15,x27,x31
     ff8:	4120813b          	subw	x2,x1,x18
     ffc:	03a74a3b          	divw	x20,x14,x26
    1000:	2efcf693          	andi	x13,x25,751
    1004:	028e49bb          	divw	x19,x28,x8
    1008:	03adf0b3          	remu	x1,x27,x26
    100c:	03b346bb          	divw	x13,x6,x27
    1010:	03eaf8bb          	remuw	x17,x21,x30
    1014:	00af67b3          	or	x15,x30,x10
    1018:	038351bb          	divuw	x3,x6,x24
    101c:	1dc0f593          	andi	x11,x1,476
    1020:	01910cbb          	addw	x25,x2,x25
    1024:	02127abb          	remuw	x21,x4,x1
    1028:	01c4c5b3          	xor	x11,x9,x28
    102c:	0297d63b          	divuw	x12,x15,x9
    1030:	039d003b          	mulw	x0,x26,x25
    1034:	26e56c13          	ori	x24,x10,622
    1038:	412488bb          	subw	x17,x9,x18
    103c:	012f05b3          	add	x11,x30,x18
    1040:	a155c193          	xori	x3,x11,-1515
    1044:	415387b3          	sub	x15,x7,x21
    1048:	015f60b3          	or	x1,x30,x21
    104c:	02b5cd3b          	divw	x26,x11,x11
    1050:	03b4d93b          	divuw	x18,x9,x27
    1054:	03bbd733          	divu	x14,x23,x27
    1058:	01eb7333          	and	x6,x22,x30
    105c:	02d8d23b          	divuw	x4,x17,x13
    1060:	41ce09b3          	sub	x19,x28,x28
    1064:	066dfe13          	andi	x28,x27,102
    1068:	412485b3          	sub	x11,x9,x18
    106c:	0bde029b          	addiw	x5,x28,189
    1070:	0231ed3b          	remw	x26,x3,x3
    1074:	021f7fb3          	remu	x31,x30,x1
    1078:	025d0e3b          	mulw	x28,x26,x5
    107c:	8071ff93          	andi	x31,x3,-2041
    1080:	029bc1b3          	div	x3,x23,x9
    1084:	0302533b          	divuw	x6,x4,x16
    1088:	03f75fb3          	divu	x31,x14,x31
    108c:	00caef33          	or	x30,x21,x12
    1090:	02cc05b3          	mul	x11,x24,x12
    1094:	77076c13          	ori	x24,x14,1904
    1098:	02feecb3          	rem	x25,x29,x15
    109c:	03526f3b          	remw	x30,x4,x21
    10a0:	020864b3          	rem	x9,x16,x0
    10a4:	003f8eb3          	add	x29,x31,x3
    10a8:	01d16c33          	or	x24,x2,x29
    10ac:	cc878213          	addi	x4,x15,-824
    10b0:	02c243bb          	divw	x7,x4,x12
    10b4:	037f013b          	mulw	x2,x30,x23
    10b8:	f68b6293          	ori	x5,x22,-152
    10bc:	fc4bc313          	xori	x6,x23,-60
    10c0:	027e0eb3          	mul	x29,x28,x7
    10c4:	00b482bb          	addw	x5,x9,x11
    10c8:	037681b3          	mul	x3,x13,x23
    10cc:	00d283bb          	addw	x7,x5,x13
    10d0:	00e48fbb          	addw	x31,x9,x14
    10d4:	faf27593          	andi	x11,x4,-81
    10d8:	2ed10b1b          	addiw	x22,x2,749
    10dc:	038e7a33          	remu	x20,x28,x24
    10e0:	41f785b3          	sub	x11,x15,x31
    10e4:	039b5bbb          	divuw	x23,x22,x25
    10e8:	03a559b3          	divu	x19,x10,x26
    10ec:	037dce3b          	divw	x28,x27,x23
    10f0:	012a4433          	xor	x8,x20,x18
    10f4:	40678bbb          	subw	x23,x15,x6
    10f8:	0347f833          	remu	x16,x15,x20
    10fc:	ff106893          	ori	x17,x0,-15
    1100:	3f11811b          	addiw	x2,x3,1009
    1104:	0198f4b3          	and	x9,x17,x25
    1108:	03135d3b          	divuw	x26,x6,x17
    110c:	02fa0c3b          	mulw	x24,x20,x15
    1110:	03dbc7bb          	divw	x15,x23,x29
    1114:	0214403b          	divw	x0,x8,x1
    1118:	0217eabb          	remw	x21,x15,x1
    111c:	1911f113          	andi	x2,x3,401
    1120:	0288de3b          	divuw	x28,x17,x8
    1124:	159a8b9b          	addiw	x23,x21,345
    1128:	02937ebb          	remuw	x29,x6,x9
    112c:	1d4e871b          	addiw	x14,x29,468
    1130:	0348dc33          	divu	x24,x17,x20
    1134:	006c03bb          	addw	x7,x24,x6
    1138:	02844d33          	div	x26,x8,x8
    113c:	4137883b          	subw	x16,x15,x19
    1140:	00d14333          	xor	x6,x2,x13
    1144:	0004f0b3          	and	x1,x9,x0
    1148:	53088f9b          	addiw	x31,x17,1328
    114c:	c641cf13          	xori	x30,x3,-924
    1150:	378eef93          	ori	x31,x29,888
    1154:	4096813b          	subw	x2,x13,x9
    1158:	c3e1c313          	xori	x6,x3,-962
    115c:	03c20233          	mul	x4,x4,x28
    1160:	01ee4db3          	xor	x27,x28,x30
    1164:	0291ec3b          	remw	x24,x3,x9
    1168:	5f62f513          	andi	x10,x5,1526
    116c:	40788733          	sub	x14,x17,x7
    1170:	00c5fbb3          	and	x23,x11,x12
    1174:	34f16313          	ori	x6,x2,847
    1178:	01ba6eb3          	or	x29,x20,x27
    117c:	41650f33          	sub	x30,x10,x22
    1180:	02ea0e33          	mul	x28,x20,x14
    1184:	0040fdb3          	and	x27,x1,x4
    1188:	59586793          	ori	x15,x16,1429
    118c:	02e30233          	mul	x4,x6,x14
    1190:	03a4ecb3          	rem	x25,x9,x26
    1194:	03e364b3          	rem	x9,x6,x30
    1198:	01fc7b33          	and	x22,x24,x31
    119c:	408b0d33          	sub	x26,x22,x8
    11a0:	412004bb          	negw	x9,x18
    11a4:	02a1ccb3          	div	x25,x3,x10
    11a8:	2a098c1b          	addiw	x24,x19,672
    11ac:	0366c133          	div	x2,x13,x22
    11b0:	037e463b          	divw	x12,x28,x23
    11b4:	1bd10693          	addi	x13,x2,445
    11b8:	0282c0bb          	divw	x1,x5,x8
    11bc:	03f609b3          	mul	x19,x12,x31
    11c0:	03b98fbb          	mulw	x31,x19,x27
    11c4:	031cf5bb          	remuw	x11,x25,x17
    11c8:	03706933          	rem	x18,x0,x23
    11cc:	00d370b3          	and	x1,x6,x13
    11d0:	0062093b          	addw	x18,x4,x6
    11d4:	6ea7ff93          	andi	x31,x15,1770
    11d8:	01648533          	add	x10,x9,x22
    11dc:	fb998c1b          	addiw	x24,x19,-71
    11e0:	36138613          	addi	x12,x7,865
    11e4:	01090dbb          	addw	x27,x18,x16
    11e8:	ca0cf313          	andi	x6,x25,-864
    11ec:	0218e7b3          	rem	x15,x17,x1
    11f0:	418103b3          	sub	x7,x2,x24
    11f4:	0396c133          	div	x2,x13,x25
    11f8:	f427881b          	addiw	x16,x15,-190
    11fc:	ab12f813          	andi	x16,x5,-1359
    1200:	01f9c0b3          	xor	x1,x19,x31
    1204:	001ded33          	or	x26,x27,x1
    1208:	0364f5bb          	remuw	x11,x9,x22
    120c:	010a85b3          	add	x11,x21,x16
    1210:	001a75b3          	and	x11,x20,x1
    1214:	039aef3b          	remw	x30,x21,x25
    1218:	40fe8abb          	subw	x21,x29,x15
    121c:	030bc63b          	divw	x12,x23,x16
    1220:	03be86b3          	mul	x13,x29,x27
    1224:	023683bb          	mulw	x7,x13,x3
    1228:	014c0733          	add	x14,x24,x20
    122c:	03207f3b          	remuw	x30,x0,x18
    1230:	01cd7b33          	and	x22,x26,x28
    1234:	c8bbc813          	xori	x16,x23,-885
    1238:	02c48c33          	mul	x24,x9,x12
    123c:	c04be213          	ori	x4,x23,-1020
    1240:	08466e93          	ori	x29,x12,132
    1244:	0b797a13          	andi	x20,x18,183
    1248:	030d073b          	mulw	x14,x26,x16
    124c:	41298a3b          	subw	x20,x19,x18
    1250:	55258693          	addi	x13,x11,1362
    1254:	00ef013b          	addw	x2,x30,x14
    1258:	00308b3b          	addw	x22,x1,x3
    125c:	b01a4413          	xori	x8,x20,-1279
    1260:	031dff3b          	remuw	x30,x27,x17
    1264:	a8f5e693          	ori	x13,x11,-1393
    1268:	c6984913          	xori	x18,x16,-919
    126c:	41540f33          	sub	x30,x8,x21
    1270:	02477dbb          	remuw	x27,x14,x4
    1274:	0af74493          	xori	x9,x14,175
    1278:	99ad8d13          	addi	x26,x27,-1638
    127c:	00cd8533          	add	x10,x27,x12
    1280:	0347c6bb          	divw	x13,x15,x20
    1284:	022962bb          	remw	x5,x18,x2
    1288:	0094853b          	addw	x10,x9,x9
    128c:	2632059b          	addiw	x11,x4,611 # 263 <_binary_lab1_extra_test_bin_start+0x263>
    1290:	a99bc413          	xori	x8,x23,-1383
    1294:	410b09bb          	subw	x19,x22,x16
    1298:	b6964e93          	xori	x29,x12,-1175
    129c:	01a7ffb3          	and	x31,x15,x26
    12a0:	0202f4bb          	remuw	x9,x5,x0
    12a4:	e4234c93          	xori	x25,x6,-446
    12a8:	015876b3          	and	x13,x16,x21
    12ac:	6292069b          	addiw	x13,x4,1577 # 629 <_binary_lab1_extra_test_bin_start+0x629>
    12b0:	03104d33          	div	x26,x0,x17
    12b4:	4652f193          	andi	x3,x5,1125
    12b8:	00e28b33          	add	x22,x5,x14
    12bc:	3f81c893          	xori	x17,x3,1016
    12c0:	c3ca8a93          	addi	x21,x21,-964
    12c4:	02dc40b3          	div	x1,x24,x13
    12c8:	01c47533          	and	x10,x8,x28
    12cc:	00e48ebb          	addw	x29,x9,x14
    12d0:	032f43b3          	div	x7,x30,x18
    12d4:	034ac6bb          	divw	x13,x21,x20
    12d8:	024cdc3b          	divuw	x24,x25,x4
    12dc:	018dcfb3          	xor	x31,x27,x24
    12e0:	033e8933          	mul	x18,x29,x19
    12e4:	0362623b          	remw	x4,x4,x22
    12e8:	01e008bb          	addw	x17,x0,x30
    12ec:	0060cfb3          	xor	x31,x1,x6
    12f0:	00c37033          	and	x0,x6,x12
    12f4:	000dedb3          	or	x27,x27,x0
    12f8:	02588d3b          	mulw	x26,x17,x5
    12fc:	03e6e133          	rem	x2,x13,x30
    1300:	0266413b          	divw	x2,x12,x6
    1304:	03dc7d33          	remu	x26,x24,x29
    1308:	01cbcdb3          	xor	x27,x23,x28
    130c:	b510ec13          	ori	x24,x1,-1199
    1310:	000d80bb          	addw	x1,x27,x0
    1314:	03af77b3          	remu	x15,x30,x26
    1318:	020ed03b          	divuw	x0,x29,x0
    131c:	cf88f913          	andi	x18,x17,-776
    1320:	02cd47b3          	div	x15,x26,x12
    1324:	014feab3          	or	x21,x31,x20
    1328:	01d3ce33          	xor	x28,x7,x29
    132c:	03aa74b3          	remu	x9,x20,x26
    1330:	0343d13b          	divuw	x2,x7,x20
    1334:	59edfa13          	andi	x20,x27,1438
    1338:	b41ce693          	ori	x13,x25,-1215
    133c:	bd10e693          	ori	x13,x1,-1071
    1340:	02e2cbb3          	div	x23,x5,x14
    1344:	022aeebb          	remw	x29,x21,x2
    1348:	003d0e33          	add	x28,x26,x3
    134c:	02957f3b          	remuw	x30,x10,x9
    1350:	2840f213          	andi	x4,x1,644
    1354:	672c079b          	addiw	x15,x24,1650
    1358:	02588f33          	mul	x30,x17,x5
    135c:	28ce0813          	addi	x16,x28,652
    1360:	016ff033          	and	x0,x31,x22
    1364:	02338abb          	mulw	x21,x7,x3
    1368:	5bd40e13          	addi	x28,x8,1469
    136c:	38e0029b          	addiw	x5,x0,910
    1370:	01abe233          	or	x4,x23,x26
    1374:	0030843b          	addw	x8,x1,x3
    1378:	023a5233          	divu	x4,x20,x3
    137c:	017c7db3          	and	x27,x24,x23
    1380:	40490fb3          	sub	x31,x18,x4
    1384:	40b10133          	sub	x2,x2,x11
    1388:	6cb80e93          	addi	x29,x16,1739
    138c:	1e097493          	andi	x9,x18,480
    1390:	96126913          	ori	x18,x4,-1695
    1394:	8753e893          	ori	x17,x7,-1931
    1398:	00d280b3          	add	x1,x5,x13
    139c:	0301e1bb          	remw	x3,x3,x16
    13a0:	593ff393          	andi	x7,x31,1427
    13a4:	dc208913          	addi	x18,x1,-574
    13a8:	0287c333          	div	x6,x15,x8
    13ac:	0218d6b3          	divu	x13,x17,x1
    13b0:	dffbc113          	xori	x2,x23,-513
    13b4:	0005c0b3          	xor	x1,x11,x0
    13b8:	00998bb3          	add	x23,x19,x9
    13bc:	dbd00e93          	li	x29,-579
    13c0:	0068ceb3          	xor	x29,x17,x6
    13c4:	03ac49b3          	div	x19,x24,x26
    13c8:	004174b3          	and	x9,x2,x4
    13cc:	db56fb93          	andi	x23,x13,-587
    13d0:	00db46b3          	xor	x13,x22,x13
    13d4:	689bed93          	ori	x27,x23,1673
    13d8:	03e1533b          	divuw	x6,x2,x30
    13dc:	032a02b3          	mul	x5,x20,x18
    13e0:	022bf1b3          	remu	x3,x23,x2
    13e4:	026ed2bb          	divuw	x5,x29,x6
    13e8:	027b60b3          	rem	x1,x22,x7
    13ec:	01d947b3          	xor	x15,x18,x29
    13f0:	03b5873b          	mulw	x14,x11,x27
    13f4:	0233cf33          	div	x30,x7,x3
    13f8:	00dcf033          	and	x0,x25,x13
    13fc:	b8fb6193          	ori	x3,x22,-1137
    1400:	0222513b          	divuw	x2,x4,x2
    1404:	037b04bb          	mulw	x9,x22,x23
    1408:	00524fb3          	xor	x31,x4,x5
    140c:	01a340b3          	xor	x1,x6,x26
    1410:	03f84693          	xori	x13,x16,63
    1414:	000de0b3          	or	x1,x27,x0
    1418:	03697f33          	remu	x30,x18,x22
    141c:	41d60c3b          	subw	x24,x12,x29
    1420:	b9c7ef93          	ori	x31,x15,-1124
    1424:	37a18b13          	addi	x22,x3,890
    1428:	02e2763b          	remuw	x12,x4,x14
    142c:	0283ffb3          	remu	x31,x7,x8
    1430:	00e962b3          	or	x5,x18,x14
    1434:	40878733          	sub	x14,x15,x8
    1438:	01a48d3b          	addw	x26,x9,x26
    143c:	03b44233          	div	x4,x8,x27
    1440:	41998a3b          	subw	x20,x19,x25
    1444:	01d6c5b3          	xor	x11,x13,x29
    1448:	0031ee33          	or	x28,x3,x3
    144c:	002e7833          	and	x16,x28,x2
    1450:	035c53bb          	divuw	x7,x24,x21
    1454:	22ca071b          	addiw	x14,x20,556
    1458:	001c6fb3          	or	x31,x24,x1
    145c:	039a8f33          	mul	x30,x21,x25
    1460:	02c5d6bb          	divuw	x13,x11,x12
    1464:	0167feb3          	and	x29,x15,x22
    1468:	433a059b          	addiw	x11,x20,1075
    146c:	0237f2b3          	remu	x5,x15,x3
    1470:	0156ccb3          	xor	x25,x13,x21
    1474:	2013f793          	andi	x15,x7,513
    1478:	00130033          	add	x0,x6,x1
    147c:	409d8733          	sub	x14,x27,x9
    1480:	035a60b3          	rem	x1,x20,x21
    1484:	03c35333          	divu	x6,x6,x28
    1488:	67140c13          	addi	x24,x8,1649
    148c:	41000a3b          	negw	x20,x16
    1490:	02e605bb          	mulw	x11,x12,x14
    1494:	0247063b          	mulw	x12,x14,x4
    1498:	02886fb3          	rem	x31,x16,x8
    149c:	01a6e7b3          	or	x15,x13,x26
    14a0:	039c0bbb          	mulw	x23,x24,x25
    14a4:	00c1c9b3          	xor	x19,x3,x12
    14a8:	8a117993          	andi	x19,x2,-1887
    14ac:	0f3b4e13          	xori	x28,x22,243
    14b0:	025aefbb          	remw	x31,x21,x5
    14b4:	0e2cc013          	xori	x0,x25,226
    14b8:	014f88bb          	addw	x17,x31,x20
    14bc:	018ce133          	or	x2,x25,x24
    14c0:	b4996d13          	ori	x26,x18,-1207
    14c4:	40c28eb3          	sub	x29,x5,x12
    14c8:	b796cb93          	xori	x23,x13,-1159
    14cc:	004583bb          	addw	x7,x11,x4
    14d0:	7af16293          	ori	x5,x2,1967
    14d4:	008f6db3          	or	x27,x30,x8
    14d8:	02a34f3b          	divw	x30,x6,x10
    14dc:	019ae3b3          	or	x7,x21,x25
    14e0:	03cacdb3          	div	x27,x21,x28
    14e4:	0214f0b3          	remu	x1,x9,x1
    14e8:	0207e83b          	remw	x16,x15,x0
    14ec:	020bcc33          	div	x24,x23,x0
    14f0:	03825833          	divu	x16,x4,x24
    14f4:	0158083b          	addw	x16,x16,x21
    14f8:	b274c613          	xori	x12,x9,-1241
    14fc:	41128db3          	sub	x27,x5,x17
    1500:	021e4f3b          	divw	x30,x28,x1
    1504:	03ce56bb          	divuw	x13,x28,x28
    1508:	03900933          	mul	x18,x0,x25
    150c:	026ef9b3          	remu	x19,x29,x6
    1510:	03fcd1b3          	divu	x3,x25,x31
    1514:	bc00f013          	andi	x0,x1,-1088
    1518:	01ebfdb3          	and	x27,x23,x30
    151c:	01d5f133          	and	x2,x11,x29
    1520:	00796a33          	or	x20,x18,x7
    1524:	037bff3b          	remuw	x30,x23,x23
    1528:	44b26513          	ori	x10,x4,1099
    152c:	033768b3          	rem	x17,x14,x19
    1530:	01628a3b          	addw	x20,x5,x22
    1534:	00ea6cb3          	or	x25,x20,x14
    1538:	4c7fff93          	andi	x31,x31,1223
    153c:	5cd97793          	andi	x15,x18,1485
    1540:	0240d43b          	divuw	x8,x1,x4
    1544:	01d8c9b3          	xor	x19,x17,x29
    1548:	02100933          	mul	x18,x0,x1
    154c:	80d74013          	xori	x0,x14,-2035
    1550:	40b3043b          	subw	x8,x6,x11
    1554:	40af86b3          	sub	x13,x31,x10
    1558:	01e36933          	or	x18,x6,x30
    155c:	03867ab3          	remu	x21,x12,x24
    1560:	01974a33          	xor	x20,x14,x25
    1564:	fca1f413          	andi	x8,x3,-54
    1568:	83b14393          	xori	x7,x2,-1989
    156c:	006ef7b3          	and	x15,x29,x6
    1570:	026bfd3b          	remuw	x26,x23,x6
    1574:	00b08533          	add	x10,x1,x11
    1578:	026b86b3          	mul	x13,x23,x6
    157c:	f0760513          	addi	x10,x12,-249
    1580:	025c09bb          	mulw	x19,x24,x5
    1584:	1795cb93          	xori	x23,x11,377
    1588:	40aa8e33          	sub	x28,x21,x10
    158c:	00f90ebb          	addw	x29,x18,x15
    1590:	01af8b3b          	addw	x22,x31,x26
    1594:	7d336013          	ori	x0,x6,2003
    1598:	030501b3          	mul	x3,x10,x16
    159c:	03f3ff3b          	remuw	x30,x7,x31
    15a0:	03adcbb3          	div	x23,x27,x26
    15a4:	0021ee33          	or	x28,x3,x2
    15a8:	025261b3          	rem	x3,x4,x5
    15ac:	58590613          	addi	x12,x18,1413
    15b0:	02fa81bb          	mulw	x3,x21,x15
    15b4:	cc41c713          	xori	x14,x3,-828
    15b8:	b1f80113          	addi	x2,x16,-1249
    15bc:	0288f9bb          	remuw	x19,x17,x8
    15c0:	006bc033          	xor	x0,x23,x6
    15c4:	01bb4e33          	xor	x28,x22,x27
    15c8:	005f72b3          	and	x5,x30,x5
    15cc:	03624cb3          	div	x25,x4,x22
    15d0:	976a6993          	ori	x19,x20,-1674
    15d4:	03d6ed3b          	remw	x26,x13,x29
    15d8:	0342883b          	mulw	x16,x5,x20
    15dc:	018975b3          	and	x11,x18,x24
    15e0:	03d765b3          	rem	x11,x14,x29
    15e4:	02938b3b          	mulw	x22,x7,x9
    15e8:	0056ec33          	or	x24,x13,x5
    15ec:	00107fb3          	and	x31,x0,x1
    15f0:	9cf58d1b          	addiw	x26,x11,-1585
    15f4:	01b285b3          	add	x11,x5,x27
    15f8:	035550b3          	divu	x1,x10,x21
    15fc:	1945869b          	addiw	x13,x11,404
    1600:	4b326113          	ori	x2,x4,1203
    1604:	01ee6db3          	or	x27,x28,x30
    1608:	00a1e833          	or	x16,x3,x10
    160c:	03a7633b          	remw	x6,x14,x26
    1610:	1f566393          	ori	x7,x12,501
    1614:	0274e63b          	remw	x12,x9,x7
    1618:	020e67b3          	rem	x15,x28,x0
    161c:	028771bb          	remuw	x3,x14,x8
    1620:	029b0a33          	mul	x20,x22,x9
    1624:	0221deb3          	divu	x29,x3,x2
    1628:	d2697093          	andi	x1,x18,-730
    162c:	eb046a93          	ori	x21,x8,-336
    1630:	019bc933          	xor	x18,x23,x25
    1634:	bec06413          	ori	x8,x0,-1044
    1638:	f4824493          	xori	x9,x4,-184
    163c:	0297e033          	rem	x0,x15,x9
    1640:	0367f5b3          	remu	x11,x15,x22
    1644:	03f36bbb          	remw	x23,x6,x31
    1648:	40b98db3          	sub	x27,x19,x11
    164c:	0365773b          	remuw	x14,x10,x22
    1650:	0374623b          	remw	x4,x8,x23
    1654:	0345d83b          	divuw	x16,x11,x20
    1658:	02cd68b3          	rem	x17,x26,x12
    165c:	019ec3b3          	xor	x7,x29,x25
    1660:	02aeccb3          	div	x25,x29,x10
    1664:	0202ef33          	rem	x30,x5,x0
    1668:	02b4673b          	remw	x14,x8,x11
    166c:	4f0d859b          	addiw	x11,x27,1264
    1670:	034b863b          	mulw	x12,x23,x20
    1674:	403b0433          	sub	x8,x22,x3
    1678:	03195733          	divu	x14,x18,x17
    167c:	036a7733          	remu	x14,x20,x22
    1680:	0326603b          	remw	x0,x12,x18
    1684:	00c4c7b3          	xor	x15,x9,x12
    1688:	016c003b          	addw	x0,x24,x22
    168c:	66f4849b          	addiw	x9,x9,1647
    1690:	03c9e5bb          	remw	x11,x19,x28
    1694:	02a4c333          	div	x6,x9,x10
    1698:	f2264113          	xori	x2,x12,-222
    169c:	62c97c93          	andi	x25,x18,1580
    16a0:	e54d6093          	ori	x1,x26,-428
    16a4:	517a8093          	addi	x1,x21,1303
    16a8:	037c8e33          	mul	x28,x25,x23
    16ac:	40d781b3          	sub	x3,x15,x13
    16b0:	03cd8d3b          	mulw	x26,x27,x28
    16b4:	03cee6bb          	remw	x13,x29,x28
    16b8:	413e81b3          	sub	x3,x29,x19
    16bc:	41388ebb          	subw	x29,x17,x19
    16c0:	00bcfeb3          	and	x29,x25,x11
    16c4:	01b664b3          	or	x9,x12,x27
    16c8:	acf0011b          	addiw	x2,x0,-1329
    16cc:	031c01b3          	mul	x3,x24,x17
    16d0:	022ce13b          	remw	x2,x25,x2
    16d4:	28516713          	ori	x14,x2,645
    16d8:	0349dbb3          	divu	x23,x19,x20
    16dc:	02dbf633          	remu	x12,x23,x13
    16e0:	00868cbb          	addw	x25,x13,x8
    16e4:	41800833          	neg	x16,x24
    16e8:	0223f5bb          	remuw	x11,x7,x2
    16ec:	0351d533          	divu	x10,x3,x21
    16f0:	c9d28093          	addi	x1,x5,-867
    16f4:	e7230293          	addi	x5,x6,-398
    16f8:	41f901bb          	subw	x3,x18,x31
    16fc:	1884e493          	ori	x9,x9,392
    1700:	fd2cfe13          	andi	x28,x25,-46
    1704:	02017e3b          	remuw	x28,x2,x0
    1708:	1d9f0e1b          	addiw	x28,x30,473
    170c:	01cf8d3b          	addw	x26,x31,x28
    1710:	02546033          	rem	x0,x8,x5
    1714:	0212c8bb          	divw	x17,x5,x1
    1718:	003502b3          	add	x5,x10,x3
    171c:	2b984813          	xori	x16,x16,697
    1720:	001cf7b3          	and	x15,x25,x1
    1724:	01447fb3          	and	x31,x8,x20
    1728:	41bc013b          	subw	x2,x24,x27
    172c:	0359cbb3          	div	x23,x19,x21
    1730:	0d4fea13          	ori	x20,x31,212
    1734:	8b588613          	addi	x12,x17,-1867
    1738:	40178d3b          	subw	x26,x15,x1
    173c:	ae0bc993          	xori	x19,x23,-1312
    1740:	029b4833          	div	x16,x22,x9
    1744:	029e8bb3          	mul	x23,x29,x9
    1748:	40350abb          	subw	x21,x10,x3
    174c:	663d8013          	addi	x0,x27,1635
    1750:	41d6063b          	subw	x12,x12,x29
    1754:	0315feb3          	remu	x29,x11,x17
    1758:	b067fa13          	andi	x20,x15,-1274
    175c:	03e652bb          	divuw	x5,x12,x30
    1760:	03f4d833          	divu	x16,x9,x31
    1764:	41398ebb          	subw	x29,x19,x19
    1768:	ef67c313          	xori	x6,x15,-266
    176c:	2eac0413          	addi	x8,x24,746
    1770:	03d943bb          	divw	x7,x18,x29
    1774:	030200b3          	mul	x1,x4,x16
    1778:	0320e8b3          	rem	x17,x1,x18
    177c:	e60f8f1b          	addiw	x30,x31,-416
    1780:	93607b13          	andi	x22,x0,-1738
    1784:	021bdab3          	divu	x21,x23,x1
    1788:	012369b3          	or	x19,x6,x18
    178c:	034dd233          	divu	x4,x27,x20
    1790:	11824613          	xori	x12,x4,280
    1794:	00057db3          	and	x27,x10,x0
    1798:	40a60933          	sub	x18,x12,x10
    179c:	005fc233          	xor	x4,x31,x5
    17a0:	7c1c6793          	ori	x15,x24,1985
    17a4:	4f650e93          	addi	x29,x10,1270
    17a8:	03610abb          	mulw	x21,x2,x22
    17ac:	02c75eb3          	divu	x29,x14,x12
    17b0:	6d7a6793          	ori	x15,x20,1751
    17b4:	40040c33          	sub	x24,x8,x0
    17b8:	0279ec3b          	remw	x24,x19,x7
    17bc:	02c18cb3          	mul	x25,x3,x12
    17c0:	0300f6b3          	remu	x13,x1,x16
    17c4:	400601b3          	sub	x3,x12,x0
    17c8:	415a8f3b          	subw	x30,x21,x21
    17cc:	0296753b          	remuw	x10,x12,x9
    17d0:	03355d33          	divu	x26,x10,x19
    17d4:	02cff0bb          	remuw	x1,x31,x12
    17d8:	03d75ebb          	divuw	x29,x14,x29
    17dc:	023e8233          	mul	x4,x29,x3
    17e0:	00aae4b3          	or	x9,x21,x10
    17e4:	5cea061b          	addiw	x12,x20,1486
    17e8:	1a08021b          	addiw	x4,x16,416
    17ec:	02c58e33          	mul	x28,x11,x12
    17f0:	d0f4869b          	addiw	x13,x9,-753
    17f4:	b62ae913          	ori	x18,x21,-1182
    17f8:	c697889b          	addiw	x17,x15,-919
    17fc:	013788b3          	add	x17,x15,x19
    1800:	000c6c33          	or	x24,x24,x0
    1804:	00d38833          	add	x16,x7,x13
    1808:	ae746c13          	ori	x24,x8,-1305
    180c:	b9330f93          	addi	x31,x6,-1133
    1810:	03b7d6bb          	divuw	x13,x15,x27
    1814:	00d589bb          	addw	x19,x11,x13
    1818:	1f0bcc13          	xori	x24,x23,496
    181c:	88c08493          	addi	x9,x1,-1908
    1820:	0321d7bb          	divuw	x15,x3,x18
    1824:	02c6cd3b          	divw	x26,x13,x12
    1828:	87acf813          	andi	x16,x25,-1926
    182c:	40298633          	sub	x12,x19,x2
    1830:	40ae0abb          	subw	x21,x28,x10
    1834:	02678233          	mul	x4,x15,x6
    1838:	ddc0cd93          	xori	x27,x1,-548
    183c:	94314b13          	xori	x22,x2,-1725
    1840:	0398453b          	divw	x10,x16,x25
    1844:	0361ecb3          	rem	x25,x3,x22
    1848:	7d180f93          	addi	x31,x16,2001
    184c:	023c7933          	remu	x18,x24,x3
    1850:	94850a93          	addi	x21,x10,-1720
    1854:	03be05bb          	mulw	x11,x28,x27
    1858:	403c893b          	subw	x18,x25,x3
    185c:	34950893          	addi	x17,x10,841
    1860:	02ecd8b3          	divu	x17,x25,x14
    1864:	40550c33          	sub	x24,x10,x5
    1868:	00238bbb          	addw	x23,x7,x2
    186c:	02f5c1bb          	divw	x3,x11,x15
    1870:	744d6893          	ori	x17,x26,1860
    1874:	0270d83b          	divuw	x16,x1,x7
    1878:	13974c93          	xori	x25,x14,313
    187c:	2de9fd93          	andi	x27,x19,734
    1880:	0216453b          	divw	x10,x12,x1
    1884:	0325fc33          	remu	x24,x11,x18
    1888:	0283fd3b          	remuw	x26,x7,x8
    188c:	03a60db3          	mul	x27,x12,x26
    1890:	41298b33          	sub	x22,x19,x18
    1894:	0038ffb3          	and	x31,x17,x3
    1898:	03d6db33          	divu	x22,x13,x29
    189c:	00af8f33          	add	x30,x31,x10
    18a0:	00998fb3          	add	x31,x19,x9
    18a4:	8e844f13          	xori	x30,x8,-1816
    18a8:	03d6e3bb          	remw	x7,x13,x29
    18ac:	41f1823b          	subw	x4,x3,x31
    18b0:	44406913          	ori	x18,x0,1092
    18b4:	02ae5233          	divu	x4,x28,x10
    18b8:	44cffc13          	andi	x24,x31,1100
    18bc:	035dc33b          	divw	x6,x27,x21
    18c0:	037e46bb          	divw	x13,x28,x23
    18c4:	02c50eb3          	mul	x29,x10,x12
    18c8:	03ed0a33          	mul	x20,x26,x30
    18cc:	405f093b          	subw	x18,x30,x5
    18d0:	035202b3          	mul	x5,x4,x21
    18d4:	02a78d3b          	mulw	x26,x15,x10
    18d8:	0321fcbb          	remuw	x25,x3,x18
    18dc:	0281ffb3          	remu	x31,x3,x8
    18e0:	03b6d33b          	divuw	x6,x13,x27
    18e4:	00d57733          	and	x14,x10,x13
    18e8:	01de8dbb          	addw	x27,x29,x29
    18ec:	02745db3          	divu	x27,x8,x7
    18f0:	039166bb          	remw	x13,x2,x25
    18f4:	03155eb3          	divu	x29,x10,x17
    18f8:	0323ddbb          	divuw	x27,x7,x18
    18fc:	030279b3          	remu	x19,x4,x16
    1900:	0267f3b3          	remu	x7,x15,x6
    1904:	007e8abb          	addw	x21,x29,x7
    1908:	02bd0633          	mul	x12,x26,x11
    190c:	021c0e33          	mul	x28,x24,x1
    1910:	30f7c993          	xori	x19,x15,783
    1914:	c9d9059b          	addiw	x11,x18,-867
    1918:	41bc88b3          	sub	x17,x25,x27
    191c:	00328abb          	addw	x21,x5,x3
    1920:	41138ebb          	subw	x29,x7,x17
    1924:	014a88b3          	add	x17,x21,x20
    1928:	030048b3          	div	x17,x0,x16
    192c:	02c65fb3          	divu	x31,x12,x12
    1930:	03a365bb          	remw	x11,x6,x26
    1934:	03cce2b3          	rem	x5,x25,x28
    1938:	6fc58113          	addi	x2,x11,1788
    193c:	abd7821b          	addiw	x4,x15,-1347
    1940:	c039ea13          	ori	x20,x19,-1021
    1944:	fce38d1b          	addiw	x26,x7,-50
    1948:	397d0f9b          	addiw	x31,x26,919
    194c:	00b808b3          	add	x17,x16,x11
    1950:	039c5533          	divu	x10,x24,x25
    1954:	00a9f533          	and	x10,x19,x10
    1958:	41a58033          	sub	x0,x11,x26
    195c:	07448493          	addi	x9,x9,116
    1960:	01e664b3          	or	x9,x12,x30
    1964:	00dc01bb          	addw	x3,x24,x13
    1968:	01160133          	add	x2,x12,x17
    196c:	02eb47b3          	div	x15,x22,x14
    1970:	010ac2b3          	xor	x5,x21,x16
    1974:	02878db3          	mul	x27,x15,x8
    1978:	0273ffbb          	remuw	x31,x7,x7
    197c:	01d30c33          	add	x24,x6,x29
    1980:	01038f3b          	addw	x30,x7,x16
    1984:	03a7cfb3          	div	x31,x15,x26
    1988:	00126a33          	or	x20,x4,x1
    198c:	03f30933          	mul	x18,x6,x31
    1990:	02035333          	divu	x6,x6,x0
    1994:	037ef1bb          	remuw	x3,x29,x23
    1998:	1c3a7893          	andi	x17,x20,451
    199c:	038f0e33          	mul	x28,x30,x24
    19a0:	03fdf5bb          	remuw	x11,x27,x31
    19a4:	415c0e3b          	subw	x28,x24,x21
    19a8:	98026613          	ori	x12,x4,-1664
    19ac:	40e781bb          	subw	x3,x15,x14
    19b0:	00ec8a3b          	addw	x20,x25,x14
    19b4:	d075091b          	addiw	x18,x10,-761
    19b8:	016bc0b3          	xor	x1,x23,x22
    19bc:	00b146b3          	xor	x13,x2,x11
    19c0:	02e6873b          	mulw	x14,x13,x14
    19c4:	00cfe633          	or	x12,x31,x12
    19c8:	41c2093b          	subw	x18,x4,x28
    19cc:	97a80f9b          	addiw	x31,x16,-1670
    19d0:	024e8933          	mul	x18,x29,x4
    19d4:	017f00bb          	addw	x1,x30,x23
    19d8:	02774f3b          	divw	x30,x14,x7
    19dc:	02df6f33          	rem	x30,x30,x13
    19e0:	418f89b3          	sub	x19,x31,x24
    19e4:	035503b3          	mul	x7,x10,x21
    19e8:	206f0f1b          	addiw	x30,x30,518
    19ec:	03e26d33          	rem	x26,x4,x30
    19f0:	049f061b          	addiw	x12,x30,73
    19f4:	400806bb          	subw	x13,x16,x0
    19f8:	41190ebb          	subw	x29,x18,x17
    19fc:	40d20cb3          	sub	x25,x4,x13
    1a00:	40580c3b          	subw	x24,x16,x5
    1a04:	02f5c9b3          	div	x19,x11,x15
    1a08:	e5d96a93          	ori	x21,x18,-419
    1a0c:	aacb8f13          	addi	x30,x23,-1364
    1a10:	0270d53b          	divuw	x10,x1,x7
    1a14:	f91d0f1b          	addiw	x30,x26,-111
    1a18:	00c6f533          	and	x10,x13,x12
    1a1c:	0076fc33          	and	x24,x13,x7
    1a20:	0228d3bb          	divuw	x7,x17,x2
    1a24:	0258e53b          	remw	x10,x17,x5
    1a28:	0389d2b3          	divu	x5,x19,x24
    1a2c:	73e0eb13          	ori	x22,x1,1854
    1a30:	40ac8b3b          	subw	x22,x25,x10
    1a34:	03dc013b          	mulw	x2,x24,x29
    1a38:	037f703b          	remuw	x0,x30,x23
    1a3c:	34998193          	addi	x3,x19,841
    1a40:	40110c3b          	subw	x24,x2,x1
    1a44:	2f866993          	ori	x19,x12,760
    1a48:	a8226c93          	ori	x25,x4,-1406
    1a4c:	01c26bb3          	or	x23,x4,x28
    1a50:	51c58f93          	addi	x31,x11,1308
    1a54:	fdcb7c93          	andi	x25,x22,-36
    1a58:	02cb6eb3          	rem	x29,x22,x12
    1a5c:	84d58213          	addi	x4,x11,-1971
    1a60:	031dd43b          	divuw	x8,x27,x17
    1a64:	0078f4b3          	and	x9,x17,x7
    1a68:	69a64e13          	xori	x28,x12,1690
    1a6c:	029c5cbb          	divuw	x25,x24,x9
    1a70:	137d0e93          	addi	x29,x26,311
    1a74:	0fe46113          	ori	x2,x8,254
    1a78:	033778bb          	remuw	x17,x14,x19
    1a7c:	400e08b3          	sub	x17,x28,x0
    1a80:	03e278b3          	remu	x17,x4,x30
    1a84:	014c7233          	and	x4,x24,x20
    1a88:	015e4833          	xor	x16,x28,x21
    1a8c:	88fa819b          	addiw	x3,x21,-1905
    1a90:	bd92fa13          	andi	x20,x5,-1063
    1a94:	76b7039b          	addiw	x7,x14,1899
    1a98:	41f50033          	sub	x0,x10,x31
    1a9c:	004544b3          	xor	x9,x10,x4
    1aa0:	036b7f3b          	remuw	x30,x22,x22
    1aa4:	006d4233          	xor	x4,x26,x6
    1aa8:	0390d533          	divu	x10,x1,x25
    1aac:	02206abb          	remw	x21,x0,x2
    1ab0:	0064013b          	addw	x2,x8,x6
    1ab4:	13440493          	addi	x9,x8,308
    1ab8:	03eeef33          	rem	x30,x29,x30
    1abc:	02f7f4bb          	remuw	x9,x15,x15
    1ac0:	419f8cb3          	sub	x25,x31,x25
    1ac4:	03727c33          	remu	x24,x4,x23
    1ac8:	007ae333          	or	x6,x21,x7
    1acc:	02366fbb          	remw	x31,x12,x3
    1ad0:	5b1dc513          	xori	x10,x27,1457
    1ad4:	02bf45b3          	div	x11,x30,x11
    1ad8:	01b901bb          	addw	x3,x18,x27
    1adc:	41070a33          	sub	x20,x14,x16
    1ae0:	00ac8c33          	add	x24,x25,x10
    1ae4:	038d46bb          	divw	x13,x26,x24
    1ae8:	022341b3          	div	x3,x6,x2
    1aec:	03e9f9bb          	remuw	x19,x19,x30
    1af0:	03a08f3b          	mulw	x30,x1,x26
    1af4:	348e8593          	addi	x11,x29,840
    1af8:	008079b3          	and	x19,x0,x8
    1afc:	417c8f33          	sub	x30,x25,x23
    1b00:	0245873b          	mulw	x14,x11,x4
    1b04:	7f744293          	xori	x5,x8,2039
    1b08:	03940fbb          	mulw	x31,x8,x25
    1b0c:	50b08193          	addi	x3,x1,1291
    1b10:	b0f8f393          	andi	x7,x17,-1265
    1b14:	018a6433          	or	x8,x20,x24
    1b18:	039c57b3          	divu	x15,x24,x25
    1b1c:	b0436813          	ori	x16,x6,-1276
    1b20:	be4bcc93          	xori	x25,x23,-1052
    1b24:	02740033          	mul	x0,x8,x7
    1b28:	029c42bb          	divw	x5,x24,x9
    1b2c:	03d08ebb          	mulw	x29,x1,x29
    1b30:	03bd513b          	divuw	x2,x26,x27
    1b34:	26410513          	addi	x10,x2,612
    1b38:	02de0933          	mul	x18,x28,x13
    1b3c:	03660933          	mul	x18,x12,x22
    1b40:	026ef8bb          	remuw	x17,x29,x6
    1b44:	912d8293          	addi	x5,x27,-1774
    1b48:	d6f6c213          	xori	x4,x13,-657
    1b4c:	02f2db33          	divu	x22,x5,x15
    1b50:	57a6809b          	addiw	x1,x13,1402
    1b54:	f419eb93          	ori	x23,x19,-191
    1b58:	5586f393          	andi	x7,x13,1368
    1b5c:	01fbf033          	and	x0,x23,x31
    1b60:	010b0e3b          	addw	x28,x22,x16
    1b64:	03b2403b          	divw	x0,x4,x27
    1b68:	02fe49b3          	div	x19,x28,x15
    1b6c:	025cd9bb          	divuw	x19,x25,x5
    1b70:	03cee1b3          	rem	x3,x29,x28
    1b74:	0103cbb3          	xor	x23,x7,x16
    1b78:	00e0c6b3          	xor	x13,x1,x14
    1b7c:	01b9fdb3          	and	x27,x19,x27
    1b80:	03a56833          	rem	x16,x10,x26
    1b84:	01ee6d33          	or	x26,x28,x30
    1b88:	0395d2b3          	divu	x5,x11,x25
    1b8c:	0206d9bb          	divuw	x19,x13,x0
    1b90:	01f26c33          	or	x24,x4,x31
    1b94:	03a1cd33          	div	x26,x3,x26
    1b98:	028fe93b          	remw	x18,x31,x8
    1b9c:	0131c6b3          	xor	x13,x3,x19
    1ba0:	00e6e6b3          	or	x13,x13,x14
    1ba4:	019f4933          	xor	x18,x30,x25
    1ba8:	0291c33b          	divw	x6,x3,x9
    1bac:	0221f73b          	remuw	x14,x3,x2
    1bb0:	2f53cf93          	xori	x31,x7,757
    1bb4:	0144fb33          	and	x22,x9,x20
    1bb8:	c944c413          	xori	x8,x9,-876
    1bbc:	03d362bb          	remw	x5,x6,x29
    1bc0:	44e6ea93          	ori	x21,x13,1102
    1bc4:	02cc6f33          	rem	x30,x24,x12
    1bc8:	38968a13          	addi	x20,x13,905
    1bcc:	01717f33          	and	x30,x2,x23
    1bd0:	03155a3b          	divuw	x20,x10,x17
    1bd4:	03f3f83b          	remuw	x16,x7,x31
    1bd8:	011a0ebb          	addw	x29,x20,x17
    1bdc:	0284d233          	divu	x4,x9,x8
    1be0:	013107bb          	addw	x15,x2,x19
    1be4:	411883b3          	sub	x7,x17,x17
    1be8:	41e58933          	sub	x18,x11,x30
    1bec:	03e349bb          	divw	x19,x6,x30
    1bf0:	02c6dc33          	divu	x24,x13,x12
    1bf4:	0386c6b3          	div	x13,x13,x24
    1bf8:	276d061b          	addiw	x12,x26,630
    1bfc:	032d70b3          	remu	x1,x26,x18
    1c00:	0234c533          	div	x10,x9,x3
    1c04:	03dbecbb          	remw	x25,x23,x29
    1c08:	03816b33          	rem	x22,x2,x24
    1c0c:	021ff6bb          	remuw	x13,x31,x1
    1c10:	021167bb          	remw	x15,x2,x1
    1c14:	4062851b          	addiw	x10,x5,1030
    1c18:	0302dc3b          	divuw	x24,x5,x16
    1c1c:	7176f793          	andi	x15,x13,1815
    1c20:	02945333          	divu	x6,x8,x9
    1c24:	415189bb          	subw	x19,x3,x21
    1c28:	41920633          	sub	x12,x4,x25
    1c2c:	00ac46b3          	xor	x13,x24,x10
    1c30:	03df52bb          	divuw	x5,x30,x29
    1c34:	41640dbb          	subw	x27,x8,x22
    1c38:	03180c3b          	mulw	x24,x16,x17
    1c3c:	027cc533          	div	x10,x25,x7
    1c40:	02dd043b          	mulw	x8,x26,x13
    1c44:	0170c633          	xor	x12,x1,x23
    1c48:	390ee913          	ori	x18,x29,912
    1c4c:	41758433          	sub	x8,x11,x23
    1c50:	03daed3b          	remw	x26,x21,x29
    1c54:	039dd33b          	divuw	x6,x27,x25
    1c58:	02ff47b3          	div	x15,x30,x15
    1c5c:	023f6633          	rem	x12,x30,x3
    1c60:	021c5133          	divu	x2,x24,x1
    1c64:	02bf623b          	remw	x4,x30,x11
    1c68:	0feef693          	andi	x13,x29,254
    1c6c:	02e961bb          	remw	x3,x18,x14
    1c70:	419709bb          	subw	x19,x14,x25
    1c74:	0211f3bb          	remuw	x7,x3,x1
    1c78:	034382b3          	mul	x5,x7,x20
    1c7c:	eef1f313          	andi	x6,x3,-273
    1c80:	408c88b3          	sub	x17,x25,x8
    1c84:	03aac4b3          	div	x9,x21,x26
    1c88:	03408a3b          	mulw	x20,x1,x20
    1c8c:	08f56d13          	ori	x26,x10,143
    1c90:	944b6c13          	ori	x24,x22,-1724
    1c94:	00608d3b          	addw	x26,x1,x6
    1c98:	023306bb          	mulw	x13,x6,x3
    1c9c:	004589b3          	add	x19,x11,x4
    1ca0:	02d9e033          	rem	x0,x19,x13
    1ca4:	01c903b3          	add	x7,x18,x28
    1ca8:	40d58fbb          	subw	x31,x11,x13
    1cac:	00da023b          	addw	x4,x20,x13
    1cb0:	0308813b          	mulw	x2,x17,x16
    1cb4:	0019c9b3          	xor	x19,x19,x1
    1cb8:	011bf8b3          	and	x17,x23,x17
    1cbc:	d13e849b          	addiw	x9,x29,-749
    1cc0:	02ac48b3          	div	x17,x24,x10
    1cc4:	89548e1b          	addiw	x28,x9,-1899
    1cc8:	ca306093          	ori	x1,x0,-861
    1ccc:	03dfdeb3          	divu	x29,x31,x29
    1cd0:	ad7a6a13          	ori	x20,x20,-1321
    1cd4:	21976a13          	ori	x20,x14,537
    1cd8:	0298c433          	div	x8,x17,x9
    1cdc:	027a47b3          	div	x15,x20,x7
    1ce0:	00198cb3          	add	x25,x19,x1
    1ce4:	035cd2bb          	divuw	x5,x25,x21
    1ce8:	63d20d13          	addi	x26,x4,1597 # 63d <_binary_lab1_extra_test_bin_start+0x63d>
    1cec:	03fb443b          	divw	x8,x22,x31
    1cf0:	03694e3b          	divw	x28,x18,x22
    1cf4:	02ba5a33          	divu	x20,x20,x11
    1cf8:	02220a3b          	mulw	x20,x4,x2
    1cfc:	026d0bb3          	mul	x23,x26,x6
    1d00:	41998d33          	sub	x26,x19,x25
    1d04:	03e56d3b          	remw	x26,x10,x30
    1d08:	ca710713          	addi	x14,x2,-857
    1d0c:	02326f3b          	remw	x30,x4,x3
    1d10:	00554c33          	xor	x24,x10,x5
    1d14:	00076433          	or	x8,x14,x0
    1d18:	022b4933          	div	x18,x22,x2
    1d1c:	acc4c993          	xori	x19,x9,-1332
    1d20:	010000bb          	addw	x1,x0,x16
    1d24:	01ed6f33          	or	x30,x26,x30
    1d28:	028dfebb          	remuw	x29,x27,x8
    1d2c:	0250d6b3          	divu	x13,x1,x5
    1d30:	b04a7b13          	andi	x22,x20,-1276
    1d34:	0316c7bb          	divw	x15,x13,x17
    1d38:	ce677e13          	andi	x28,x14,-794
    1d3c:	02ab4c3b          	divw	x24,x22,x10
    1d40:	40ca023b          	subw	x4,x20,x12
    1d44:	02d97cb3          	remu	x25,x18,x13
    1d48:	41e38eb3          	sub	x29,x7,x30
    1d4c:	5d9c0f93          	addi	x31,x24,1497
    1d50:	13b2e213          	ori	x4,x5,315
    1d54:	021d54b3          	divu	x9,x26,x1
    1d58:	0191f233          	and	x4,x3,x25
    1d5c:	0235753b          	remuw	x10,x10,x3
    1d60:	004bf333          	and	x6,x23,x4
    1d64:	02ee7dbb          	remuw	x27,x28,x14
    1d68:	40568c3b          	subw	x24,x13,x5
    1d6c:	02d5c8b3          	div	x17,x11,x13
    1d70:	0276cd3b          	divw	x26,x13,x7
    1d74:	02b3f13b          	remuw	x2,x7,x11
    1d78:	00bff533          	and	x10,x31,x11
    1d7c:	97e18013          	addi	x0,x3,-1666
    1d80:	03e2f2b3          	remu	x5,x5,x30
    1d84:	8ea5e913          	ori	x18,x11,-1814
    1d88:	0226d8bb          	divuw	x17,x13,x2
    1d8c:	033ad733          	divu	x14,x21,x19
    1d90:	0073f933          	and	x18,x7,x7
    1d94:	012a0b33          	add	x22,x20,x18
    1d98:	0254df3b          	divuw	x30,x9,x5
    1d9c:	02c853bb          	divuw	x7,x16,x12
    1da0:	00bf8f33          	add	x30,x31,x11
    1da4:	03b27933          	remu	x18,x4,x27
    1da8:	40360333          	sub	x6,x12,x3
    1dac:	03a20fb3          	mul	x31,x4,x26
    1db0:	000f8ab3          	add	x21,x31,x0
    1db4:	037950bb          	divuw	x1,x18,x23
    1db8:	410601b3          	sub	x3,x12,x16
    1dbc:	410287bb          	subw	x15,x5,x16
    1dc0:	01c60033          	add	x0,x12,x28
    1dc4:	032c82bb          	mulw	x5,x25,x18
    1dc8:	8496819b          	addiw	x3,x13,-1975
    1dcc:	0203f0b3          	remu	x1,x7,x0
    1dd0:	022761bb          	remw	x3,x14,x2
    1dd4:	003a0633          	add	x12,x20,x3
    1dd8:	022fc5bb          	divw	x11,x31,x2
    1ddc:	02226533          	rem	x10,x4,x2
    1de0:	02076e3b          	remw	x28,x14,x0
    1de4:	30e8061b          	addiw	x12,x16,782
    1de8:	028003bb          	mulw	x7,x0,x8
    1dec:	029deebb          	remw	x29,x27,x9
    1df0:	b65f4d93          	xori	x27,x30,-1179
    1df4:	00b70733          	add	x14,x14,x11
    1df8:	01487fb3          	and	x31,x16,x20
    1dfc:	fae4831b          	addiw	x6,x9,-82
    1e00:	032e0f33          	mul	x30,x28,x18
    1e04:	03e95a33          	divu	x20,x18,x30
    1e08:	0285eb33          	rem	x22,x11,x8
    1e0c:	0221c0b3          	div	x1,x3,x2
    1e10:	026d523b          	divuw	x4,x26,x6
    1e14:	4034853b          	subw	x10,x9,x3
    1e18:	021e65bb          	remw	x11,x28,x1
    1e1c:	00c580bb          	addw	x1,x11,x12
    1e20:	03ffcf3b          	divw	x30,x31,x31
    1e24:	38040b13          	addi	x22,x8,896
    1e28:	300de613          	ori	x12,x27,768
    1e2c:	63767d13          	andi	x26,x12,1591
    1e30:	0260e73b          	remw	x14,x1,x6
    1e34:	01d6c633          	xor	x12,x13,x29
    1e38:	02f868bb          	remw	x17,x16,x15
    1e3c:	c2890b9b          	addiw	x23,x18,-984
    1e40:	008e0733          	add	x14,x28,x8
    1e44:	02ec50bb          	divuw	x1,x24,x14
    1e48:	e2847613          	andi	x12,x8,-472
    1e4c:	035de0b3          	rem	x1,x27,x21
    1e50:	40d78ebb          	subw	x29,x15,x13
    1e54:	6d4f0313          	addi	x6,x30,1748
    1e58:	cb4c871b          	addiw	x14,x25,-844
    1e5c:	0051c3b3          	xor	x7,x3,x5
    1e60:	06808113          	addi	x2,x1,104
    1e64:	414801bb          	subw	x3,x16,x20
    1e68:	0244c13b          	divw	x2,x9,x4
    1e6c:	3b337c13          	andi	x24,x6,947
    1e70:	027cd63b          	divuw	x12,x25,x7
    1e74:	03df4f33          	div	x30,x30,x29
    1e78:	1c7bf193          	andi	x3,x23,455
    1e7c:	02e8debb          	divuw	x29,x17,x14
    1e80:	407786bb          	subw	x13,x15,x7
    1e84:	3d077213          	andi	x4,x14,976
    1e88:	03557cbb          	remuw	x25,x10,x21
    1e8c:	00c18d3b          	addw	x26,x3,x12
    1e90:	9bd07a93          	andi	x21,x0,-1603
    1e94:	02e35d33          	divu	x26,x6,x14
    1e98:	41338ab3          	sub	x21,x7,x19
    1e9c:	41ba0cbb          	subw	x25,x20,x27
    1ea0:	40b30233          	sub	x4,x6,x11
    1ea4:	40800a3b          	negw	x20,x8
    1ea8:	0136f3b3          	and	x7,x13,x19
    1eac:	027b7233          	remu	x4,x22,x7
    1eb0:	0ffeec13          	ori	x24,x29,255
    1eb4:	004f0833          	add	x16,x30,x4
    1eb8:	01ecc9b3          	xor	x19,x25,x30
    1ebc:	03b85733          	divu	x14,x16,x27
    1ec0:	01418d3b          	addw	x26,x3,x20
    1ec4:	02cbc6bb          	divw	x13,x23,x12
    1ec8:	c5c28a9b          	addiw	x21,x5,-932
    1ecc:	018e833b          	addw	x6,x29,x24
    1ed0:	032e873b          	mulw	x14,x29,x18
    1ed4:	00c009b3          	add	x19,x0,x12
    1ed8:	00017a33          	and	x20,x2,x0
    1edc:	01544533          	xor	x10,x8,x21
    1ee0:	0320c3b3          	div	x7,x1,x18
    1ee4:	020366b3          	rem	x13,x6,x0
    1ee8:	022b593b          	divuw	x18,x22,x2
    1eec:	00124cb3          	xor	x25,x4,x1
    1ef0:	bfdc0b1b          	addiw	x22,x24,-1027
    1ef4:	f2530a13          	addi	x20,x6,-219
    1ef8:	01958233          	add	x4,x11,x25
    1efc:	0239713b          	remuw	x2,x18,x3
    1f00:	0329cf3b          	divw	x30,x19,x18
    1f04:	ebe28c9b          	addiw	x25,x5,-322
    1f08:	0153f6b3          	and	x13,x7,x21
    1f0c:	03f5e5b3          	rem	x11,x11,x31
    1f10:	0303553b          	divuw	x10,x6,x16
    1f14:	030cdc3b          	divuw	x24,x25,x16
    1f18:	10a10a93          	addi	x21,x2,266
    1f1c:	40de0e3b          	subw	x28,x28,x13
    1f20:	7ec4ee93          	ori	x29,x9,2028
    1f24:	10414993          	xori	x19,x2,260
    1f28:	002bccb3          	xor	x25,x23,x2
    1f2c:	4184823b          	subw	x4,x9,x24
    1f30:	000f8eb3          	add	x29,x31,x0
    1f34:	408603b3          	sub	x7,x12,x8
    1f38:	6fff7d93          	andi	x27,x30,1791
    1f3c:	01458c33          	add	x24,x11,x20
    1f40:	a4264513          	xori	x10,x12,-1470
    1f44:	02cf4133          	div	x2,x30,x12
    1f48:	034541bb          	divw	x3,x10,x20
    1f4c:	f77dca13          	xori	x20,x27,-137
    1f50:	40c20f33          	sub	x30,x4,x12
    1f54:	03d1f2b3          	remu	x5,x3,x29
    1f58:	fb738593          	addi	x11,x7,-73
    1f5c:	02a20033          	mul	x0,x4,x10
    1f60:	408184bb          	subw	x9,x3,x8
    1f64:	71717913          	andi	x18,x2,1815
    1f68:	00dc83bb          	addw	x7,x25,x13
    1f6c:	0375f3bb          	remuw	x7,x11,x23
    1f70:	a7ab4513          	xori	x10,x22,-1414
    1f74:	020f5133          	divu	x2,x30,x0
    1f78:	00e27933          	and	x18,x4,x14
    1f7c:	0377733b          	remuw	x6,x14,x23
    1f80:	01cf48b3          	xor	x17,x30,x28
    1f84:	023c73b3          	remu	x7,x24,x3
    1f88:	0209fbb3          	remu	x23,x19,x0
    1f8c:	00bbf133          	and	x2,x23,x11
    1f90:	02ec4fbb          	divw	x31,x24,x14
    1f94:	01e9cb33          	xor	x22,x19,x30
    1f98:	418f8e3b          	subw	x28,x31,x24
    1f9c:	02e58e3b          	mulw	x28,x11,x14
    1fa0:	038df43b          	remuw	x8,x27,x24
    1fa4:	9bc57613          	andi	x12,x10,-1604
    1fa8:	025760bb          	remw	x1,x14,x5
    1fac:	01dc083b          	addw	x16,x24,x29
    1fb0:	0276483b          	divw	x16,x12,x7
    1fb4:	b9976f93          	ori	x31,x14,-1127
    1fb8:	00bc60b3          	or	x1,x24,x11
    1fbc:	01e44d33          	xor	x26,x8,x30
    1fc0:	40f28333          	sub	x6,x5,x15
    1fc4:	0323da33          	divu	x20,x7,x18
    1fc8:	028e8333          	mul	x6,x29,x8
    1fcc:	37a4ff13          	andi	x30,x9,890
    1fd0:	002380bb          	addw	x1,x7,x2
    1fd4:	03b2d23b          	divuw	x4,x5,x27
    1fd8:	008be133          	or	x2,x23,x8
    1fdc:	0221813b          	mulw	x2,x3,x2
    1fe0:	03914eb3          	div	x29,x2,x25
    1fe4:	01628b33          	add	x22,x5,x22
    1fe8:	41c080b3          	sub	x1,x1,x28
    1fec:	00786ab3          	or	x21,x16,x7
    1ff0:	020f4433          	div	x8,x30,x0
    1ff4:	8e3e0c1b          	addiw	x24,x28,-1821
    1ff8:	402f0a33          	sub	x20,x30,x2
    1ffc:	0381d33b          	divuw	x6,x3,x24
    2000:	8297cb93          	xori	x23,x15,-2007
    2004:	02d009bb          	mulw	x19,x0,x13
    2008:	879e8113          	addi	x2,x29,-1927
    200c:	029bdd33          	divu	x26,x23,x9
    2010:	0308dab3          	divu	x21,x17,x16
    2014:	02d16d3b          	remw	x26,x2,x13
    2018:	01c5c833          	xor	x16,x11,x28
    201c:	0223d4b3          	divu	x9,x7,x2
    2020:	03744eb3          	div	x29,x8,x23
    2024:	bc79081b          	addiw	x16,x18,-1081
    2028:	9991031b          	addiw	x6,x2,-1639
    202c:	02f1803b          	mulw	x0,x3,x15
    2030:	025471bb          	remuw	x3,x8,x5
    2034:	41d28cb3          	sub	x25,x5,x29
    2038:	40e80833          	sub	x16,x16,x14
    203c:	36f48c1b          	addiw	x24,x9,879
    2040:	03f264bb          	remw	x9,x4,x31
    2044:	46370313          	addi	x6,x14,1123
    2048:	4c250013          	addi	x0,x10,1218
    204c:	660dc293          	xori	x5,x27,1632
    2050:	902b0413          	addi	x8,x22,-1790
    2054:	c7908093          	addi	x1,x1,-903
    2058:	41ea8133          	sub	x2,x21,x30
    205c:	41be8633          	sub	x12,x29,x27
    2060:	0104cab3          	xor	x21,x9,x16
    2064:	41e98ab3          	sub	x21,x19,x30
    2068:	02ff603b          	remw	x0,x30,x15
    206c:	03dee4b3          	rem	x9,x29,x29
    2070:	0338edb3          	rem	x27,x17,x19
    2074:	01800fbb          	addw	x31,x0,x24
    2078:	7c30e093          	ori	x1,x1,1987
    207c:	c0677413          	andi	x8,x14,-1018
    2080:	b310891b          	addiw	x18,x1,-1231
    2084:	c80d0013          	addi	x0,x26,-896
    2088:	00e44b33          	xor	x22,x8,x14
    208c:	02d0debb          	divuw	x29,x1,x13
    2090:	03ba6a3b          	remw	x20,x20,x27
    2094:	a6a67093          	andi	x1,x12,-1430
    2098:	0287f43b          	remuw	x8,x15,x8
    209c:	01f54cb3          	xor	x25,x10,x31
    20a0:	a61e039b          	addiw	x7,x28,-1439
    20a4:	d0af7b93          	andi	x23,x30,-758
    20a8:	03244d3b          	divw	x26,x8,x18
    20ac:	2aaee993          	ori	x19,x29,682
    20b0:	02fd8fb3          	mul	x31,x27,x15
    20b4:	01d602b3          	add	x5,x12,x29
    20b8:	acccfa93          	andi	x21,x25,-1332
    20bc:	0356dbb3          	divu	x23,x13,x21
    20c0:	de7ee893          	ori	x17,x29,-537
    20c4:	02c159bb          	divuw	x19,x2,x12
    20c8:	0376f733          	remu	x14,x13,x23
    20cc:	00bcfc33          	and	x24,x25,x11
    20d0:	01f102bb          	addw	x5,x2,x31
    20d4:	c0ede293          	ori	x5,x27,-1010
    20d8:	0273fe3b          	remuw	x28,x7,x7
    20dc:	011ff933          	and	x18,x31,x17
    20e0:	002c8bb3          	add	x23,x25,x2
    20e4:	022287b3          	mul	x15,x5,x2
    20e8:	a774fe13          	andi	x28,x9,-1417
    20ec:	026e613b          	remw	x2,x28,x6
    20f0:	02860a33          	mul	x20,x12,x8
    20f4:	0229fd3b          	remuw	x26,x19,x2
    20f8:	40b88133          	sub	x2,x17,x11
    20fc:	a1418f1b          	addiw	x30,x3,-1516
    2100:	4c6ff413          	andi	x8,x31,1222
    2104:	0089c5b3          	xor	x11,x19,x8
    2108:	0f8d4d13          	xori	x26,x26,248
    210c:	01c9883b          	addw	x16,x19,x28
    2110:	ce880c1b          	addiw	x24,x16,-792
    2114:	d8af8293          	addi	x5,x31,-630
    2118:	0012c7b3          	xor	x15,x5,x1
    211c:	02808333          	mul	x6,x1,x8
    2120:	03c753bb          	divuw	x7,x14,x28
    2124:	0317653b          	remw	x10,x14,x17
    2128:	f8306e93          	ori	x29,x0,-125
    212c:	02aff63b          	remuw	x12,x31,x10
    2130:	00a0e4b3          	or	x9,x1,x10
    2134:	035b4b3b          	divw	x22,x22,x21
    2138:	0238d1bb          	divuw	x3,x17,x3
    213c:	0256d13b          	divuw	x2,x13,x5
    2140:	012d053b          	addw	x10,x26,x18
    2144:	01d7f9b3          	and	x19,x15,x29
    2148:	0219c3b3          	div	x7,x19,x1
    214c:	02ccf733          	remu	x14,x25,x12
    2150:	bf4b7593          	andi	x11,x22,-1036
    2154:	034488bb          	mulw	x17,x9,x20
    2158:	011b873b          	addw	x14,x23,x17
    215c:	01bc0fbb          	addw	x31,x24,x27
    2160:	03836a33          	rem	x20,x6,x24
    2164:	031267b3          	rem	x15,x4,x17
    2168:	006dc6b3          	xor	x13,x27,x6
    216c:	0331d133          	divu	x2,x3,x19
    2170:	009b8bb3          	add	x23,x23,x9
    2174:	f2338b9b          	addiw	x23,x7,-221
    2178:	02916ab3          	rem	x21,x2,x9
    217c:	01c606bb          	addw	x13,x12,x28
    2180:	029f60b3          	rem	x1,x30,x9
    2184:	029b05b3          	mul	x11,x22,x9
    2188:	00ca05bb          	addw	x11,x20,x12
    218c:	028b5633          	divu	x12,x22,x8
    2190:	03def533          	remu	x10,x29,x29
    2194:	01cbcf33          	xor	x30,x23,x28
    2198:	02f50233          	mul	x4,x10,x15
    219c:	009fe033          	or	x0,x31,x9
    21a0:	419c8a33          	sub	x20,x25,x25
    21a4:	005b68b3          	or	x17,x22,x5
    21a8:	018b8ebb          	addw	x29,x23,x24
    21ac:	01b3f5b3          	and	x11,x7,x27
    21b0:	0235e33b          	remw	x6,x11,x3
    21b4:	034df4bb          	remuw	x9,x27,x20
    21b8:	02d48ebb          	mulw	x29,x9,x13
    21bc:	0d208c93          	addi	x25,x1,210
    21c0:	004b81b3          	add	x3,x23,x4
    21c4:	3b930513          	addi	x10,x6,953
    21c8:	a4eb4613          	xori	x12,x22,-1458
    21cc:	0280803b          	mulw	x0,x1,x8
    21d0:	03818433          	mul	x8,x3,x24
    21d4:	0050efb3          	or	x31,x1,x5
    21d8:	03e009bb          	mulw	x19,x0,x30
    21dc:	032feab3          	rem	x21,x31,x18
    21e0:	027a8833          	mul	x16,x21,x7
    21e4:	40d90133          	sub	x2,x18,x13
    21e8:	019688b3          	add	x17,x13,x25
    21ec:	0318513b          	divuw	x2,x16,x17
    21f0:	002a7133          	and	x2,x20,x2
    21f4:	03cf70bb          	remuw	x1,x30,x28
    21f8:	40dc8b33          	sub	x22,x25,x13
    21fc:	41bb8cb3          	sub	x25,x23,x27
    2200:	0268023b          	mulw	x4,x16,x6
    2204:	018f8233          	add	x4,x31,x24
    2208:	e0978093          	addi	x1,x15,-503
    220c:	8951039b          	addiw	x7,x2,-1899
    2210:	021654bb          	divuw	x9,x12,x1
    2214:	0389493b          	divw	x18,x18,x24
    2218:	03b305bb          	mulw	x11,x6,x27
    221c:	029583bb          	mulw	x7,x11,x9
    2220:	03460733          	mul	x14,x12,x20
    2224:	00ea09bb          	addw	x19,x20,x14
    2228:	00ca8933          	add	x18,x21,x12
    222c:	03356f33          	rem	x30,x10,x19
    2230:	031fdcbb          	divuw	x25,x31,x17
    2234:	5ded7993          	andi	x19,x26,1502
    2238:	03d56633          	rem	x12,x10,x29
    223c:	02fac5b3          	div	x11,x21,x15
    2240:	03e1d5b3          	divu	x11,x3,x30
    2244:	031861bb          	remw	x3,x16,x17
    2248:	03f584bb          	mulw	x9,x11,x31
    224c:	6477091b          	addiw	x18,x14,1607
    2250:	401282b3          	sub	x5,x5,x1
    2254:	bb9c7713          	andi	x14,x24,-1095
    2258:	03f36a33          	rem	x20,x6,x31
    225c:	0217e1bb          	remw	x3,x15,x1
    2260:	02497dbb          	remuw	x27,x18,x4
    2264:	01210fb3          	add	x31,x2,x18
    2268:	bd59881b          	addiw	x16,x19,-1067
    226c:	02a172bb          	remuw	x5,x2,x10
    2270:	032651bb          	divuw	x3,x12,x18
    2274:	00be8e3b          	addw	x28,x29,x11
    2278:	0294f2bb          	remuw	x5,x9,x9
    227c:	02bc6133          	rem	x2,x24,x11
    2280:	00ef8abb          	addw	x21,x31,x14
    2284:	c3b37193          	andi	x3,x6,-965
    2288:	02dd8b33          	mul	x22,x27,x13
    228c:	01a46133          	or	x2,x8,x26
    2290:	37b78e1b          	addiw	x28,x15,891
    2294:	00b389b3          	add	x19,x7,x11
    2298:	029a5ab3          	divu	x21,x20,x9
    229c:	02d36fb3          	rem	x31,x6,x13
    22a0:	02dd0d33          	mul	x26,x26,x13
    22a4:	9f917c13          	andi	x24,x2,-1543
    22a8:	142aea13          	ori	x20,x21,322
    22ac:	02000dbb          	mulw	x27,x0,x0
    22b0:	03b5603b          	remw	x0,x10,x27
    22b4:	01db7f33          	and	x30,x22,x29
    22b8:	00fe8533          	add	x10,x29,x15
    22bc:	2100059b          	addiw	x11,x0,528
    22c0:	020c5cb3          	divu	x25,x24,x0
    22c4:	ccaa4713          	xori	x14,x20,-822
    22c8:	0196cf33          	xor	x30,x13,x25
    22cc:	00854033          	xor	x0,x10,x8
    22d0:	453a7313          	andi	x6,x20,1107
    22d4:	031e6fbb          	remw	x31,x28,x17
    22d8:	03c6ec33          	rem	x24,x13,x28
    22dc:	03fe77bb          	remuw	x15,x28,x31
    22e0:	02c8f533          	remu	x10,x17,x12
    22e4:	01398eb3          	add	x29,x19,x19
    22e8:	02e145b3          	div	x11,x2,x14
    22ec:	01ea85bb          	addw	x11,x21,x30
    22f0:	03a0f0bb          	remuw	x1,x1,x26
    22f4:	5c2e039b          	addiw	x7,x28,1474
    22f8:	40888cb3          	sub	x25,x17,x8
    22fc:	419083b3          	sub	x7,x1,x25
    2300:	033b513b          	divuw	x2,x22,x19
    2304:	02035bbb          	divuw	x23,x6,x0
    2308:	03e60633          	mul	x12,x12,x30
    230c:	02130c3b          	mulw	x24,x6,x1
    2310:	f1307513          	andi	x10,x0,-237
    2314:	03a7543b          	divuw	x8,x14,x26
    2318:	03e7f033          	remu	x0,x15,x30
    231c:	7a0dc613          	xori	x12,x27,1952
    2320:	0034fb33          	and	x22,x9,x3
    2324:	02b76e3b          	remw	x28,x14,x11
    2328:	02b3edbb          	remw	x27,x7,x11
    232c:	f1456313          	ori	x6,x10,-236
    2330:	45678c13          	addi	x24,x15,1110
    2334:	0b0f6613          	ori	x12,x30,176
    2338:	00358c33          	add	x24,x11,x3
    233c:	029a0fb3          	mul	x31,x20,x9
    2340:	0227c533          	div	x10,x15,x2
    2344:	556d4093          	xori	x1,x26,1366
    2348:	6d7a8093          	addi	x1,x21,1751
    234c:	02f97fb3          	remu	x31,x18,x15
    2350:	039ce333          	rem	x6,x25,x25
    2354:	03d5d5bb          	divuw	x11,x11,x29
    2358:	fed04693          	xori	x13,x0,-19
    235c:	3e56c893          	xori	x17,x13,997
    2360:	65f8e693          	ori	x13,x17,1631
    2364:	404d003b          	subw	x0,x26,x4
    2368:	fd8ee813          	ori	x16,x29,-40
    236c:	1778039b          	addiw	x7,x16,375
    2370:	018efcb3          	and	x25,x29,x24
    2374:	0283c5bb          	divw	x11,x7,x8
    2378:	02e6fc33          	remu	x24,x13,x14
    237c:	402607b3          	sub	x15,x12,x2
    2380:	c92e6093          	ori	x1,x28,-878
    2384:	4a820a1b          	addiw	x20,x4,1192 # 4a8 <_binary_lab1_extra_test_bin_start+0x4a8>
    2388:	622e8c93          	addi	x25,x29,1570
    238c:	0363703b          	remuw	x0,x6,x22
    2390:	01d8e133          	or	x2,x17,x29
    2394:	01718c3b          	addw	x24,x3,x23
    2398:	115f4113          	xori	x2,x30,277
    239c:	03a68cb3          	mul	x25,x13,x26
    23a0:	02dbcdb3          	div	x27,x23,x13
    23a4:	007efb33          	and	x22,x29,x7
    23a8:	038a08bb          	mulw	x17,x20,x24
    23ac:	0284c7bb          	divw	x15,x9,x8
    23b0:	036fce3b          	divw	x28,x31,x22
    23b4:	001608b3          	add	x17,x12,x1
    23b8:	30624e93          	xori	x29,x4,774
    23bc:	e0724713          	xori	x14,x4,-505
    23c0:	03310fbb          	mulw	x31,x2,x19
    23c4:	01becb33          	xor	x22,x29,x27
    23c8:	caa5e513          	ori	x10,x11,-854
    23cc:	03dfce3b          	divw	x28,x31,x29
    23d0:	02104dbb          	divw	x27,x0,x1
    23d4:	0155c233          	xor	x4,x11,x21
    23d8:	01676b33          	or	x22,x14,x22
    23dc:	01698db3          	add	x27,x19,x22
    23e0:	00574033          	xor	x0,x14,x5
    23e4:	17b74e13          	xori	x28,x14,379
    23e8:	06128c9b          	addiw	x25,x5,97
    23ec:	408303bb          	subw	x7,x6,x8
    23f0:	029f5eb3          	divu	x29,x30,x9
    23f4:	03707133          	remu	x2,x0,x23
    23f8:	8bb6f413          	andi	x8,x13,-1861
    23fc:	01278db3          	add	x27,x15,x18
    2400:	03c4f1b3          	remu	x3,x9,x28
    2404:	010c05bb          	addw	x11,x24,x16
    2408:	40710fb3          	sub	x31,x2,x7
    240c:	006968b3          	or	x17,x18,x6
    2410:	417f02b3          	sub	x5,x30,x23
    2414:	02786a3b          	remw	x20,x16,x7
    2418:	415700b3          	sub	x1,x14,x21
    241c:	0367fc3b          	remuw	x24,x15,x22
    2420:	03774b33          	div	x22,x14,x23
    2424:	40858633          	sub	x12,x11,x8
    2428:	3ed7e093          	ori	x1,x15,1005
    242c:	dff20493          	addi	x9,x4,-513 # fffffffffffffdff <_binary_lab1_extra_test_bin_end+0xfffffffffffdfddf>
    2430:	5cacfd93          	andi	x27,x25,1482
    2434:	bfd0071b          	addiw	x14,x0,-1027
    2438:	008748b3          	xor	x17,x14,x8
    243c:	02d84a33          	div	x20,x16,x13
    2440:	02744a3b          	divw	x20,x8,x7
    2444:	9200ed93          	ori	x27,x1,-1760
    2448:	01354f33          	xor	x30,x10,x19
    244c:	02adf73b          	remuw	x14,x27,x10
    2450:	02a45ebb          	divuw	x29,x8,x10
    2454:	031bd0bb          	divuw	x1,x23,x17
    2458:	ee64e693          	ori	x13,x9,-282
    245c:	3ba07d93          	andi	x27,x0,954
    2460:	41f78233          	sub	x4,x15,x31
    2464:	0253e233          	rem	x4,x7,x5
    2468:	00bb6ab3          	or	x21,x22,x11
    246c:	73898f1b          	addiw	x30,x19,1848
    2470:	02856333          	rem	x6,x10,x8
    2474:	02ee51bb          	divuw	x3,x28,x14
    2478:	00b986b3          	add	x13,x19,x11
    247c:	862aec13          	ori	x24,x21,-1950
    2480:	03ea04b3          	mul	x9,x20,x30
    2484:	03ca5233          	divu	x4,x20,x28
    2488:	e0f1f393          	andi	x7,x3,-497
    248c:	0214483b          	divw	x16,x8,x1
    2490:	024c5b33          	divu	x22,x24,x4
    2494:	01e980bb          	addw	x1,x19,x30
    2498:	40c50cbb          	subw	x25,x10,x12
    249c:	03366a3b          	remw	x20,x12,x19
    24a0:	f2d5ce13          	xori	x28,x11,-211
    24a4:	02d14cbb          	divw	x25,x2,x13
    24a8:	0112083b          	addw	x16,x4,x17
    24ac:	41f689b3          	sub	x19,x13,x31
    24b0:	41020ebb          	subw	x29,x4,x16
    24b4:	50cb7393          	andi	x7,x22,1292
    24b8:	0289fdbb          	remuw	x27,x19,x8
    24bc:	035cc9bb          	divw	x19,x25,x21
    24c0:	41c88a33          	sub	x20,x17,x28
    24c4:	76dd8b1b          	addiw	x22,x27,1901
    24c8:	032586b3          	mul	x13,x11,x18
    24cc:	015f83bb          	addw	x7,x31,x21
    24d0:	1de50613          	addi	x12,x10,478
    24d4:	01b642b3          	xor	x5,x12,x27
    24d8:	01cd4cb3          	xor	x25,x26,x28
    24dc:	02510433          	mul	x8,x2,x5
    24e0:	813ae093          	ori	x1,x21,-2029
    24e4:	02e90ab3          	mul	x21,x18,x14
    24e8:	41ef0433          	sub	x8,x30,x30
    24ec:	6f4e4293          	xori	x5,x28,1780
    24f0:	02bc073b          	mulw	x14,x24,x11
    24f4:	02f1f5bb          	remuw	x11,x3,x15
    24f8:	00298abb          	addw	x21,x19,x2
    24fc:	0390c3b3          	div	x7,x1,x25
    2500:	0249c9bb          	divw	x19,x19,x4
    2504:	03924fb3          	div	x31,x4,x25
    2508:	dd2d7413          	andi	x8,x26,-558
    250c:	0214d5b3          	divu	x11,x9,x1
    2510:	3a42051b          	addiw	x10,x4,932 # 3a4 <_binary_lab1_extra_test_bin_start+0x3a4>
    2514:	323b4093          	xori	x1,x22,803
    2518:	41c8833b          	subw	x6,x17,x28
    251c:	9646f813          	andi	x16,x13,-1692
    2520:	290a6313          	ori	x6,x20,656
    2524:	2c526913          	ori	x18,x4,709
    2528:	789c4c13          	xori	x24,x24,1929
    252c:	026f4d3b          	divw	x26,x30,x6
    2530:	028bcdbb          	divw	x27,x23,x8
    2534:	0331c5bb          	divw	x11,x3,x19
    2538:	e117f393          	andi	x7,x15,-495
    253c:	0123ed33          	or	x26,x7,x18
    2540:	037f0433          	mul	x8,x30,x23
    2544:	8787e713          	ori	x14,x15,-1928
    2548:	010aebb3          	or	x23,x21,x16
    254c:	409405bb          	subw	x11,x8,x9
    2550:	02fd4abb          	divw	x21,x26,x15
    2554:	021101b3          	mul	x3,x2,x1
    2558:	dd3c7e13          	andi	x28,x24,-557
    255c:	0389d233          	divu	x4,x19,x24
    2560:	413d05bb          	subw	x11,x26,x19
    2564:	03b34333          	div	x6,x6,x27
    2568:	016877b3          	and	x15,x16,x22
    256c:	00c67733          	and	x14,x12,x12
    2570:	023f89b3          	mul	x19,x31,x3
    2574:	03b3f83b          	remuw	x16,x7,x27
    2578:	039ff833          	remu	x16,x31,x25
    257c:	95597793          	andi	x15,x18,-1707
    2580:	0300d033          	divu	x0,x1,x16
    2584:	9d060e1b          	addiw	x28,x12,-1584
    2588:	40dc8a33          	sub	x20,x25,x13
    258c:	02547db3          	remu	x27,x8,x5
    2590:	011848b3          	xor	x17,x16,x17
    2594:	02286ab3          	rem	x21,x16,x2
    2598:	03f4c933          	div	x18,x9,x31
    259c:	133bf113          	andi	x2,x23,307
    25a0:	03aa72bb          	remuw	x5,x20,x26
    25a4:	739e7513          	andi	x10,x28,1849
    25a8:	0333d8b3          	divu	x17,x7,x19
    25ac:	03c3f233          	remu	x4,x7,x28
    25b0:	e36de313          	ori	x6,x27,-458
    25b4:	02dd4633          	div	x12,x26,x13
    25b8:	036fce33          	div	x28,x31,x22
    25bc:	00126db3          	or	x27,x4,x1
    25c0:	40b18ebb          	subw	x29,x3,x11
    25c4:	fdebf713          	andi	x14,x23,-34
    25c8:	0329e0b3          	rem	x1,x19,x18
    25cc:	0258eeb3          	rem	x29,x17,x5
    25d0:	03534733          	div	x14,x6,x21
    25d4:	028ee8b3          	rem	x17,x29,x8
    25d8:	029b503b          	divuw	x0,x22,x9
    25dc:	015c0533          	add	x10,x24,x21
    25e0:	d16c4893          	xori	x17,x24,-746
    25e4:	028283b3          	mul	x7,x5,x8
    25e8:	035fd63b          	divuw	x12,x31,x21
    25ec:	019af2b3          	and	x5,x21,x25
    25f0:	03aa893b          	mulw	x18,x21,x26
    25f4:	010f6f33          	or	x30,x30,x16
    25f8:	008782b3          	add	x5,x15,x8
    25fc:	03d871bb          	remuw	x3,x16,x29
    2600:	01dff8b3          	and	x17,x31,x29
    2604:	01f4e133          	or	x2,x9,x31
    2608:	23f94913          	xori	x18,x18,575
    260c:	023559bb          	divuw	x19,x10,x3
    2610:	01fb72b3          	and	x5,x22,x31
    2614:	02657f33          	remu	x30,x10,x6
    2618:	03aaf533          	remu	x10,x21,x26
    261c:	4055063b          	subw	x12,x10,x5
    2620:	0341e8b3          	rem	x17,x3,x20
    2624:	b3016513          	ori	x10,x2,-1232
    2628:	001fcab3          	xor	x21,x31,x1
    262c:	003264b3          	or	x9,x4,x3
    2630:	85ce001b          	addiw	x0,x28,-1956
    2634:	41820b33          	sub	x22,x4,x24
    2638:	40d60633          	sub	x12,x12,x13
    263c:	0243fab3          	remu	x21,x7,x4
    2640:	40da8433          	sub	x8,x21,x13
    2644:	69b96193          	ori	x3,x18,1691
    2648:	aa308c9b          	addiw	x25,x1,-1373
    264c:	03d562bb          	remw	x5,x10,x29
    2650:	40960933          	sub	x18,x12,x9
    2654:	02a3f6bb          	remuw	x13,x7,x10
    2658:	03f3523b          	divuw	x4,x6,x31
    265c:	038ce93b          	remw	x18,x25,x24
    2660:	4170863b          	subw	x12,x1,x23
    2664:	02a5ccb3          	div	x25,x11,x10
    2668:	b7ec7713          	andi	x14,x24,-1154
    266c:	015aca33          	xor	x20,x21,x21
    2670:	00ea04b3          	add	x9,x20,x14
    2674:	3e217213          	andi	x4,x2,994
    2678:	0925039b          	addiw	x7,x10,146
    267c:	0391d83b          	divuw	x16,x3,x25
    2680:	0155ff33          	and	x30,x11,x21
    2684:	0385ddbb          	divuw	x27,x11,x24
    2688:	00b10b3b          	addw	x22,x2,x11
    268c:	e5170e1b          	addiw	x28,x14,-431
    2690:	03f674b3          	remu	x9,x12,x31
    2694:	149b0193          	addi	x3,x22,329
    2698:	03cf0333          	mul	x6,x30,x28
    269c:	4596f093          	andi	x1,x13,1113
    26a0:	00588db3          	add	x27,x17,x5
    26a4:	174e6213          	ori	x4,x28,372
    26a8:	01888833          	add	x16,x17,x24
    26ac:	00e806b3          	add	x13,x16,x14
    26b0:	01e58ebb          	addw	x29,x11,x30
    26b4:	404d0c3b          	subw	x24,x26,x4
    26b8:	0354d433          	divu	x8,x9,x21
    26bc:	03e3e533          	rem	x10,x7,x30
    26c0:	034b483b          	divw	x16,x22,x20
    26c4:	413e8bb3          	sub	x23,x29,x19
    26c8:	002bf8b3          	and	x17,x23,x2
    26cc:	79c4859b          	addiw	x11,x9,1948
    26d0:	0275c933          	div	x18,x11,x7
    26d4:	037789bb          	mulw	x19,x15,x23
    26d8:	73f96d93          	ori	x27,x18,1855
    26dc:	015977b3          	and	x15,x18,x21
    26e0:	41360633          	sub	x12,x12,x19
    26e4:	13497e93          	andi	x29,x18,308
    26e8:	00fffd33          	and	x26,x31,x15
    26ec:	d525e113          	ori	x2,x11,-686
    26f0:	01cc0c3b          	addw	x24,x24,x28
    26f4:	020cd83b          	divuw	x16,x25,x0
    26f8:	02e9e333          	rem	x6,x19,x14
    26fc:	0037f633          	and	x12,x15,x3
    2700:	00d54033          	xor	x0,x10,x13
    2704:	03c47033          	remu	x0,x8,x28
    2708:	403f003b          	subw	x0,x30,x3
    270c:	0327713b          	remuw	x2,x14,x18
    2710:	9d66e693          	ori	x13,x13,-1578
    2714:	addc4393          	xori	x7,x24,-1315
    2718:	00e801bb          	addw	x3,x16,x14
    271c:	014e03b3          	add	x7,x28,x20
    2720:	01c24233          	xor	x4,x4,x28
    2724:	02cf58bb          	divuw	x17,x30,x12
    2728:	4ef78993          	addi	x19,x15,1263
    272c:	141a8093          	addi	x1,x21,321
    2730:	028443b3          	div	x7,x8,x8
    2734:	02b80f3b          	mulw	x30,x16,x11
    2738:	0379ce33          	div	x28,x19,x23
    273c:	3ca5881b          	addiw	x16,x11,970
    2740:	00a169b3          	or	x19,x2,x10
    2744:	00218a33          	add	x20,x3,x2
    2748:	c8068c13          	addi	x24,x13,-896
    274c:	02a159b3          	divu	x19,x2,x10
    2750:	65fd0493          	addi	x9,x26,1631
    2754:	40f38cbb          	subw	x25,x7,x15
    2758:	0009f533          	and	x10,x19,x0
    275c:	02bc8633          	mul	x12,x25,x11
    2760:	e37cfc13          	andi	x24,x25,-457
    2764:	02888b3b          	mulw	x22,x17,x8
    2768:	005ce1b3          	or	x3,x25,x5
    276c:	02f307bb          	mulw	x15,x6,x15
    2770:	b0504793          	xori	x15,x0,-1275
    2774:	014104bb          	addw	x9,x2,x20
    2778:	01d803bb          	addw	x7,x16,x29
    277c:	017483b3          	add	x7,x9,x23
    2780:	00f4f7b3          	and	x15,x9,x15
    2784:	41350a3b          	subw	x20,x10,x19
    2788:	411b0a3b          	subw	x20,x22,x17
    278c:	02a645bb          	divw	x11,x12,x10
    2790:	02bcc3b3          	div	x7,x25,x11
    2794:	40918a33          	sub	x20,x3,x9
    2798:	4d1f0d1b          	addiw	x26,x30,1233
    279c:	e6227693          	andi	x13,x4,-414
    27a0:	031d49b3          	div	x19,x26,x17
    27a4:	be3d8e9b          	addiw	x29,x27,-1053
    27a8:	013def33          	or	x30,x27,x19
    27ac:	00307633          	and	x12,x0,x3
    27b0:	41518533          	sub	x10,x3,x21
    27b4:	40e80f3b          	subw	x30,x16,x14
    27b8:	01b16e33          	or	x28,x2,x27
    27bc:	0205c933          	div	x18,x11,x0
    27c0:	a8fd4893          	xori	x17,x26,-1393
    27c4:	007bc9b3          	xor	x19,x23,x7
    27c8:	035c4233          	div	x4,x24,x21
    27cc:	02b162b3          	rem	x5,x2,x11
    27d0:	038b45b3          	div	x11,x22,x24
    27d4:	41a60833          	sub	x16,x12,x26
    27d8:	41040eb3          	sub	x29,x8,x16
    27dc:	41e400bb          	subw	x1,x8,x30
    27e0:	03117c33          	remu	x24,x2,x17
    27e4:	02a3f43b          	remuw	x8,x7,x10
    27e8:	02bb7bb3          	remu	x23,x22,x11
    27ec:	003f89bb          	addw	x19,x31,x3
    27f0:	03a1453b          	divw	x10,x2,x26
    27f4:	8c4bf493          	andi	x9,x23,-1852
    27f8:	02bdec33          	rem	x24,x27,x11
    27fc:	c10b6e93          	ori	x29,x22,-1008
    2800:	03396c33          	rem	x24,x18,x19
    2804:	01d2e3b3          	or	x7,x5,x29
    2808:	036e84b3          	mul	x9,x29,x22
    280c:	00f98433          	add	x8,x19,x15
    2810:	0212dd3b          	divuw	x26,x5,x1
    2814:	404c8033          	sub	x0,x25,x4
    2818:	40c383b3          	sub	x7,x7,x12
    281c:	d2be8e1b          	addiw	x28,x29,-725
    2820:	01c543b3          	xor	x7,x10,x28
    2824:	f2af4d93          	xori	x27,x30,-214
    2828:	032c4e3b          	divw	x28,x24,x18
    282c:	0358f4bb          	remuw	x9,x17,x21
    2830:	40af06bb          	subw	x13,x30,x10
    2834:	03b3063b          	mulw	x12,x6,x27
    2838:	02c07533          	remu	x10,x0,x12
    283c:	02e87533          	remu	x10,x16,x14
    2840:	014f6eb3          	or	x29,x30,x20
    2844:	dbd8e993          	ori	x19,x17,-579
    2848:	022bf8bb          	remuw	x17,x23,x2
    284c:	d2707f93          	andi	x31,x0,-729
    2850:	0146fcb3          	and	x25,x13,x20
    2854:	01834133          	xor	x2,x6,x24
    2858:	02544033          	div	x0,x8,x5
    285c:	0222cebb          	divw	x29,x5,x2
    2860:	02f08e33          	mul	x28,x1,x15
    2864:	4b65fe93          	andi	x29,x11,1206
    2868:	03b35133          	divu	x2,x6,x27
    286c:	02f0e13b          	remw	x2,x1,x15
    2870:	401b0a33          	sub	x20,x22,x1
    2874:	03bde533          	rem	x10,x27,x27
    2878:	7f9b899b          	addiw	x19,x23,2041
    287c:	419d063b          	subw	x12,x26,x25
    2880:	03fe7d33          	remu	x26,x28,x31
    2884:	00074eb3          	xor	x29,x14,x0
    2888:	004506b3          	add	x13,x10,x4
    288c:	96dd8f13          	addi	x30,x27,-1683
    2890:	f5166713          	ori	x14,x12,-175
    2894:	021b663b          	remw	x12,x22,x1
    2898:	416483bb          	subw	x7,x9,x22
    289c:	025850bb          	divuw	x1,x16,x5
    28a0:	18f3011b          	addiw	x2,x6,399
    28a4:	027c4abb          	divw	x21,x24,x7
    28a8:	02e044bb          	divw	x9,x0,x14
    28ac:	e6e4e093          	ori	x1,x9,-402
    28b0:	836fc613          	xori	x12,x31,-1994
    28b4:	01d60b3b          	addw	x22,x12,x29
    28b8:	01ce04bb          	addw	x9,x28,x28
    28bc:	41428ab3          	sub	x21,x5,x20
    28c0:	03bb47b3          	div	x15,x22,x27
    28c4:	aef1001b          	addiw	x0,x2,-1297
    28c8:	9c2e6e13          	ori	x28,x28,-1598
    28cc:	02c34e33          	div	x28,x6,x12
    28d0:	0193ecb3          	or	x25,x7,x25
    28d4:	a1abc393          	xori	x7,x23,-1510
    28d8:	027d67b3          	rem	x15,x26,x7
    28dc:	03a86dbb          	remw	x27,x16,x26
    28e0:	40600933          	neg	x18,x6
    28e4:	9a1f0d9b          	addiw	x27,x30,-1631
    28e8:	ee4e009b          	addiw	x1,x28,-284
    28ec:	80d87193          	andi	x3,x16,-2035
    28f0:	25008293          	addi	x5,x1,592
    28f4:	03650dbb          	mulw	x27,x10,x22
    28f8:	01ee0f33          	add	x30,x28,x30
    28fc:	0047f3b3          	and	x7,x15,x4
    2900:	03c74ab3          	div	x21,x14,x28
    2904:	03dd4e3b          	divw	x28,x26,x29
    2908:	02d5f3b3          	remu	x7,x11,x13
    290c:	03f8c433          	div	x8,x17,x31
    2910:	039d033b          	mulw	x6,x26,x25
    2914:	0303deb3          	divu	x29,x7,x16
    2918:	036aceb3          	div	x29,x21,x22
    291c:	01a1cb33          	xor	x22,x3,x26
    2920:	00130e33          	add	x28,x6,x1
    2924:	0264fbb3          	remu	x23,x9,x6
    2928:	02e7fcbb          	remuw	x25,x15,x14
    292c:	555c7c13          	andi	x24,x24,1365
    2930:	03167233          	remu	x4,x12,x17
    2934:	03198533          	mul	x10,x19,x17
    2938:	032d8f33          	mul	x30,x27,x18
    293c:	01f48433          	add	x8,x9,x31
    2940:	0378dbbb          	divuw	x23,x17,x23
    2944:	0327d0b3          	divu	x1,x15,x18
    2948:	00128333          	add	x6,x5,x1
    294c:	03748cbb          	mulw	x25,x9,x23
    2950:	03c67e33          	remu	x28,x12,x28
    2954:	407808b3          	sub	x17,x16,x7
    2958:	00327d33          	and	x26,x4,x3
    295c:	01546eb3          	or	x29,x8,x21
    2960:	003609b3          	add	x19,x12,x3
    2964:	014bc2b3          	xor	x5,x23,x20
    2968:	03f9473b          	divw	x14,x18,x31
    296c:	02f15933          	divu	x18,x2,x15
    2970:	0298d7b3          	divu	x15,x17,x9
    2974:	0152e9b3          	or	x19,x5,x21
    2978:	0280c3bb          	divw	x7,x1,x8
    297c:	03516c33          	rem	x24,x2,x21
    2980:	6c358a13          	addi	x20,x11,1731
    2984:	41178fb3          	sub	x31,x15,x17
    2988:	0131f8b3          	and	x17,x3,x19
    298c:	40f689bb          	subw	x19,x13,x15
    2990:	03b902b3          	mul	x5,x18,x27
    2994:	030e083b          	mulw	x16,x28,x16
    2998:	023b05bb          	mulw	x11,x22,x3
    299c:	03f65533          	divu	x10,x12,x31
    29a0:	0208e7bb          	remw	x15,x17,x0
    29a4:	befcc613          	xori	x12,x25,-1041
    29a8:	40df0633          	sub	x12,x30,x13
    29ac:	5e7e8313          	addi	x6,x29,1511
    29b0:	e6180a1b          	addiw	x20,x16,-415
    29b4:	80c98b1b          	addiw	x22,x19,-2036
    29b8:	00800b33          	add	x22,x0,x8
    29bc:	e01d0d9b          	addiw	x27,x26,-511
    29c0:	0334f3b3          	remu	x7,x9,x19
    29c4:	47c94f13          	xori	x30,x18,1148
    29c8:	012d4133          	xor	x2,x26,x18
    29cc:	02ec64b3          	rem	x9,x24,x14
    29d0:	02f6f933          	remu	x18,x13,x15
    29d4:	40c48cb3          	sub	x25,x9,x12
    29d8:	0298d23b          	divuw	x4,x17,x9
    29dc:	8f7f881b          	addiw	x16,x31,-1801
    29e0:	9dec4013          	xori	x0,x24,-1570
    29e4:	013983bb          	addw	x7,x19,x19
    29e8:	00e4813b          	addw	x2,x9,x14
    29ec:	02fb8533          	mul	x10,x23,x15
    29f0:	03ace13b          	remw	x2,x25,x26
    29f4:	02be7ab3          	remu	x21,x28,x11
    29f8:	02fbe4bb          	remw	x9,x23,x15
    29fc:	00b6c033          	xor	x0,x13,x11
    2a00:	00168cb3          	add	x25,x13,x1
    2a04:	00f5f2b3          	and	x5,x11,x15
    2a08:	03460a33          	mul	x20,x12,x20
    2a0c:	41a98fb3          	sub	x31,x19,x26
    2a10:	02f87cb3          	remu	x25,x16,x15
    2a14:	009f4eb3          	xor	x29,x30,x9
    2a18:	03e3c83b          	divw	x16,x7,x30
    2a1c:	40800ebb          	negw	x29,x8
    2a20:	003aee33          	or	x28,x21,x3
    2a24:	890ccb13          	xori	x22,x25,-1904
    2a28:	e24d7e93          	andi	x29,x26,-476
    2a2c:	00a204b3          	add	x9,x4,x10
    2a30:	f9a4e093          	ori	x1,x9,-102
    2a34:	03088c3b          	mulw	x24,x17,x16
    2a38:	115b0a1b          	addiw	x20,x22,277
    2a3c:	41bb0eb3          	sub	x29,x22,x27
    2a40:	d5c7041b          	addiw	x8,x14,-676
    2a44:	0049f733          	and	x14,x19,x4
    2a48:	00bcf7b3          	and	x15,x25,x11
    2a4c:	41dd8ab3          	sub	x21,x27,x29
    2a50:	01fbfeb3          	and	x29,x23,x31
    2a54:	dc580813          	addi	x16,x16,-571
    2a58:	02d7feb3          	remu	x29,x15,x13
    2a5c:	7ed6811b          	addiw	x2,x13,2029
    2a60:	02f84733          	div	x14,x16,x15
    2a64:	d20f8b9b          	addiw	x23,x31,-736
    2a68:	1fac4b93          	xori	x23,x24,506
    2a6c:	03fef0bb          	remuw	x1,x29,x31
    2a70:	bbc2f413          	andi	x8,x5,-1092
    2a74:	01f10133          	add	x2,x2,x31
    2a78:	40d907bb          	subw	x15,x18,x13
    2a7c:	021a0a3b          	mulw	x20,x20,x1
    2a80:	018e6333          	or	x6,x28,x24
    2a84:	0389e8b3          	rem	x17,x19,x24
    2a88:	03da063b          	mulw	x12,x20,x29
    2a8c:	02e9e73b          	remw	x14,x19,x14
    2a90:	028ec8bb          	divw	x17,x29,x8
    2a94:	8bade713          	ori	x14,x27,-1862
    2a98:	002a68b3          	or	x17,x20,x2
    2a9c:	0121f433          	and	x8,x3,x18
    2aa0:	03307c33          	remu	x24,x0,x19
    2aa4:	031e0b3b          	mulw	x22,x28,x17
    2aa8:	01d46133          	or	x2,x8,x29
    2aac:	77ed6593          	ori	x11,x26,1918
    2ab0:	40850d33          	sub	x26,x10,x8
    2ab4:	03d75d33          	divu	x26,x14,x29
    2ab8:	00d20c33          	add	x24,x4,x13
    2abc:	41440333          	sub	x6,x8,x20
    2ac0:	f4c06813          	ori	x16,x0,-180
    2ac4:	005c0833          	add	x16,x24,x5
    2ac8:	034d68b3          	rem	x17,x26,x20
    2acc:	02bcd933          	divu	x18,x25,x11
    2ad0:	0350c4bb          	divw	x9,x1,x21
    2ad4:	02f7713b          	remuw	x2,x14,x15
    2ad8:	03ccfdbb          	remuw	x27,x25,x28
    2adc:	e82f7e93          	andi	x29,x30,-382
    2ae0:	028dc4bb          	divw	x9,x27,x8
    2ae4:	02695c3b          	divuw	x24,x18,x6
    2ae8:	769f0593          	addi	x11,x30,1897
    2aec:	029d8c3b          	mulw	x24,x27,x9
    2af0:	ce8f6413          	ori	x8,x30,-792
    2af4:	0348743b          	remuw	x8,x16,x20
    2af8:	007aff33          	and	x30,x21,x7
    2afc:	006988bb          	addw	x17,x19,x6
    2b00:	00fc0ebb          	addw	x29,x24,x15
    2b04:	037ed633          	divu	x12,x29,x23
    2b08:	411001bb          	negw	x3,x17
    2b0c:	02445fb3          	divu	x31,x8,x4
    2b10:	032f673b          	remw	x14,x30,x18
    2b14:	03800ab3          	mul	x21,x0,x24
    2b18:	0330df3b          	divuw	x30,x1,x19
    2b1c:	03b057b3          	divu	x15,x0,x27
    2b20:	01307eb3          	and	x29,x0,x19
    2b24:	00990c33          	add	x24,x18,x9
    2b28:	c46c8e13          	addi	x28,x25,-954
    2b2c:	46a74113          	xori	x2,x14,1130
    2b30:	0361dc33          	divu	x24,x3,x22
    2b34:	00e0fd33          	and	x26,x1,x14
    2b38:	011fe3b3          	or	x7,x31,x17
    2b3c:	02f5dfbb          	divuw	x31,x11,x15
    2b40:	02fc4fb3          	div	x31,x24,x15
    2b44:	02cf8db3          	mul	x27,x31,x12
    2b48:	0103f833          	and	x16,x7,x16
    2b4c:	4ed5841b          	addiw	x8,x11,1261
    2b50:	01ba8633          	add	x12,x21,x27
    2b54:	03b2e03b          	remw	x0,x5,x27
    2b58:	03850ab3          	mul	x21,x10,x24
    2b5c:	0255cb33          	div	x22,x11,x5
    2b60:	01910b3b          	addw	x22,x2,x25
    2b64:	01c78333          	add	x6,x15,x28
    2b68:	0262c93b          	divw	x18,x5,x6
    2b6c:	74d6e913          	ori	x18,x13,1869
    2b70:	039449bb          	divw	x19,x8,x25
    2b74:	01fd7433          	and	x8,x26,x31
    2b78:	009ff0b3          	and	x1,x31,x9
    2b7c:	4088873b          	subw	x14,x17,x8
    2b80:	023c4f33          	div	x30,x24,x3
    2b84:	03ba48bb          	divw	x17,x20,x27
    2b88:	028bfbbb          	remuw	x23,x23,x8
    2b8c:	00647e33          	and	x28,x8,x6
    2b90:	0290f13b          	remuw	x2,x1,x9
    2b94:	03450db3          	mul	x27,x10,x20
    2b98:	0158feb3          	and	x29,x17,x21
    2b9c:	01294eb3          	xor	x29,x18,x18
    2ba0:	02d207bb          	mulw	x15,x4,x13
    2ba4:	2e7ce093          	ori	x1,x25,743
    2ba8:	40948b3b          	subw	x22,x9,x9
    2bac:	99c5801b          	addiw	x0,x11,-1636
    2bb0:	008de7b3          	or	x15,x27,x8
    2bb4:	01cdcc33          	xor	x24,x27,x28
    2bb8:	01e5093b          	addw	x18,x10,x30
    2bbc:	03b07333          	remu	x6,x0,x27
    2bc0:	0223863b          	mulw	x12,x7,x2
    2bc4:	01f07633          	and	x12,x0,x31
    2bc8:	02c289b3          	mul	x19,x5,x12
    2bcc:	0347cabb          	divw	x21,x15,x20
    2bd0:	01a7c433          	xor	x8,x15,x26
    2bd4:	cb5af993          	andi	x19,x21,-843
    2bd8:	02920bb3          	mul	x23,x4,x9
    2bdc:	36708293          	addi	x5,x1,871
    2be0:	009b0333          	add	x6,x22,x9
    2be4:	03c2ccbb          	divw	x25,x5,x28
    2be8:	003eecb3          	or	x25,x29,x3
    2bec:	5c096013          	ori	x0,x18,1472
    2bf0:	73e28e9b          	addiw	x29,x5,1854
    2bf4:	a557819b          	addiw	x3,x15,-1451
    2bf8:	00e8c1b3          	xor	x3,x17,x14
    2bfc:	03916fb3          	rem	x31,x2,x25
    2c00:	03bddd33          	divu	x26,x27,x27
    2c04:	025755b3          	divu	x11,x14,x5
    2c08:	034e6bb3          	rem	x23,x28,x20
    2c0c:	0046cc33          	xor	x24,x13,x4
    2c10:	038654bb          	divuw	x9,x12,x24
    2c14:	03c36fbb          	remw	x31,x6,x28
    2c18:	605a7f93          	andi	x31,x20,1541
    2c1c:	01e6883b          	addw	x16,x13,x30
    2c20:	021340bb          	divw	x1,x6,x1
    2c24:	03c256b3          	divu	x13,x4,x28
    2c28:	02ce5e3b          	divuw	x28,x28,x12
    2c2c:	02a64fbb          	divw	x31,x12,x10
    2c30:	039e4133          	div	x2,x28,x25
    2c34:	3fa2f793          	andi	x15,x5,1018
    2c38:	037e04b3          	mul	x9,x28,x23
    2c3c:	018f89b3          	add	x19,x31,x24
    2c40:	b3b04113          	xori	x2,x0,-1221
    2c44:	0319463b          	divw	x12,x18,x17
    2c48:	012602bb          	addw	x5,x12,x18
    2c4c:	00050c33          	add	x24,x10,x0
    2c50:	030fd2b3          	divu	x5,x31,x16
    2c54:	0152073b          	addw	x14,x4,x21
    2c58:	03a4c333          	div	x6,x9,x26
    2c5c:	031601b3          	mul	x3,x12,x17
    2c60:	41d5863b          	subw	x12,x11,x29
    2c64:	033a7d33          	remu	x26,x20,x19
    2c68:	023659b3          	divu	x19,x12,x3
    2c6c:	60ce0993          	addi	x19,x28,1548
    2c70:	026ec13b          	divw	x2,x29,x6
    2c74:	030d88bb          	mulw	x17,x27,x16
    2c78:	034cd8b3          	divu	x17,x25,x20
    2c7c:	0272ee3b          	remw	x28,x5,x7
    2c80:	41cb873b          	subw	x14,x23,x28
    2c84:	0302d133          	divu	x2,x5,x16
    2c88:	016be833          	or	x16,x23,x22
    2c8c:	03697d33          	remu	x26,x18,x22
    2c90:	41f7863b          	subw	x12,x15,x31
    2c94:	840e7e93          	andi	x29,x28,-1984
    2c98:	10d94f13          	xori	x30,x18,269
    2c9c:	86547a93          	andi	x21,x8,-1947
    2ca0:	03ec6233          	rem	x4,x24,x30
    2ca4:	8f216f13          	ori	x30,x2,-1806
    2ca8:	03aef2bb          	remuw	x5,x29,x26
    2cac:	00fc6ab3          	or	x21,x24,x15
    2cb0:	0209e133          	rem	x2,x19,x0
    2cb4:	029a8bbb          	mulw	x23,x21,x9
    2cb8:	011b4333          	xor	x6,x22,x17
    2cbc:	15ec6993          	ori	x19,x24,350
    2cc0:	030448b3          	div	x17,x8,x16
    2cc4:	028b03bb          	mulw	x7,x22,x8
    2cc8:	b4cf8e93          	addi	x29,x31,-1204
    2ccc:	01fa0b33          	add	x22,x20,x31
    2cd0:	0208dc3b          	divuw	x24,x17,x0
    2cd4:	00a76eb3          	or	x29,x14,x10
    2cd8:	031b41bb          	divw	x3,x22,x17
    2cdc:	41270233          	sub	x4,x14,x18
    2ce0:	00f9cc33          	xor	x24,x19,x15
    2ce4:	00b6ff33          	and	x30,x13,x11
    2ce8:	0309eabb          	remw	x21,x19,x16
    2cec:	0293f033          	remu	x0,x7,x9
    2cf0:	02d3d4bb          	divuw	x9,x7,x13
    2cf4:	036802b3          	mul	x5,x16,x22
    2cf8:	037c6f33          	rem	x30,x24,x23
    2cfc:	02568e33          	mul	x28,x13,x5
    2d00:	014ff1b3          	and	x3,x31,x20
    2d04:	020a45bb          	divw	x11,x20,x0
    2d08:	039d0c3b          	mulw	x24,x26,x25
    2d0c:	72077493          	andi	x9,x14,1824
    2d10:	0042c0b3          	xor	x1,x5,x4
    2d14:	00740a3b          	addw	x20,x8,x7
    2d18:	fade7893          	andi	x17,x28,-83
    2d1c:	0350c033          	div	x0,x1,x21
    2d20:	038dddbb          	divuw	x27,x27,x24
    2d24:	0216533b          	divuw	x6,x12,x1
    2d28:	41d701b3          	sub	x3,x14,x29
    2d2c:	030c41b3          	div	x3,x24,x16
    2d30:	41fe85bb          	subw	x11,x29,x31
    2d34:	13110f93          	addi	x31,x2,305
    2d38:	0343da3b          	divuw	x20,x7,x20
    2d3c:	03f4f43b          	remuw	x8,x9,x31
    2d40:	00ab6133          	or	x2,x22,x10
    2d44:	021aed33          	rem	x26,x21,x1
    2d48:	03db55bb          	divuw	x11,x22,x29
    2d4c:	028edd33          	divu	x26,x29,x8
    2d50:	01ece3b3          	or	x7,x25,x30
    2d54:	a16afb13          	andi	x22,x21,-1514
    2d58:	4cdf059b          	addiw	x11,x30,1229
    2d5c:	03470fbb          	mulw	x31,x14,x20
    2d60:	01e5ee33          	or	x28,x11,x30
    2d64:	028a55bb          	divuw	x11,x20,x8
    2d68:	4075883b          	subw	x16,x11,x7
    2d6c:	7c5ac493          	xori	x9,x21,1989
    2d70:	0267dab3          	divu	x21,x15,x6
    2d74:	0353f03b          	remuw	x0,x7,x21
    2d78:	40e78cb3          	sub	x25,x15,x14
    2d7c:	40bb8633          	sub	x12,x23,x11
    2d80:	0f600393          	li	x7,246
    2d84:	fb6dcc13          	xori	x24,x27,-74
    2d88:	03ad52bb          	divuw	x5,x26,x26
    2d8c:	01420ebb          	addw	x29,x4,x20
    2d90:	01347933          	and	x18,x8,x19
    2d94:	03f6f7bb          	remuw	x15,x13,x31
    2d98:	03ec8133          	mul	x2,x25,x30
    2d9c:	35b9f413          	andi	x8,x19,859
    2da0:	01600533          	add	x10,x0,x22
    2da4:	d9548e13          	addi	x28,x9,-619
    2da8:	02e3443b          	divw	x8,x6,x14
    2dac:	02a3413b          	divw	x2,x6,x10
    2db0:	02eb47b3          	div	x15,x22,x14
    2db4:	03110dbb          	mulw	x27,x2,x17
    2db8:	033568bb          	remw	x17,x10,x19
    2dbc:	da368e13          	addi	x28,x13,-605
    2dc0:	02d45b3b          	divuw	x22,x8,x13
    2dc4:	03b4743b          	remuw	x8,x8,x27
    2dc8:	0244c9bb          	divw	x19,x9,x4
    2dcc:	03947d33          	remu	x26,x8,x25
    2dd0:	02224cb3          	div	x25,x4,x2
    2dd4:	02ef7cbb          	remuw	x25,x30,x14
    2dd8:	01790bb3          	add	x23,x18,x23
    2ddc:	7a98899b          	addiw	x19,x17,1961
    2de0:	ecfd6b13          	ori	x22,x26,-305
    2de4:	010061b3          	or	x3,x0,x16
    2de8:	02198bb3          	mul	x23,x19,x1
    2dec:	02ca403b          	divw	x0,x20,x12
    2df0:	02b34233          	div	x4,x6,x11
    2df4:	031d403b          	divw	x0,x26,x17
    2df8:	400a8b3b          	subw	x22,x21,x0
    2dfc:	0245d233          	divu	x4,x11,x4
    2e00:	6440ce93          	xori	x29,x1,1604
    2e04:	022e5a33          	divu	x20,x28,x2
    2e08:	03c34c3b          	divw	x24,x6,x28
    2e0c:	b4d86d13          	ori	x26,x16,-1203
    2e10:	029fe433          	rem	x8,x31,x9
    2e14:	03f1c2bb          	divw	x5,x3,x31
    2e18:	02df60bb          	remw	x1,x30,x13
    2e1c:	0245cb3b          	divw	x22,x11,x4
    2e20:	02c06d3b          	remw	x26,x0,x12
    2e24:	02264cbb          	divw	x25,x12,x2
    2e28:	41860e3b          	subw	x28,x12,x24
    2e2c:	035a783b          	remuw	x16,x20,x21
    2e30:	02d5f433          	remu	x8,x11,x13
    2e34:	02f7cd33          	div	x26,x15,x15
    2e38:	000fcdb3          	xor	x27,x31,x0
    2e3c:	03468e3b          	mulw	x28,x13,x20
    2e40:	02644bbb          	divw	x23,x8,x6
    2e44:	02ef44bb          	divw	x9,x30,x14
    2e48:	03887033          	remu	x0,x16,x24
    2e4c:	f8ddea93          	ori	x21,x27,-115
    2e50:	020475bb          	remuw	x11,x8,x0
    2e54:	008ffc33          	and	x24,x31,x8
    2e58:	03236a33          	rem	x20,x6,x18
    2e5c:	028758b3          	divu	x17,x14,x8
    2e60:	0236e7bb          	remw	x15,x13,x3
    2e64:	03e603bb          	mulw	x7,x12,x30
    2e68:	02864833          	div	x16,x12,x8
    2e6c:	0332fe3b          	remuw	x28,x5,x19
    2e70:	02fc49bb          	divw	x19,x24,x15
    2e74:	00e7f6b3          	and	x13,x15,x14
    2e78:	03864533          	div	x10,x12,x24
    2e7c:	007d0a3b          	addw	x20,x26,x7
    2e80:	0221c7bb          	divw	x15,x3,x2
    2e84:	011e6eb3          	or	x29,x28,x17
    2e88:	0167f533          	and	x10,x15,x22
    2e8c:	03a2c333          	div	x6,x5,x26
    2e90:	28c38d1b          	addiw	x26,x7,652
    2e94:	02ea803b          	mulw	x0,x21,x14
    2e98:	0204f6bb          	remuw	x13,x9,x0
    2e9c:	02d46a33          	rem	x20,x8,x13
    2ea0:	a7960413          	addi	x8,x12,-1415
    2ea4:	ccbf0e13          	addi	x28,x30,-821
    2ea8:	03d205b3          	mul	x11,x4,x29
    2eac:	9fe64a93          	xori	x21,x12,-1538
    2eb0:	02ea603b          	remw	x0,x20,x14
    2eb4:	03f1093b          	mulw	x18,x2,x31
    2eb8:	41f48533          	sub	x10,x9,x31
    2ebc:	4b484613          	xori	x12,x16,1204
    2ec0:	03acfb3b          	remuw	x22,x25,x26
    2ec4:	41e20033          	sub	x0,x4,x30
    2ec8:	02946c3b          	remw	x24,x8,x9
    2ecc:	5199ce93          	xori	x29,x19,1305
    2ed0:	033361bb          	remw	x3,x6,x19
    2ed4:	002349b3          	xor	x19,x6,x2
    2ed8:	01cf05b3          	add	x11,x30,x28
    2edc:	40c4023b          	subw	x4,x8,x12
    2ee0:	030ac933          	div	x18,x21,x16
    2ee4:	028d50bb          	divuw	x1,x26,x8
    2ee8:	db56e693          	ori	x13,x13,-587
    2eec:	077ff213          	andi	x4,x31,119
    2ef0:	b9166013          	ori	x0,x12,-1135
    2ef4:	01f90b33          	add	x22,x18,x31
    2ef8:	408b0cbb          	subw	x25,x22,x8
    2efc:	00a5f8b3          	and	x17,x11,x10
    2f00:	03a9e8bb          	remw	x17,x19,x26
    2f04:	01f4f0b3          	and	x1,x9,x31
    2f08:	025a56b3          	divu	x13,x20,x5
    2f0c:	80e18d1b          	addiw	x26,x3,-2034
    2f10:	001df0b3          	and	x1,x27,x1
    2f14:	0144f9b3          	and	x19,x9,x20
    2f18:	40a08cbb          	subw	x25,x1,x10
    2f1c:	02ac84bb          	mulw	x9,x25,x10
    2f20:	01a68dbb          	addw	x27,x13,x26
    2f24:	408c0c33          	sub	x24,x24,x8
    2f28:	0343ccb3          	div	x25,x7,x20
    2f2c:	4f9afd13          	andi	x26,x21,1273
    2f30:	536b7c93          	andi	x25,x22,1334
    2f34:	03155cbb          	divuw	x25,x10,x17
    2f38:	0134f4b3          	and	x9,x9,x19
    2f3c:	a81e8d9b          	addiw	x27,x29,-1407
    2f40:	16e3069b          	addiw	x13,x6,366
    2f44:	021b793b          	remuw	x18,x22,x1
    2f48:	027069b3          	rem	x19,x0,x7
    2f4c:	019a4ab3          	xor	x21,x20,x25
    2f50:	013d7db3          	and	x27,x26,x19
    2f54:	b4994a13          	xori	x20,x18,-1207
    2f58:	03928f3b          	mulw	x30,x5,x25
    2f5c:	036b50bb          	divuw	x1,x22,x22
    2f60:	020d783b          	remuw	x16,x26,x0
    2f64:	00da0bb3          	add	x23,x20,x13
    2f68:	01a9cfb3          	xor	x31,x19,x26
    2f6c:	e0bf0c13          	addi	x24,x30,-501
    2f70:	8d4f019b          	addiw	x3,x30,-1836
    2f74:	0346f6bb          	remuw	x13,x13,x20
    2f78:	0330e73b          	remw	x14,x1,x19
    2f7c:	03ae0ab3          	mul	x21,x28,x26
    2f80:	002e68b3          	or	x17,x28,x2
    2f84:	02e98cbb          	mulw	x25,x19,x14
    2f88:	0362f433          	remu	x8,x5,x22
    2f8c:	02e908b3          	mul	x17,x18,x14
    2f90:	03f35fbb          	divuw	x31,x6,x31
    2f94:	1ff08713          	addi	x14,x1,511
    2f98:	e49c821b          	addiw	x4,x25,-439
    2f9c:	033dc0b3          	div	x1,x27,x19
    2fa0:	95eb8493          	addi	x9,x23,-1698
    2fa4:	0087fb33          	and	x22,x15,x8
    2fa8:	03e1c2b3          	div	x5,x3,x30
    2fac:	02e360bb          	remw	x1,x6,x14
    2fb0:	8d3a079b          	addiw	x15,x20,-1837
    2fb4:	03da54b3          	divu	x9,x20,x29
    2fb8:	877a7e93          	andi	x29,x20,-1929
    2fbc:	02214133          	div	x2,x2,x2
    2fc0:	01c166b3          	or	x13,x2,x28
    2fc4:	672c8b13          	addi	x22,x25,1650
    2fc8:	008ec7b3          	xor	x15,x29,x8
    2fcc:	d33f4413          	xori	x8,x30,-717
    2fd0:	d4e77f13          	andi	x30,x14,-690
    2fd4:	5b920613          	addi	x12,x4,1465 # 5b9 <_binary_lab1_extra_test_bin_start+0x5b9>
    2fd8:	0396ff3b          	remuw	x30,x13,x25
    2fdc:	011e08b3          	add	x17,x28,x17
    2fe0:	03dc80b3          	mul	x1,x25,x29
    2fe4:	02a97b33          	remu	x22,x18,x10
    2fe8:	026b63bb          	remw	x7,x22,x6
    2fec:	013404b3          	add	x9,x8,x19
    2ff0:	7e700493          	li	x9,2023
    2ff4:	00a900bb          	addw	x1,x18,x10
    2ff8:	002d0833          	add	x16,x26,x2
    2ffc:	03b8edb3          	rem	x27,x17,x27
    3000:	0268533b          	divuw	x6,x16,x6
    3004:	0168f2b3          	and	x5,x17,x22
    3008:	01b2cd33          	xor	x26,x5,x27
    300c:	031dc133          	div	x2,x27,x17
    3010:	001346b3          	xor	x13,x6,x1
    3014:	03940433          	mul	x8,x8,x25
    3018:	f715cc13          	xori	x24,x11,-143
    301c:	3d0a0593          	addi	x11,x20,976
    3020:	0292f83b          	remuw	x16,x5,x9
    3024:	03e25fbb          	divuw	x31,x4,x30
    3028:	1f087813          	andi	x16,x16,496
    302c:	0241733b          	remuw	x6,x2,x4
    3030:	01828a33          	add	x20,x5,x24
    3034:	03e258bb          	divuw	x17,x4,x30
    3038:	01b3e8b3          	or	x17,x7,x27
    303c:	01376133          	or	x2,x14,x19
    3040:	43477293          	andi	x5,x14,1076
    3044:	02615a3b          	divuw	x20,x2,x6
    3048:	92210c13          	addi	x24,x2,-1758
    304c:	03c25cb3          	divu	x25,x4,x28
    3050:	0227ea3b          	remw	x20,x15,x2
    3054:	21adcf13          	xori	x30,x27,538
    3058:	01880c33          	add	x24,x16,x24
    305c:	03daf0b3          	remu	x1,x21,x29
    3060:	011e6533          	or	x10,x28,x17
    3064:	02ab8a3b          	mulw	x20,x23,x10
    3068:	03885e3b          	divuw	x28,x16,x24
    306c:	00878833          	add	x16,x15,x8
    3070:	030ce133          	rem	x2,x25,x16
    3074:	015e8733          	add	x14,x29,x21
    3078:	01e38133          	add	x2,x7,x30
    307c:	0320e5bb          	remw	x11,x1,x18
    3080:	016b4f33          	xor	x30,x22,x22
    3084:	813e0c13          	addi	x24,x28,-2029
    3088:	a890f293          	andi	x5,x1,-1399
    308c:	03adc7b3          	div	x15,x27,x26
    3090:	0009f833          	and	x16,x19,x0
    3094:	412c833b          	subw	x6,x25,x18
    3098:	00860abb          	addw	x21,x12,x8
    309c:	bc7bc293          	xori	x5,x23,-1081
    30a0:	021a533b          	divuw	x6,x20,x1
    30a4:	f341899b          	addiw	x19,x3,-204
    30a8:	406f0333          	sub	x6,x30,x6
    30ac:	00e2e8b3          	or	x17,x5,x14
    30b0:	ce5e091b          	addiw	x18,x28,-795
    30b4:	02b9c43b          	divw	x8,x19,x11
    30b8:	c0a48e1b          	addiw	x28,x9,-1014
    30bc:	021a5c3b          	divuw	x24,x20,x1
    30c0:	019d043b          	addw	x8,x26,x25
    30c4:	0207eebb          	remw	x29,x15,x0
    30c8:	021f5b3b          	divuw	x22,x30,x1
    30cc:	036ec5bb          	divw	x11,x29,x22
    30d0:	02d2d43b          	divuw	x8,x5,x13
    30d4:	0345063b          	mulw	x12,x10,x20
    30d8:	011187bb          	addw	x15,x3,x17
    30dc:	d69f8b1b          	addiw	x22,x31,-663
    30e0:	03ce693b          	remw	x18,x28,x28
    30e4:	40088ebb          	subw	x29,x17,x0
    30e8:	02a28fbb          	mulw	x31,x5,x10
    30ec:	0395dc3b          	divuw	x24,x11,x25
    30f0:	0309ffb3          	remu	x31,x19,x16
    30f4:	020bd5bb          	divuw	x11,x23,x0
    30f8:	41ab09bb          	subw	x19,x22,x26
    30fc:	034283bb          	mulw	x7,x5,x20
    3100:	02dde4bb          	remw	x9,x27,x13
    3104:	44c2fe13          	andi	x28,x5,1100
    3108:	8533f793          	andi	x15,x7,-1965
    310c:	02f5dfbb          	divuw	x31,x11,x15
    3110:	008a66b3          	or	x13,x20,x8
    3114:	0ed8831b          	addiw	x6,x17,237
    3118:	02c1f43b          	remuw	x8,x3,x12
    311c:	02ddf6bb          	remuw	x13,x27,x13
    3120:	02c3f8bb          	remuw	x17,x7,x12
    3124:	cda00713          	li	x14,-806
    3128:	3b8dfe13          	andi	x28,x27,952
    312c:	4ccd8d13          	addi	x26,x27,1228
    3130:	02a07f33          	remu	x30,x0,x10
    3134:	0188c8b3          	xor	x17,x17,x24
    3138:	0038c633          	xor	x12,x17,x3
    313c:	0239423b          	divw	x4,x18,x3
    3140:	02da8dbb          	mulw	x27,x21,x13
    3144:	02b4f03b          	remuw	x0,x9,x11
    3148:	0228e73b          	remw	x14,x17,x2
    314c:	0387f4b3          	remu	x9,x15,x24
    3150:	d8e58613          	addi	x12,x11,-626
    3154:	031e503b          	divuw	x0,x28,x17
    3158:	03ea0413          	addi	x8,x20,62
    315c:	a95e0a13          	addi	x20,x28,-1387
    3160:	2bb1861b          	addiw	x12,x3,699
    3164:	40f308bb          	subw	x17,x6,x15
    3168:	03bc8c33          	mul	x24,x25,x27
    316c:	02520533          	mul	x10,x4,x5
    3170:	03fafcb3          	remu	x25,x21,x31
    3174:	03794fb3          	div	x31,x18,x23
    3178:	03f9ca33          	div	x20,x19,x31
    317c:	02d7dc3b          	divuw	x24,x15,x13
    3180:	41fc02b3          	sub	x5,x24,x31
    3184:	022b71b3          	remu	x3,x22,x2
    3188:	bb0c8693          	addi	x13,x25,-1104
    318c:	40cb86b3          	sub	x13,x23,x12
    3190:	02ca5533          	divu	x10,x20,x12
    3194:	49897913          	andi	x18,x18,1176
    3198:	929f4193          	xori	x3,x30,-1751
    319c:	02b30abb          	mulw	x21,x6,x11
    31a0:	a8ed7493          	andi	x9,x26,-1394
    31a4:	037d82b3          	mul	x5,x27,x23
    31a8:	03c36abb          	remw	x21,x6,x28
    31ac:	03aa553b          	divuw	x10,x20,x26
    31b0:	02ab0dbb          	mulw	x27,x22,x10
    31b4:	03e07e33          	remu	x28,x0,x30
    31b8:	00914933          	xor	x18,x2,x9
    31bc:	00e6823b          	addw	x4,x13,x14
    31c0:	025c7a33          	remu	x20,x24,x5
    31c4:	40fc0dbb          	subw	x27,x24,x15
    31c8:	03a5dcbb          	divuw	x25,x11,x26
    31cc:	52588713          	addi	x14,x17,1317
    31d0:	03d54fbb          	divw	x31,x10,x29
    31d4:	1f50f693          	andi	x13,x1,501
    31d8:	40560f33          	sub	x30,x12,x5
    31dc:	0256ea3b          	remw	x20,x13,x5
    31e0:	012b48b3          	xor	x17,x22,x18
    31e4:	02dcefbb          	remw	x31,x25,x13
    31e8:	aba28113          	addi	x2,x5,-1350
    31ec:	b3f48093          	addi	x1,x9,-1217
    31f0:	02a80bb3          	mul	x23,x16,x10
    31f4:	02d70633          	mul	x12,x14,x13
    31f8:	0190e3b3          	or	x7,x1,x25
    31fc:	009be0b3          	or	x1,x23,x9
    3200:	46b0c993          	xori	x19,x1,1131
    3204:	0284fc3b          	remuw	x24,x9,x8
    3208:	03d2cebb          	divw	x29,x5,x29
    320c:	a785fe13          	andi	x28,x11,-1416
    3210:	03ff76bb          	remuw	x13,x30,x31
    3214:	029beabb          	remw	x21,x23,x9
    3218:	d6f07813          	andi	x16,x0,-657
    321c:	0313603b          	remw	x0,x6,x17
    3220:	027142b3          	div	x5,x2,x7
    3224:	4ba1fb13          	andi	x22,x3,1210
    3228:	033953b3          	divu	x7,x18,x19
    322c:	1af4091b          	addiw	x18,x8,431
    3230:	01b2f533          	and	x10,x5,x27
    3234:	00fc0d33          	add	x26,x24,x15
    3238:	7581cb13          	xori	x22,x3,1880
    323c:	c0948613          	addi	x12,x9,-1015
    3240:	02c5543b          	divuw	x8,x10,x12
    3244:	e3494b13          	xori	x22,x18,-460
    3248:	b7408793          	addi	x15,x1,-1164
    324c:	b5517413          	andi	x8,x2,-1195
    3250:	023e5833          	divu	x16,x28,x3
    3254:	41f30c33          	sub	x24,x6,x31
    3258:	020b4d33          	div	x26,x22,x0
    325c:	404702b3          	sub	x5,x14,x4
    3260:	b1220b93          	addi	x23,x4,-1262 # fffffffffffffb12 <_binary_lab1_extra_test_bin_end+0xfffffffffffdfaf2>
    3264:	03f76db3          	rem	x27,x14,x31
    3268:	03837a3b          	remuw	x20,x6,x24
    326c:	86cacc93          	xori	x25,x21,-1940
    3270:	012c76b3          	and	x13,x24,x18
    3274:	52ffc613          	xori	x12,x31,1327
    3278:	0097f333          	and	x6,x15,x9
    327c:	0328023b          	mulw	x4,x16,x18
    3280:	02b8d2b3          	divu	x5,x17,x11
    3284:	02ebf033          	remu	x0,x23,x14
    3288:	025ceb33          	rem	x22,x25,x5
    328c:	00c7c033          	xor	x0,x15,x12
    3290:	01c676b3          	and	x13,x12,x28
    3294:	02716833          	rem	x16,x2,x7
    3298:	032bdc33          	divu	x24,x23,x18
    329c:	2ff3831b          	addiw	x6,x7,767
    32a0:	890f0e93          	addi	x29,x30,-1904
    32a4:	007ec7b3          	xor	x15,x29,x7
    32a8:	02c65dbb          	divuw	x27,x12,x12
    32ac:	da296d93          	ori	x27,x18,-606
    32b0:	c45d6b93          	ori	x23,x26,-955
    32b4:	035fc2bb          	divw	x5,x31,x21
    32b8:	027ed8bb          	divuw	x17,x29,x7
    32bc:	03d977b3          	remu	x15,x18,x29
    32c0:	6c397393          	andi	x7,x18,1731
    32c4:	89220f1b          	addiw	x30,x4,-1902 # fffffffffffff892 <_binary_lab1_extra_test_bin_end+0xfffffffffffdf872>
    32c8:	034c7eb3          	remu	x29,x24,x20
    32cc:	02210233          	mul	x4,x2,x2
    32d0:	b7db0a9b          	addiw	x21,x22,-1155
    32d4:	01a708bb          	addw	x17,x14,x26
    32d8:	03a15b33          	divu	x22,x2,x26
    32dc:	d4c3851b          	addiw	x10,x7,-692
    32e0:	ad0cf213          	andi	x4,x25,-1328
    32e4:	03054833          	div	x16,x10,x16
    32e8:	034d05b3          	mul	x11,x26,x20
    32ec:	d7f3f013          	andi	x0,x7,-641
    32f0:	020966b3          	rem	x13,x18,x0
    32f4:	cdf6c813          	xori	x16,x13,-801
    32f8:	037aecbb          	remw	x25,x21,x23
    32fc:	0185053b          	addw	x10,x10,x24
    3300:	41748fbb          	subw	x31,x9,x23
    3304:	02735a33          	divu	x20,x6,x7
    3308:	0252053b          	mulw	x10,x4,x5
    330c:	032b73b3          	remu	x7,x22,x18
    3310:	418e0833          	sub	x16,x28,x24
    3314:	03235933          	divu	x18,x6,x18
    3318:	a26c7113          	andi	x2,x24,-1498
    331c:	031d68bb          	remw	x17,x26,x17
    3320:	5d3e0e13          	addi	x28,x28,1491
    3324:	03baeeb3          	rem	x29,x21,x27
    3328:	01160333          	add	x6,x12,x17
    332c:	0038883b          	addw	x16,x17,x3
    3330:	03f20f3b          	mulw	x30,x4,x31
    3334:	030a5033          	divu	x0,x20,x16
    3338:	028ee53b          	remw	x10,x29,x8
    333c:	0303753b          	remuw	x10,x6,x16
    3340:	0243df33          	divu	x30,x7,x4
    3344:	01524433          	xor	x8,x4,x21
    3348:	023d81bb          	mulw	x3,x27,x3
    334c:	02306733          	rem	x14,x0,x3
    3350:	87294713          	xori	x14,x18,-1934
    3354:	413c0cbb          	subw	x25,x24,x19
    3358:	5e6b821b          	addiw	x4,x23,1510
    335c:	02c9eb3b          	remw	x22,x19,x12
    3360:	02f2e833          	rem	x16,x5,x15
    3364:	00dbe9b3          	or	x19,x23,x13
    3368:	0352ee3b          	remw	x28,x5,x21
    336c:	00a7cab3          	xor	x21,x15,x10
    3370:	5f128a9b          	addiw	x21,x5,1521
    3374:	890b4493          	xori	x9,x22,-1904
    3378:	029e5b33          	divu	x22,x28,x9
    337c:	034e8b3b          	mulw	x22,x29,x20
    3380:	406d86b3          	sub	x13,x27,x6
    3384:	029e08b3          	mul	x17,x28,x9
    3388:	030f4fb3          	div	x31,x30,x16
    338c:	0108c3b3          	xor	x7,x17,x16
    3390:	d97a7e93          	andi	x29,x20,-617
    3394:	03f0d7bb          	divuw	x15,x1,x31
    3398:	00e2ffb3          	and	x31,x5,x14
    339c:	033373bb          	remuw	x7,x6,x19
    33a0:	400403bb          	subw	x7,x8,x0
    33a4:	dd434093          	xori	x1,x6,-556
    33a8:	021b8b33          	mul	x22,x23,x1
    33ac:	401e8cbb          	subw	x25,x29,x1
    33b0:	40f18d33          	sub	x26,x3,x15
    33b4:	411bfa93          	andi	x21,x23,1041
    33b8:	03c172b3          	remu	x5,x2,x28
    33bc:	19a6ff93          	andi	x31,x13,410
    33c0:	03266233          	rem	x4,x12,x18
    33c4:	032351b3          	divu	x3,x6,x18
    33c8:	02d579b3          	remu	x19,x10,x13
    33cc:	bc5c4a93          	xori	x21,x24,-1083
    33d0:	41750cb3          	sub	x25,x10,x23
    33d4:	03316533          	rem	x10,x2,x19
    33d8:	00398f33          	add	x30,x19,x3
    33dc:	036572bb          	remuw	x5,x10,x22
    33e0:	03d050bb          	divuw	x1,x0,x29
    33e4:	ce52ea93          	ori	x21,x5,-795
    33e8:	03160533          	mul	x10,x12,x17
    33ec:	02ecfdbb          	remuw	x27,x25,x14
    33f0:	005b0933          	add	x18,x22,x5
    33f4:	906b0d1b          	addiw	x26,x22,-1786
    33f8:	03044abb          	divw	x21,x8,x16
    33fc:	02bf0133          	mul	x2,x30,x11
    3400:	4ed24f93          	xori	x31,x4,1261
    3404:	411a8bb3          	sub	x23,x21,x17
    3408:	02d4483b          	divw	x16,x8,x13
    340c:	02c46833          	rem	x16,x8,x12
    3410:	036e8b3b          	mulw	x22,x29,x22
    3414:	4db88d1b          	addiw	x26,x17,1243
    3418:	2ecf7a93          	andi	x21,x30,748
    341c:	0343cf3b          	divw	x30,x7,x20
    3420:	0187c633          	xor	x12,x15,x24
    3424:	3d5a6813          	ori	x16,x20,981
    3428:	c60dce93          	xori	x29,x27,-928
    342c:	02368e3b          	mulw	x28,x13,x3
    3430:	017c0633          	add	x12,x24,x23
    3434:	f5108d93          	addi	x27,x1,-175
    3438:	016d80b3          	add	x1,x27,x22
    343c:	03b26e3b          	remw	x28,x4,x27
    3440:	02866a33          	rem	x20,x12,x8
    3444:	039258b3          	divu	x17,x4,x25
    3448:	033a56b3          	divu	x13,x20,x19
    344c:	02fc07b3          	mul	x15,x24,x15
    3450:	00dc4333          	xor	x6,x24,x13
    3454:	19544113          	xori	x2,x8,405
    3458:	d685889b          	addiw	x17,x11,-664
    345c:	005e4333          	xor	x6,x28,x5
    3460:	03370ebb          	mulw	x29,x14,x19
    3464:	009ff333          	and	x6,x31,x9
    3468:	0356083b          	mulw	x16,x12,x21
    346c:	02b8073b          	mulw	x14,x16,x11
    3470:	037b4b33          	div	x22,x22,x23
    3474:	03f8f8b3          	remu	x17,x17,x31
    3478:	02e44e3b          	divw	x28,x8,x14
    347c:	01a80733          	add	x14,x16,x26
    3480:	03137533          	remu	x10,x6,x17
    3484:	032cdd33          	divu	x26,x25,x18
    3488:	020ed7b3          	divu	x15,x29,x0
    348c:	02505433          	divu	x8,x0,x5
    3490:	3c0c8313          	addi	x6,x25,960
    3494:	02a47ebb          	remuw	x29,x8,x10
    3498:	0257deb3          	divu	x29,x15,x5
    349c:	00d84bb3          	xor	x23,x16,x13
    34a0:	59a54e13          	xori	x28,x10,1434
    34a4:	8d497813          	andi	x16,x18,-1836
    34a8:	028865b3          	rem	x11,x16,x8
    34ac:	0305c73b          	divw	x14,x11,x16
    34b0:	8f25829b          	addiw	x5,x11,-1806
    34b4:	001be633          	or	x12,x23,x1
    34b8:	0213633b          	remw	x6,x6,x1
    34bc:	419e8e3b          	subw	x28,x29,x25
    34c0:	023d6b3b          	remw	x22,x26,x3
    34c4:	03d1c1b3          	div	x3,x3,x29
    34c8:	8d3dc313          	xori	x6,x27,-1837
    34cc:	022ad23b          	divuw	x4,x21,x2
    34d0:	41d5893b          	subw	x18,x11,x29
    34d4:	0382693b          	remw	x18,x4,x24
    34d8:	0224ca3b          	divw	x20,x9,x2
    34dc:	00a87233          	and	x4,x16,x10
    34e0:	03ca003b          	mulw	x0,x20,x28
    34e4:	010bc3b3          	xor	x7,x23,x16
    34e8:	0349713b          	remuw	x2,x18,x20
    34ec:	f3360193          	addi	x3,x12,-205
    34f0:	02a1f63b          	remuw	x12,x3,x10
    34f4:	009bf9b3          	and	x19,x23,x9
    34f8:	45600613          	li	x12,1110
    34fc:	949a4e13          	xori	x28,x20,-1719
    3500:	02677ab3          	remu	x21,x14,x6
    3504:	001f8233          	add	x4,x31,x1
    3508:	025ce233          	rem	x4,x25,x5
    350c:	03ea893b          	mulw	x18,x21,x30
    3510:	41800333          	neg	x6,x24
    3514:	db1df793          	andi	x15,x27,-591
    3518:	00a8f733          	and	x14,x17,x10
    351c:	14688613          	addi	x12,x17,326
    3520:	032044b3          	div	x9,x0,x18
    3524:	409907bb          	subw	x15,x18,x9
    3528:	40ef09bb          	subw	x19,x30,x14
    352c:	dc608e93          	addi	x29,x1,-570
    3530:	02c9ca33          	div	x20,x19,x12
    3534:	4090013b          	negw	x2,x9
    3538:	415a093b          	subw	x18,x20,x21
    353c:	bb188f9b          	addiw	x31,x17,-1103
    3540:	007287b3          	add	x15,x5,x7
    3544:	01e26cb3          	or	x25,x4,x30
    3548:	03014f33          	div	x30,x2,x16
    354c:	022d06bb          	mulw	x13,x26,x2
    3550:	0225d2bb          	divuw	x5,x11,x2
    3554:	0345f533          	remu	x10,x11,x20
    3558:	41330fb3          	sub	x31,x6,x19
    355c:	030d53b3          	divu	x7,x26,x16
    3560:	00198cb3          	add	x25,x19,x1
    3564:	0187f7b3          	and	x15,x15,x24
    3568:	03e8d13b          	divuw	x2,x17,x30
    356c:	01daef33          	or	x30,x21,x29
    3570:	03030cb3          	mul	x25,x6,x16
    3574:	13b5c893          	xori	x17,x11,315
    3578:	037f09b3          	mul	x19,x30,x23
    357c:	02aaf433          	remu	x8,x21,x10
    3580:	0a978393          	addi	x7,x15,169
    3584:	02e80b3b          	mulw	x22,x16,x14
    3588:	00d48c3b          	addw	x24,x9,x13
    358c:	b70d4593          	xori	x11,x26,-1168
    3590:	027ee43b          	remw	x8,x29,x7
    3594:	40e2873b          	subw	x14,x5,x14
    3598:	93936513          	ori	x10,x6,-1735
    359c:	02f358b3          	divu	x17,x6,x15
    35a0:	0324ed3b          	remw	x26,x9,x18
    35a4:	02eaf833          	remu	x16,x21,x14
    35a8:	02abd7b3          	divu	x15,x23,x10
    35ac:	40410133          	sub	x2,x2,x4
    35b0:	02d46c33          	rem	x24,x8,x13
    35b4:	028c02bb          	mulw	x5,x24,x8
    35b8:	415002b3          	neg	x5,x21
    35bc:	0209f1b3          	remu	x3,x19,x0
    35c0:	034b7133          	remu	x2,x22,x20
    35c4:	417b8133          	sub	x2,x23,x23
    35c8:	2efc899b          	addiw	x19,x25,751
    35cc:	411586b3          	sub	x13,x11,x17
    35d0:	40850e33          	sub	x28,x10,x8
    35d4:	0071cc33          	xor	x24,x3,x7
    35d8:	02ee7a33          	remu	x20,x28,x14
    35dc:	038179bb          	remuw	x19,x2,x24
    35e0:	035c6c33          	rem	x24,x24,x21
    35e4:	0305ce3b          	divw	x28,x11,x16
    35e8:	413482b3          	sub	x5,x9,x19
    35ec:	02ba4033          	div	x0,x20,x11
    35f0:	035c723b          	remuw	x4,x24,x21
    35f4:	c7c30213          	addi	x4,x6,-900
    35f8:	032bca33          	div	x20,x23,x18
    35fc:	02a9f333          	remu	x6,x19,x10
    3600:	79be0d9b          	addiw	x27,x28,1947
    3604:	03267f33          	remu	x30,x12,x18
    3608:	027a40b3          	div	x1,x20,x7
    360c:	b8740b13          	addi	x22,x8,-1145
    3610:	039f7c3b          	remuw	x24,x30,x25
    3614:	020b44b3          	div	x9,x22,x0
    3618:	022a5fbb          	divuw	x31,x20,x2
    361c:	48e86013          	ori	x0,x16,1166
    3620:	00564333          	xor	x6,x12,x5
    3624:	02b585b3          	mul	x11,x11,x11
    3628:	40ab823b          	subw	x4,x23,x10
    362c:	0343cdb3          	div	x27,x7,x20
    3630:	2633cc93          	xori	x25,x7,611
    3634:	0321fabb          	remuw	x21,x3,x18
    3638:	0151e333          	or	x6,x3,x21
    363c:	25d74493          	xori	x9,x14,605
    3640:	02676fbb          	remw	x31,x14,x6
    3644:	0217f4bb          	remuw	x9,x15,x1
    3648:	414c01b3          	sub	x3,x24,x20
    364c:	03ef6e3b          	remw	x28,x30,x30
    3650:	01db0933          	add	x18,x22,x29
    3654:	016e00bb          	addw	x1,x28,x22
    3658:	003384b3          	add	x9,x7,x3
    365c:	23eec013          	xori	x0,x29,574
    3660:	03065a33          	divu	x20,x12,x16
    3664:	02266e3b          	remw	x28,x12,x2
    3668:	031d5f3b          	divuw	x30,x26,x17
    366c:	4249eb93          	ori	x23,x19,1060
    3670:	019fcf33          	xor	x30,x31,x25
    3674:	03a00c33          	mul	x24,x0,x26
    3678:	00bfc933          	xor	x18,x31,x11
    367c:	031444b3          	div	x9,x8,x17
    3680:	03e25133          	divu	x2,x4,x30
    3684:	3a2b6293          	ori	x5,x22,930
    3688:	0349c33b          	divw	x6,x19,x20
    368c:	033be53b          	remw	x10,x23,x19
    3690:	0399eab3          	rem	x21,x19,x25
    3694:	03ff8c3b          	mulw	x24,x31,x31
    3698:	24587e13          	andi	x28,x16,581
    369c:	037e40b3          	div	x1,x28,x23
    36a0:	03bac7b3          	div	x15,x21,x27
    36a4:	21b84593          	xori	x11,x16,539
    36a8:	02530133          	mul	x2,x6,x5
    36ac:	011a0f33          	add	x30,x20,x17
    36b0:	40580933          	sub	x18,x16,x5
    36b4:	0209f2bb          	remuw	x5,x19,x0
    36b8:	ff6a0e93          	addi	x29,x20,-10
    36bc:	e8507513          	andi	x10,x0,-379
    36c0:	4e880e1b          	addiw	x28,x16,1256
    36c4:	034767b3          	rem	x15,x14,x20
    36c8:	4375ef93          	ori	x31,x11,1079
    36cc:	033f03bb          	mulw	x7,x30,x19
    36d0:	0396f4b3          	remu	x9,x13,x25
    36d4:	41500d3b          	negw	x26,x21
    36d8:	02c0ee3b          	remw	x28,x1,x12
    36dc:	210bcb93          	xori	x23,x23,528
    36e0:	00efc933          	xor	x18,x31,x14
    36e4:	022077b3          	remu	x15,x0,x2
    36e8:	01a3edb3          	or	x27,x7,x26
    36ec:	db96fd13          	andi	x26,x13,-583
    36f0:	0034c5b3          	xor	x11,x9,x3
    36f4:	0302f8bb          	remuw	x17,x5,x16
    36f8:	027f76bb          	remuw	x13,x30,x7
    36fc:	a07ee813          	ori	x16,x29,-1529
    3700:	024d8bbb          	mulw	x23,x27,x4
    3704:	27ce8313          	addi	x6,x29,636
    3708:	030f7533          	remu	x10,x30,x16
    370c:	0397e7b3          	rem	x15,x15,x25
    3710:	021c7233          	remu	x4,x24,x1
    3714:	7255f113          	andi	x2,x11,1829
    3718:	40800a33          	neg	x20,x8
    371c:	036bd633          	divu	x12,x23,x22
    3720:	b27bec13          	ori	x24,x23,-1241
    3724:	446bc093          	xori	x1,x23,1094
    3728:	0393053b          	mulw	x10,x6,x25
    372c:	038f65b3          	rem	x11,x30,x24
    3730:	01347733          	and	x14,x8,x19
    3734:	02a48cbb          	mulw	x25,x9,x10
    3738:	03c34fb3          	div	x31,x6,x28
    373c:	01230033          	add	x0,x6,x18
    3740:	41b78133          	sub	x2,x15,x27
    3744:	03e4f7b3          	remu	x15,x9,x30
    3748:	0233ef3b          	remw	x30,x7,x3
    374c:	03c85333          	divu	x6,x16,x28
    3750:	ed257593          	andi	x11,x10,-302
    3754:	4032013b          	subw	x2,x4,x3
    3758:	00f982bb          	addw	x5,x19,x15
    375c:	019e4b33          	xor	x22,x28,x25
    3760:	74140713          	addi	x14,x8,1857
    3764:	e0ea6813          	ori	x16,x20,-498
    3768:	010ac233          	xor	x4,x21,x16
    376c:	419f86bb          	subw	x13,x31,x25
    3770:	03cd4733          	div	x14,x26,x28
    3774:	007f0433          	add	x8,x30,x7
    3778:	03a48c3b          	mulw	x24,x9,x26
    377c:	5012891b          	addiw	x18,x5,1281
    3780:	d6668393          	addi	x7,x13,-666
    3784:	403f8533          	sub	x10,x31,x3
    3788:	036c84b3          	mul	x9,x25,x22
    378c:	03d70133          	mul	x2,x14,x29
    3790:	c4aa6493          	ori	x9,x20,-950
    3794:	0386f5bb          	remuw	x11,x13,x24
    3798:	03abffb3          	remu	x31,x23,x26
    379c:	2b00fc93          	andi	x25,x1,688
    37a0:	020ff83b          	remuw	x16,x31,x0
    37a4:	40b48533          	sub	x10,x9,x11
    37a8:	6d150d13          	addi	x26,x10,1745
    37ac:	02e0c733          	div	x14,x1,x14
    37b0:	00f7f633          	and	x12,x15,x15
    37b4:	027dcfb3          	div	x31,x27,x7
    37b8:	01c94033          	xor	x0,x18,x28
    37bc:	41750433          	sub	x8,x10,x23
    37c0:	03e18b33          	mul	x22,x3,x30
    37c4:	12586713          	ori	x14,x16,293
    37c8:	1e717393          	andi	x7,x2,487
    37cc:	0310e9bb          	remw	x19,x1,x17
    37d0:	3888c713          	xori	x14,x17,904
    37d4:	ff18061b          	addiw	x12,x16,-15
    37d8:	b00aed93          	ori	x27,x21,-1280
    37dc:	00b905b3          	add	x11,x18,x11
    37e0:	0392d13b          	divuw	x2,x5,x25
    37e4:	6f370793          	addi	x15,x14,1779
    37e8:	0373023b          	mulw	x4,x6,x23
    37ec:	02dce7b3          	rem	x15,x25,x13
    37f0:	008d70b3          	and	x1,x26,x8
    37f4:	02ecf1b3          	remu	x3,x25,x14
    37f8:	002aff33          	and	x30,x21,x2
    37fc:	02c4e433          	rem	x8,x9,x12
    3800:	036f8933          	mul	x18,x31,x22
    3804:	8d7c0b13          	addi	x22,x24,-1833
    3808:	02660d33          	mul	x26,x12,x6
    380c:	9b4d821b          	addiw	x4,x27,-1612
    3810:	025c7ebb          	remuw	x29,x24,x5
    3814:	ba7e7613          	andi	x12,x28,-1113
    3818:	e3ccca93          	xori	x21,x25,-452
    381c:	032f6bb3          	rem	x23,x30,x18
    3820:	03d9f6b3          	remu	x13,x19,x29
    3824:	6019c013          	xori	x0,x19,1537
    3828:	41750333          	sub	x6,x10,x23
    382c:	375c6a93          	ori	x21,x24,885
    3830:	019ccc33          	xor	x24,x25,x25
    3834:	038457bb          	divuw	x15,x8,x24
    3838:	02fceabb          	remw	x21,x25,x15
    383c:	018b8f3b          	addw	x30,x23,x24
    3840:	0140ef33          	or	x30,x1,x20
    3844:	02d3cf3b          	divw	x30,x7,x13
    3848:	008c7033          	and	x0,x24,x8
    384c:	001d8933          	add	x18,x27,x1
    3850:	034606b3          	mul	x13,x12,x20
    3854:	00380eb3          	add	x29,x16,x3
    3858:	035e69b3          	rem	x19,x28,x21
    385c:	0041e233          	or	x4,x3,x4
    3860:	00470fb3          	add	x31,x14,x4
    3864:	02660ebb          	mulw	x29,x12,x6
    3868:	0ee5889b          	addiw	x17,x11,238
    386c:	02bfe13b          	remw	x2,x31,x11
    3870:	029386b3          	mul	x13,x7,x9
    3874:	00dc4333          	xor	x6,x24,x13
    3878:	01196833          	or	x16,x18,x17
    387c:	f583e793          	ori	x15,x7,-168
    3880:	282b8f9b          	addiw	x31,x23,642
    3884:	011782b3          	add	x5,x15,x17
    3888:	03ae6ebb          	remw	x29,x28,x26
    388c:	d057e213          	ori	x4,x15,-763
    3890:	b81a0e9b          	addiw	x29,x20,-1151
    3894:	410389bb          	subw	x19,x7,x16
    3898:	0334e4b3          	rem	x9,x9,x19
    389c:	0391d0b3          	divu	x1,x3,x25
    38a0:	36527213          	andi	x4,x4,869
    38a4:	0190ff33          	and	x30,x1,x25
    38a8:	39766213          	ori	x4,x12,919
    38ac:	03f081bb          	mulw	x3,x1,x31
    38b0:	03695b33          	divu	x22,x18,x22
    38b4:	02ec0933          	mul	x18,x24,x14
    38b8:	46b88e1b          	addiw	x28,x17,1131
    38bc:	03a65eb3          	divu	x29,x12,x26
    38c0:	0331613b          	remw	x2,x2,x19
    38c4:	006afcb3          	and	x25,x21,x6
    38c8:	0748c313          	xori	x6,x17,116
    38cc:	022c563b          	divuw	x12,x24,x2
    38d0:	03fb03bb          	mulw	x7,x22,x31
    38d4:	0343f3b3          	remu	x7,x7,x20
    38d8:	607ff313          	andi	x6,x31,1543
    38dc:	0021083b          	addw	x16,x2,x2
    38e0:	de5ff713          	andi	x14,x31,-539
    38e4:	02e24eb3          	div	x29,x4,x14
    38e8:	03d38ebb          	mulw	x29,x7,x29
    38ec:	9597fa93          	andi	x21,x15,-1703
    38f0:	00d18c3b          	addw	x24,x3,x13
    38f4:	02bdd633          	divu	x12,x27,x11
    38f8:	031fcab3          	div	x21,x31,x17
    38fc:	02cdd8b3          	divu	x17,x27,x12
    3900:	03260c3b          	mulw	x24,x12,x18
    3904:	4487091b          	addiw	x18,x14,1096
    3908:	038d783b          	remuw	x16,x26,x24
    390c:	03c1c63b          	divw	x12,x3,x28
    3910:	01850bbb          	addw	x23,x10,x24
    3914:	017aedb3          	or	x27,x21,x23
    3918:	fa0ecb93          	xori	x23,x29,-96
    391c:	d3957b93          	andi	x23,x10,-711
    3920:	00b986bb          	addw	x13,x19,x11
    3924:	028d88b3          	mul	x17,x27,x8
    3928:	031c40bb          	divw	x1,x24,x17
    392c:	0271fb3b          	remuw	x22,x3,x7
    3930:	e0c46713          	ori	x14,x8,-500
    3934:	239f0c9b          	addiw	x25,x30,569
    3938:	01a6eab3          	or	x21,x13,x26
    393c:	03c36033          	rem	x0,x6,x28
    3940:	002af633          	and	x12,x21,x2
    3944:	4ef6fe93          	andi	x29,x13,1263
    3948:	46dece13          	xori	x28,x29,1133
    394c:	5f7f0e13          	addi	x28,x30,1527
    3950:	bde77b93          	andi	x23,x14,-1058
    3954:	02df5c3b          	divuw	x24,x30,x13
    3958:	00080dbb          	addw	x27,x16,x0
    395c:	032f47b3          	div	x15,x30,x18
    3960:	a200061b          	addiw	x12,x0,-1504
    3964:	02aded33          	rem	x26,x27,x10
    3968:	002d86b3          	add	x13,x27,x2
    396c:	0073cd33          	xor	x26,x7,x7
    3970:	01068633          	add	x12,x13,x16
    3974:	03cdf133          	remu	x2,x27,x28
    3978:	402a063b          	subw	x12,x20,x2
    397c:	41854b93          	xori	x23,x10,1048
    3980:	0229d833          	divu	x16,x19,x2
    3984:	027982bb          	mulw	x5,x19,x7
    3988:	02eaf8bb          	remuw	x17,x21,x14
    398c:	00027733          	and	x14,x4,x0
    3990:	034a78b3          	remu	x17,x20,x20
    3994:	03390c33          	mul	x24,x18,x19
    3998:	40120d3b          	subw	x26,x4,x1
    399c:	02bb853b          	mulw	x10,x23,x11
    39a0:	a6e4fb13          	andi	x22,x9,-1426
    39a4:	00af86b3          	add	x13,x31,x10
    39a8:	02af643b          	remw	x8,x30,x10
    39ac:	cffa7c13          	andi	x24,x20,-769
    39b0:	023888b3          	mul	x17,x17,x3
    39b4:	0308d633          	divu	x12,x17,x16
    39b8:	024940b3          	div	x1,x18,x4
    39bc:	002b4333          	xor	x6,x22,x2
    39c0:	ef1f0893          	addi	x17,x30,-271
    39c4:	000d4db3          	xor	x27,x26,x0
    39c8:	01da843b          	addw	x8,x21,x29
    39cc:	02c208b3          	mul	x17,x4,x12
    39d0:	00948f3b          	addw	x30,x9,x9
    39d4:	0286f13b          	remuw	x2,x13,x8
    39d8:	00d9053b          	addw	x10,x18,x13
    39dc:	02ccf233          	remu	x4,x25,x12
    39e0:	92584593          	xori	x11,x16,-1755
    39e4:	40010db3          	sub	x27,x2,x0
    39e8:	5ba40913          	addi	x18,x8,1466
    39ec:	03c1c63b          	divw	x12,x3,x28
    39f0:	002c0ab3          	add	x21,x24,x2
    39f4:	01efc2b3          	xor	x5,x31,x30
    39f8:	014e8fb3          	add	x31,x29,x20
    39fc:	02f17f3b          	remuw	x30,x2,x15
    3a00:	03d677bb          	remuw	x15,x12,x29
    3a04:	40ec803b          	subw	x0,x25,x14
    3a08:	5e324913          	xori	x18,x4,1507
    3a0c:	c33c6b13          	ori	x22,x24,-973
    3a10:	a03b7893          	andi	x17,x22,-1533
    3a14:	01e78433          	add	x8,x15,x30
    3a18:	008141b3          	xor	x3,x2,x8
    3a1c:	41088333          	sub	x6,x17,x16
    3a20:	f9698813          	addi	x16,x19,-106
    3a24:	401b07b3          	sub	x15,x22,x1
    3a28:	03945a33          	divu	x20,x8,x25
    3a2c:	ea636b13          	ori	x22,x6,-346
    3a30:	415283b3          	sub	x7,x5,x21
    3a34:	00cecbb3          	xor	x23,x29,x12
    3a38:	020bcf3b          	divw	x30,x23,x0
    3a3c:	028c74bb          	remuw	x9,x24,x8
    3a40:	01c309b3          	add	x19,x6,x28
    3a44:	022361bb          	remw	x3,x6,x2
    3a48:	01680b3b          	addw	x22,x16,x22
    3a4c:	03078833          	mul	x16,x15,x16
    3a50:	02da46b3          	div	x13,x20,x13
    3a54:	025344b3          	div	x9,x6,x5
    3a58:	03e4043b          	mulw	x8,x8,x30
    3a5c:	0332f53b          	remuw	x10,x5,x19
    3a60:	0204533b          	divuw	x6,x8,x0
    3a64:	27140813          	addi	x16,x8,625
    3a68:	00eefdb3          	and	x27,x29,x14
    3a6c:	01f64d33          	xor	x26,x12,x31
    3a70:	e8e46113          	ori	x2,x8,-370
    3a74:	d1dcfd93          	andi	x27,x25,-739
    3a78:	0201ebbb          	remw	x23,x3,x0
    3a7c:	02c6f2bb          	remuw	x5,x13,x12
    3a80:	1e7e6b93          	ori	x23,x28,487
    3a84:	0027e1b3          	or	x3,x15,x2
    3a88:	03f6ec3b          	remw	x24,x13,x31
    3a8c:	032a7c33          	remu	x24,x20,x18
    3a90:	d442ff93          	andi	x31,x5,-700
    3a94:	01698bb3          	add	x23,x19,x22
    3a98:	63f5039b          	addiw	x7,x10,1599
    3a9c:	401601b3          	sub	x3,x12,x1
    3aa0:	009575b3          	and	x11,x10,x9
    3aa4:	02c1743b          	remuw	x8,x2,x12
    3aa8:	58f90713          	addi	x14,x18,1423
    3aac:	021974bb          	remuw	x9,x18,x1
    3ab0:	03374b3b          	divw	x22,x14,x19
    3ab4:	03ff723b          	remuw	x4,x30,x31
    3ab8:	02d004b3          	mul	x9,x0,x13
    3abc:	b71e7793          	andi	x15,x28,-1167
    3ac0:	408282bb          	subw	x5,x5,x8
    3ac4:	03e5f3b3          	remu	x7,x11,x30
    3ac8:	40910db3          	sub	x27,x2,x9
    3acc:	f176f793          	andi	x15,x13,-233
    3ad0:	40b38dbb          	subw	x27,x7,x11
    3ad4:	0373febb          	remuw	x29,x7,x23
    3ad8:	0217c4b3          	div	x9,x15,x1
    3adc:	021378bb          	remuw	x17,x6,x1
    3ae0:	01c3e733          	or	x14,x7,x28
    3ae4:	03e8f6b3          	remu	x13,x17,x30
    3ae8:	77cd7713          	andi	x14,x26,1916
    3aec:	e4b3c793          	xori	x15,x7,-437
    3af0:	02b10a3b          	mulw	x20,x2,x11
    3af4:	038cc0bb          	divw	x1,x25,x24
    3af8:	00a6043b          	addw	x8,x12,x10
    3afc:	03117f3b          	remuw	x30,x2,x17
    3b00:	06a8fe93          	andi	x29,x17,106
    3b04:	027e473b          	divw	x14,x28,x7
    3b08:	026249b3          	div	x19,x4,x6
    3b0c:	000b063b          	addw	x12,x22,x0
    3b10:	4106823b          	subw	x4,x13,x16
    3b14:	03f6633b          	remw	x6,x12,x31
    3b18:	01e10a33          	add	x20,x2,x30
    3b1c:	02c56db3          	rem	x27,x10,x12
    3b20:	0384dcbb          	divuw	x25,x9,x24
    3b24:	029c5a3b          	divuw	x20,x24,x9
    3b28:	026efcbb          	remuw	x25,x29,x6
    3b2c:	0267df33          	divu	x30,x15,x6
    3b30:	40ee0d3b          	subw	x26,x28,x14
    3b34:	0291febb          	remuw	x29,x3,x9
    3b38:	03e288bb          	mulw	x17,x5,x30
    3b3c:	da456c13          	ori	x24,x10,-604
    3b40:	02e2ceb3          	div	x29,x5,x14
    3b44:	02a4e03b          	remw	x0,x9,x10
    3b48:	01fc0233          	add	x4,x24,x31
    3b4c:	01dae0b3          	or	x1,x21,x29
    3b50:	0236ff33          	remu	x30,x13,x3
    3b54:	021059bb          	divuw	x19,x0,x1
    3b58:	030bc23b          	divw	x4,x23,x16
    3b5c:	41cd8b3b          	subw	x22,x27,x28
    3b60:	016d76b3          	and	x13,x26,x22
    3b64:	01ae0ab3          	add	x21,x28,x26
    3b68:	02c7d33b          	divuw	x6,x15,x12
    3b6c:	032a7d3b          	remuw	x26,x20,x18
    3b70:	024661b3          	rem	x3,x12,x4
    3b74:	00486433          	or	x8,x16,x4
    3b78:	0387e6b3          	rem	x13,x15,x24
    3b7c:	3ddf6113          	ori	x2,x30,989
    3b80:	cccf6c93          	ori	x25,x30,-820
    3b84:	018c0f3b          	addw	x30,x24,x24
    3b88:	bd6a6c93          	ori	x25,x20,-1066
    3b8c:	014174b3          	and	x9,x2,x20
    3b90:	011648b3          	xor	x17,x12,x17
    3b94:	01a2c4b3          	xor	x9,x5,x26
    3b98:	40120a13          	addi	x20,x4,1025 # 401 <_binary_lab1_extra_test_bin_start+0x401>
    3b9c:	0296653b          	remw	x10,x12,x9
    3ba0:	01914133          	xor	x2,x2,x25
    3ba4:	410f89bb          	subw	x19,x31,x16
    3ba8:	c319eb93          	ori	x23,x19,-975
    3bac:	034f4f33          	div	x30,x30,x20
    3bb0:	5e1a0d1b          	addiw	x26,x20,1505
    3bb4:	008a8f33          	add	x30,x21,x8
    3bb8:	02d76ab3          	rem	x21,x14,x13
    3bbc:	41e205bb          	subw	x11,x4,x30
    3bc0:	033ecdb3          	div	x27,x29,x19
    3bc4:	02b6cc3b          	divw	x24,x13,x11
    3bc8:	0325e333          	rem	x6,x11,x18
    3bcc:	41c88f3b          	subw	x30,x17,x28
    3bd0:	29b14193          	xori	x3,x2,667
    3bd4:	0328f63b          	remuw	x12,x17,x18
    3bd8:	013a8a33          	add	x20,x21,x19
    3bdc:	00fbf933          	and	x18,x23,x15
    3be0:	76948613          	addi	x12,x9,1897
    3be4:	00dde2b3          	or	x5,x27,x13
    3be8:	8c84ce13          	xori	x28,x9,-1848
    3bec:	0299683b          	remw	x16,x18,x9
    3bf0:	023e8abb          	mulw	x21,x29,x3
    3bf4:	02827e33          	remu	x28,x4,x8
    3bf8:	005485bb          	addw	x11,x9,x5
    3bfc:	03c80333          	mul	x6,x16,x28
    3c00:	02b4c0bb          	divw	x1,x9,x11
    3c04:	3dd4001b          	addiw	x0,x8,989
    3c08:	012ee1b3          	or	x3,x29,x18
    3c0c:	01268bb3          	add	x23,x13,x18
    3c10:	03d206b3          	mul	x13,x4,x29
    3c14:	03b6d13b          	divuw	x2,x13,x27
    3c18:	daf86513          	ori	x10,x16,-593
    3c1c:	90530493          	addi	x9,x6,-1787
    3c20:	0bb0cd93          	xori	x27,x1,187
    3c24:	03984a33          	div	x20,x16,x25
    3c28:	dae34e13          	xori	x28,x6,-594
    3c2c:	0104ef33          	or	x30,x9,x16
    3c30:	0351d8b3          	divu	x17,x3,x21
    3c34:	02737233          	remu	x4,x6,x7
    3c38:	026bdcbb          	divuw	x25,x23,x6
    3c3c:	029af113          	andi	x2,x21,41
    3c40:	038305bb          	mulw	x11,x6,x24
    3c44:	017662b3          	or	x5,x12,x23
    3c48:	00884f33          	xor	x30,x16,x8
    3c4c:	01497bb3          	and	x23,x18,x20
    3c50:	88cd0c13          	addi	x24,x26,-1908
    3c54:	014e8db3          	add	x27,x29,x20
    3c58:	02cfe133          	rem	x2,x31,x12
    3c5c:	41330db3          	sub	x27,x6,x19
    3c60:	01d24eb3          	xor	x29,x4,x29
    3c64:	01490ebb          	addw	x29,x18,x20
    3c68:	00d0fdb3          	and	x27,x1,x13
    3c6c:	03fb86b3          	mul	x13,x23,x31
    3c70:	02250f3b          	mulw	x30,x10,x2
    3c74:	0288c833          	div	x16,x17,x8
    3c78:	02ecdc33          	divu	x24,x25,x14
    3c7c:	0139f433          	and	x8,x19,x19
    3c80:	b2034093          	xori	x1,x6,-1248
    3c84:	f875c493          	xori	x9,x11,-121
    3c88:	017080b3          	add	x1,x1,x23
    3c8c:	02277ab3          	remu	x21,x14,x2
    3c90:	02bed4bb          	divuw	x9,x29,x11
    3c94:	028a4eb3          	div	x29,x20,x8
    3c98:	e592019b          	addiw	x3,x4,-423 # fffffffffffffe59 <_binary_lab1_extra_test_bin_end+0xfffffffffffdfe39>
    3c9c:	20596513          	ori	x10,x18,517
    3ca0:	017d8cbb          	addw	x25,x27,x23
    3ca4:	901dfb93          	andi	x23,x27,-1791
    3ca8:	af6f6f13          	ori	x30,x30,-1290
    3cac:	2d5e0e9b          	addiw	x29,x28,725
    3cb0:	41ccee13          	ori	x28,x25,1052
    3cb4:	00858bbb          	addw	x23,x11,x8
    3cb8:	40b18eb3          	sub	x29,x3,x11
    3cbc:	03437bbb          	remuw	x23,x6,x20
    3cc0:	0355c6bb          	divw	x13,x11,x21
    3cc4:	03e105bb          	mulw	x11,x2,x30
    3cc8:	01fae0b3          	or	x1,x21,x31
    3ccc:	02f20633          	mul	x12,x4,x15
    3cd0:	41100433          	neg	x8,x17
    3cd4:	032e81bb          	mulw	x3,x29,x18
    3cd8:	418f8eb3          	sub	x29,x31,x24
    3cdc:	012eeab3          	or	x21,x29,x18
    3ce0:	00934ab3          	xor	x21,x6,x9
    3ce4:	00dd70b3          	and	x1,x26,x13
    3ce8:	0118efb3          	or	x31,x17,x17
    3cec:	026a7033          	remu	x0,x20,x6
    3cf0:	03e772b3          	remu	x5,x14,x30
    3cf4:	40cf86b3          	sub	x13,x31,x12
    3cf8:	03b30233          	mul	x4,x6,x27
    3cfc:	011e88bb          	addw	x17,x29,x17
    3d00:	0f624c13          	xori	x24,x4,246
    3d04:	0029c033          	xor	x0,x19,x2
    3d08:	03824db3          	div	x27,x4,x24
    3d0c:	0388d3b3          	divu	x7,x17,x24
    3d10:	0051cab3          	xor	x21,x3,x5
    3d14:	c6074293          	xori	x5,x14,-928
    3d18:	4ac64a93          	xori	x21,x12,1196
    3d1c:	b7bc4a13          	xori	x20,x24,-1157
    3d20:	008a0fb3          	add	x31,x20,x8
    3d24:	03c9863b          	mulw	x12,x19,x28
    3d28:	00ca7633          	and	x12,x20,x12
    3d2c:	0241f833          	remu	x16,x3,x4
    3d30:	02c48ebb          	mulw	x29,x9,x12
    3d34:	01b08f33          	add	x30,x1,x27
    3d38:	126e0813          	addi	x16,x28,294
    3d3c:	02948933          	mul	x18,x9,x9
    3d40:	017a013b          	addw	x2,x20,x23
    3d44:	40ec08bb          	subw	x17,x24,x14
    3d48:	26daf813          	andi	x16,x21,621
    3d4c:	02586a3b          	remw	x20,x16,x5
    3d50:	0f5d041b          	addiw	x8,x26,245
    3d54:	02405a3b          	divuw	x20,x0,x4
    3d58:	0188843b          	addw	x8,x17,x24
    3d5c:	03497dbb          	remuw	x27,x18,x20
    3d60:	02fcff3b          	remuw	x30,x25,x15
    3d64:	8d514f93          	xori	x31,x2,-1835
    3d68:	026477b3          	remu	x15,x8,x6
    3d6c:	03f8f0bb          	remuw	x1,x17,x31
    3d70:	80510c9b          	addiw	x25,x2,-2043
    3d74:	0234c7b3          	div	x15,x9,x3
    3d78:	7b7ce513          	ori	x10,x25,1975
    3d7c:	02b1e333          	rem	x6,x3,x11
    3d80:	03a484b3          	mul	x9,x9,x26
    3d84:	01dec933          	xor	x18,x29,x29
    3d88:	0104f133          	and	x2,x9,x16
    3d8c:	405b013b          	subw	x2,x22,x5
    3d90:	009b0bbb          	addw	x23,x22,x9
    3d94:	022becbb          	remw	x25,x23,x2
    3d98:	00d080bb          	addw	x1,x1,x13
    3d9c:	014288b3          	add	x17,x5,x20
    3da0:	02fd5a3b          	divuw	x20,x26,x15
    3da4:	02478633          	mul	x12,x15,x4
    3da8:	034d7ebb          	remuw	x29,x26,x20
    3dac:	5ec3ec13          	ori	x24,x7,1516
    3db0:	0240c633          	div	x12,x1,x4
    3db4:	030f5633          	divu	x12,x30,x16
    3db8:	02e9cdbb          	divw	x27,x19,x14
    3dbc:	032f5dbb          	divuw	x27,x30,x18
    3dc0:	039c673b          	remw	x14,x24,x25
    3dc4:	0153ec33          	or	x24,x7,x21
    3dc8:	033d77bb          	remuw	x15,x26,x19
    3dcc:	40f90533          	sub	x10,x18,x15
    3dd0:	02958ab3          	mul	x21,x11,x9
    3dd4:	0378693b          	remw	x18,x16,x23
    3dd8:	03068abb          	mulw	x21,x13,x16
    3ddc:	02ce74bb          	remuw	x9,x28,x12
    3de0:	03bee0b3          	rem	x1,x29,x27
    3de4:	00ac823b          	addw	x4,x25,x10
    3de8:	035cef33          	rem	x30,x25,x21
    3dec:	c6b5f813          	andi	x16,x11,-917
    3df0:	f13a851b          	addiw	x10,x21,-237
    3df4:	006cf5b3          	and	x11,x25,x6
    3df8:	777d7a93          	andi	x21,x26,1911
    3dfc:	02bd4f33          	div	x30,x26,x11
    3e00:	419281b3          	sub	x3,x5,x25
    3e04:	0393603b          	remw	x0,x6,x25
    3e08:	00edca33          	xor	x20,x27,x14
    3e0c:	407a0cbb          	subw	x25,x20,x7
    3e10:	014a08bb          	addw	x17,x20,x20
    3e14:	02c84e33          	div	x28,x16,x12
    3e18:	03e4c5bb          	divw	x11,x9,x30
    3e1c:	cf3cc513          	xori	x10,x25,-781
    3e20:	038c5fbb          	divuw	x31,x24,x24
    3e24:	02c7403b          	divw	x0,x14,x12
    3e28:	564e8f93          	addi	x31,x29,1380
    3e2c:	02fecbb3          	div	x23,x29,x15
    3e30:	a1d87e93          	andi	x29,x16,-1507
    3e34:	026dc73b          	divw	x14,x27,x6
    3e38:	038e8933          	mul	x18,x29,x24
    3e3c:	006eebb3          	or	x23,x29,x6
    3e40:	00ebf733          	and	x14,x23,x14
    3e44:	007e63b3          	or	x7,x28,x7
    3e48:	0182883b          	addw	x16,x5,x24
    3e4c:	00388bb3          	add	x23,x17,x3
    3e50:	01b181b3          	add	x3,x3,x27
    3e54:	61d9e713          	ori	x14,x19,1565
    3e58:	01d26ab3          	or	x21,x4,x29
    3e5c:	40338d3b          	subw	x26,x7,x3
    3e60:	0356f433          	remu	x8,x13,x21
    3e64:	d277c513          	xori	x10,x15,-729
    3e68:	025f76b3          	remu	x13,x30,x5
    3e6c:	e3b90e93          	addi	x29,x18,-453
    3e70:	17f18593          	addi	x11,x3,383
    3e74:	031c55bb          	divuw	x11,x24,x17
    3e78:	0096ec33          	or	x24,x13,x9
    3e7c:	02ea873b          	mulw	x14,x21,x14
    3e80:	0203e0bb          	remw	x1,x7,x0
    3e84:	0313763b          	remuw	x12,x6,x17
    3e88:	009ac5b3          	xor	x11,x21,x9
    3e8c:	00507db3          	and	x27,x0,x5
    3e90:	40a30f33          	sub	x30,x6,x10
    3e94:	035f0c3b          	mulw	x24,x30,x21
    3e98:	02e26733          	rem	x14,x4,x14
    3e9c:	02fde7bb          	remw	x15,x27,x15
    3ea0:	03d7c133          	div	x2,x15,x29
    3ea4:	00a6e4b3          	or	x9,x13,x10
    3ea8:	a6858b93          	addi	x23,x11,-1432
    3eac:	02f605bb          	mulw	x11,x12,x15
    3eb0:	861a0893          	addi	x17,x20,-1951
    3eb4:	40d4013b          	subw	x2,x8,x13
    3eb8:	030d563b          	divuw	x12,x26,x16
    3ebc:	000c78b3          	and	x17,x24,x0
    3ec0:	011f8db3          	add	x27,x31,x17
    3ec4:	034e70bb          	remuw	x1,x28,x20
    3ec8:	7fdaf093          	andi	x1,x21,2045
    3ecc:	02e172b3          	remu	x5,x2,x14
    3ed0:	d7966293          	ori	x5,x12,-647
    3ed4:	01e3863b          	addw	x12,x7,x30
    3ed8:	039a0a33          	mul	x20,x20,x25
    3edc:	031058b3          	divu	x17,x0,x17
    3ee0:	2826ec13          	ori	x24,x13,642
    3ee4:	0230dcbb          	divuw	x25,x1,x3
    3ee8:	41c40c33          	sub	x24,x8,x28
    3eec:	01530d33          	add	x26,x6,x21
    3ef0:	00437db3          	and	x27,x6,x4
    3ef4:	40ad8b3b          	subw	x22,x27,x10
    3ef8:	3373891b          	addiw	x18,x7,823
    3efc:	01eac0b3          	xor	x1,x21,x30
    3f00:	02c0ca3b          	divw	x20,x1,x12
    3f04:	026fee3b          	remw	x28,x31,x6
    3f08:	003e04b3          	add	x9,x28,x3
    3f0c:	01cdccb3          	xor	x25,x27,x28
    3f10:	029a0b33          	mul	x22,x20,x9
    3f14:	01358ebb          	addw	x29,x11,x19
    3f18:	03d966bb          	remw	x13,x18,x29
    3f1c:	417d82b3          	sub	x5,x27,x23
    3f20:	ed4f8813          	addi	x16,x31,-300
    3f24:	407c0b3b          	subw	x22,x24,x7
    3f28:	037c5f3b          	divuw	x30,x24,x23
    3f2c:	a958f593          	andi	x11,x17,-1387
    3f30:	40917393          	andi	x7,x2,1033
    3f34:	b40e7713          	andi	x14,x28,-1216
    3f38:	03fb77bb          	remuw	x15,x22,x31
    3f3c:	03d00c3b          	mulw	x24,x0,x29
    3f40:	c7f74993          	xori	x19,x14,-897
    3f44:	07a36e13          	ori	x28,x6,122
    3f48:	03ecef3b          	remw	x30,x25,x30
    3f4c:	1520001b          	addiw	x0,x0,338
    3f50:	41ff00bb          	subw	x1,x30,x31
    3f54:	02834fbb          	divw	x31,x6,x8
    3f58:	013261b3          	or	x3,x4,x19
    3f5c:	9c010293          	addi	x5,x2,-1600
    3f60:	037ff73b          	remuw	x14,x31,x23
    3f64:	4071093b          	subw	x18,x2,x7
    3f68:	24156713          	ori	x14,x10,577
    3f6c:	da327d93          	andi	x27,x4,-605
    3f70:	0397c0bb          	divw	x1,x15,x25
    3f74:	03f300bb          	mulw	x1,x6,x31
    3f78:	002c05b3          	add	x11,x24,x2
    3f7c:	e7b88913          	addi	x18,x17,-389
    3f80:	615bf413          	andi	x8,x23,1557
    3f84:	03e9443b          	divw	x8,x18,x30
    3f88:	bf790c9b          	addiw	x25,x18,-1033
    3f8c:	0094cc33          	xor	x24,x9,x9
    3f90:	e8f78b13          	addi	x22,x15,-369
    3f94:	41a80ab3          	sub	x21,x16,x26
    3f98:	0cdccf13          	xori	x30,x25,205
    3f9c:	0028c1b3          	xor	x3,x17,x2
    3fa0:	41540dbb          	subw	x27,x8,x21
    3fa4:	40f98eb3          	sub	x29,x19,x15
    3fa8:	02bff73b          	remuw	x14,x31,x11
    3fac:	41e38a3b          	subw	x20,x7,x30
    3fb0:	41c60d3b          	subw	x26,x12,x28
    3fb4:	03cccb3b          	divw	x22,x25,x28
    3fb8:	46ee071b          	addiw	x14,x28,1134
    3fbc:	0279e63b          	remw	x12,x19,x7
    3fc0:	02b171b3          	remu	x3,x2,x11
    3fc4:	02d78dbb          	mulw	x27,x15,x13
    3fc8:	40c08cbb          	subw	x25,x1,x12
    3fcc:	01f869b3          	or	x19,x16,x31
    3fd0:	403606b3          	sub	x13,x12,x3
    3fd4:	02ac57b3          	divu	x15,x24,x10
    3fd8:	0066ccb3          	xor	x25,x13,x6
    3fdc:	027305bb          	mulw	x11,x6,x7
    3fe0:	009489b3          	add	x19,x9,x9
    3fe4:	75220b1b          	addiw	x22,x4,1874 # 752 <_binary_lab1_extra_test_bin_start+0x752>
    3fe8:	d6454d93          	xori	x27,x10,-668
    3fec:	03658fbb          	mulw	x31,x11,x22
    3ff0:	e192091b          	addiw	x18,x4,-487 # fffffffffffffe19 <_binary_lab1_extra_test_bin_end+0xfffffffffffdfdf9>
    3ff4:	00ea42b3          	xor	x5,x20,x14
    3ff8:	002aea33          	or	x20,x21,x2
    3ffc:	028b8c3b          	mulw	x24,x23,x8
    4000:	dd170313          	addi	x6,x14,-559
    4004:	03e5dc3b          	divuw	x24,x11,x30
    4008:	0379f533          	remu	x10,x19,x23
    400c:	01864b33          	xor	x22,x12,x24
    4010:	03eb06bb          	mulw	x13,x22,x30
    4014:	41a70f33          	sub	x30,x14,x26
    4018:	03517933          	remu	x18,x2,x21
    401c:	13e8849b          	addiw	x9,x17,318
    4020:	030bf23b          	remuw	x4,x23,x16
    4024:	038d09bb          	mulw	x19,x26,x24
    4028:	0252ddbb          	divuw	x27,x5,x5
    402c:	8e2c8913          	addi	x18,x25,-1822
    4030:	c838011b          	addiw	x2,x16,-893
    4034:	016a853b          	addw	x10,x21,x22
    4038:	419d0733          	sub	x14,x26,x25
    403c:	9d456b13          	ori	x22,x10,-1580
    4040:	02a604b3          	mul	x9,x12,x10
    4044:	00b5e7b3          	or	x15,x11,x11
    4048:	40f60933          	sub	x18,x12,x15
    404c:	0e264613          	xori	x12,x12,226
    4050:	2b1d4513          	xori	x10,x26,689
    4054:	02a45133          	divu	x2,x8,x10
    4058:	036882bb          	mulw	x5,x17,x22
    405c:	01d48233          	add	x4,x9,x29
    4060:	024c4833          	div	x16,x24,x4
    4064:	8b827b93          	andi	x23,x4,-1864
    4068:	00cbc233          	xor	x4,x23,x12
    406c:	0211f73b          	remuw	x14,x3,x1
    4070:	0240c8bb          	divw	x17,x1,x4
    4074:	024048bb          	divw	x17,x0,x4
    4078:	03d1433b          	divw	x6,x2,x29
    407c:	01ac4a33          	xor	x20,x24,x26
    4080:	41540a33          	sub	x20,x8,x21
    4084:	4f9a4893          	xori	x17,x20,1273
    4088:	0010ccb3          	xor	x25,x1,x1
    408c:	038cd033          	divu	x0,x25,x24
    4090:	02624d33          	div	x26,x4,x6
    4094:	03768033          	mul	x0,x13,x23
    4098:	03ec4033          	div	x0,x24,x30
    409c:	601ff293          	andi	x5,x31,1537
    40a0:	0237593b          	divuw	x18,x14,x3
    40a4:	002ccdb3          	xor	x27,x25,x2
    40a8:	01e386b3          	add	x13,x7,x30
    40ac:	40b28fb3          	sub	x31,x5,x11
    40b0:	000e6333          	or	x6,x28,x0
    40b4:	02015433          	divu	x8,x2,x0
    40b8:	40968cbb          	subw	x25,x13,x9
    40bc:	02450233          	mul	x4,x10,x4
    40c0:	02e60fb3          	mul	x31,x12,x14
    40c4:	0273fbb3          	remu	x23,x7,x7
    40c8:	01bbf2b3          	and	x5,x23,x27
    40cc:	40528833          	sub	x16,x5,x5
    40d0:	021f6333          	rem	x6,x30,x1
    40d4:	026e0033          	mul	x0,x28,x6
    40d8:	40438f33          	sub	x30,x7,x4
    40dc:	01b1cab3          	xor	x21,x3,x27
    40e0:	02950133          	mul	x2,x10,x9
    40e4:	0320ec33          	rem	x24,x1,x18
    40e8:	02f856bb          	divuw	x13,x16,x15
    40ec:	03f545b3          	div	x11,x10,x31
    40f0:	ceba4e13          	xori	x28,x20,-789
    40f4:	032ecc3b          	divw	x24,x29,x18
    40f8:	0031c2b3          	xor	x5,x3,x3
    40fc:	95636e93          	ori	x29,x6,-1706
    4100:	025e4033          	div	x0,x28,x5
    4104:	02d750bb          	divuw	x1,x14,x13
    4108:	031fd1b3          	divu	x3,x31,x17
    410c:	00288cbb          	addw	x25,x17,x2
    4110:	022df533          	remu	x10,x27,x2
    4114:	418c0f3b          	subw	x30,x24,x24
    4118:	a6e46093          	ori	x1,x8,-1426
    411c:	020eceb3          	div	x29,x29,x0
    4120:	0251e0b3          	rem	x1,x3,x5
    4124:	03155d33          	divu	x26,x10,x17
    4128:	1ece8093          	addi	x1,x29,492
    412c:	41e5873b          	subw	x14,x11,x30
    4130:	03c763bb          	remw	x7,x14,x28
    4134:	403b01bb          	subw	x3,x22,x3
    4138:	be090113          	addi	x2,x18,-1056
    413c:	001643b3          	xor	x7,x12,x1
    4140:	0145843b          	addw	x8,x11,x20
    4144:	02bddcb3          	divu	x25,x27,x11
    4148:	86d0c793          	xori	x15,x1,-1939
    414c:	022b4bbb          	divw	x23,x22,x2
    4150:	0386cc3b          	divw	x24,x13,x24
    4154:	039afdb3          	remu	x27,x21,x25
    4158:	0012e7b3          	or	x15,x5,x1
    415c:	03396f3b          	remw	x30,x18,x19
    4160:	01430abb          	addw	x21,x6,x20
    4164:	0162e9b3          	or	x19,x5,x22
    4168:	b6bac913          	xori	x18,x21,-1173
    416c:	00bf86b3          	add	x13,x31,x11
    4170:	029bd7b3          	divu	x15,x23,x9
    4174:	03f5f0b3          	remu	x1,x11,x31
    4178:	02d20f13          	addi	x30,x4,45 # 2d <_binary_lab1_extra_test_bin_start+0x2d>
    417c:	0301ebbb          	remw	x23,x3,x16
    4180:	84f88f1b          	addiw	x30,x17,-1969
    4184:	ce4e881b          	addiw	x16,x29,-796
    4188:	037fefb3          	rem	x31,x31,x23
    418c:	0367d0b3          	divu	x1,x15,x22
    4190:	16cafc93          	andi	x25,x21,364
    4194:	02a0ea33          	rem	x20,x1,x10
    4198:	00928cb3          	add	x25,x5,x9
    419c:	aea27093          	andi	x1,x4,-1302
    41a0:	010808b3          	add	x17,x16,x16
    41a4:	03b2fbbb          	remuw	x23,x5,x27
    41a8:	5322e213          	ori	x4,x5,1330
    41ac:	033eefb3          	rem	x31,x29,x19
    41b0:	00840733          	add	x14,x8,x8
    41b4:	0114cbb3          	xor	x23,x9,x17
    41b8:	03e27abb          	remuw	x21,x4,x30
    41bc:	02368533          	mul	x10,x13,x3
    41c0:	03d9f5b3          	remu	x11,x19,x29
    41c4:	b10c8813          	addi	x16,x25,-1264
    41c8:	028bef33          	rem	x30,x23,x8
    41cc:	0221c133          	div	x2,x3,x2
    41d0:	0148fab3          	and	x21,x17,x20
    41d4:	022658b3          	divu	x17,x12,x2
    41d8:	41dd8cbb          	subw	x25,x27,x29
    41dc:	02d58abb          	mulw	x21,x11,x13
    41e0:	03ff0833          	mul	x16,x30,x31
    41e4:	01937333          	and	x6,x6,x25
    41e8:	014e8933          	add	x18,x29,x20
    41ec:	027263b3          	rem	x7,x4,x7
    41f0:	03800cbb          	mulw	x25,x0,x24
    41f4:	039442b3          	div	x5,x8,x25
    41f8:	024cd733          	divu	x14,x25,x4
    41fc:	02a75433          	divu	x8,x14,x10
    4200:	02e74eb3          	div	x29,x14,x14
    4204:	dd0a4b93          	xori	x23,x20,-560
    4208:	023c45bb          	divw	x11,x24,x3
    420c:	1c8a4e13          	xori	x28,x20,456
    4210:	03cfe7bb          	remw	x15,x31,x28
    4214:	03e674b3          	remu	x9,x12,x30
    4218:	025462b3          	rem	x5,x8,x5
    421c:	eaaa6013          	ori	x0,x20,-342
    4220:	01eb003b          	addw	x0,x22,x30
    4224:	00a36e33          	or	x28,x6,x10
    4228:	01eee633          	or	x12,x29,x30
    422c:	019af7b3          	and	x15,x21,x25
    4230:	02b67bbb          	remuw	x23,x12,x11
    4234:	0386d9bb          	divuw	x19,x13,x24
    4238:	02dae033          	rem	x0,x21,x13
    423c:	03447cb3          	remu	x25,x8,x20
    4240:	c6614e93          	xori	x29,x2,-922
    4244:	ec5b8f93          	addi	x31,x23,-315
    4248:	033b7f3b          	remuw	x30,x22,x19
    424c:	039d4bb3          	div	x23,x26,x25
    4250:	00938fbb          	addw	x31,x7,x9
    4254:	0285de33          	divu	x28,x11,x8
    4258:	82bdfd13          	andi	x26,x27,-2005
    425c:	0321d3bb          	divuw	x7,x3,x18
    4260:	00566bb3          	or	x23,x12,x5
    4264:	02db0933          	mul	x18,x22,x13
    4268:	0042cb33          	xor	x22,x5,x4
    426c:	745bf813          	andi	x16,x23,1861
    4270:	e5564713          	xori	x14,x12,-427
    4274:	03480133          	mul	x2,x16,x20
    4278:	00e541b3          	xor	x3,x10,x14
    427c:	02be70bb          	remuw	x1,x28,x11
    4280:	021840b3          	div	x1,x16,x1
    4284:	02addbb3          	divu	x23,x27,x10
    4288:	0195803b          	addw	x0,x11,x25
    428c:	03cfc23b          	divw	x4,x31,x28
    4290:	84914b13          	xori	x22,x2,-1975
    4294:	00fce7b3          	or	x15,x25,x15
    4298:	02d37bb3          	remu	x23,x6,x13
    429c:	1e56fc13          	andi	x24,x13,485
    42a0:	0399dd33          	divu	x26,x19,x25
    42a4:	13e70993          	addi	x19,x14,318
    42a8:	02d1d533          	divu	x10,x3,x13
    42ac:	01227033          	and	x0,x4,x18
    42b0:	3a7c8293          	addi	x5,x25,935
    42b4:	ebf27113          	andi	x2,x4,-321
    42b8:	002f853b          	addw	x10,x31,x2
    42bc:	028c48bb          	divw	x17,x24,x8
    42c0:	01b4e933          	or	x18,x9,x27
    42c4:	02e9873b          	mulw	x14,x19,x14
    42c8:	030d0433          	mul	x8,x26,x16
    42cc:	021beab3          	rem	x21,x23,x1
    42d0:	0027feb3          	and	x29,x15,x2
    42d4:	0084023b          	addw	x4,x8,x8
    42d8:	01148eb3          	add	x29,x9,x17
    42dc:	41720db3          	sub	x27,x4,x23
    42e0:	02dac0bb          	divw	x1,x21,x13
    42e4:	01c66d33          	or	x26,x12,x28
    42e8:	aa9e6d93          	ori	x27,x28,-1367
    42ec:	0344cdbb          	divw	x27,x9,x20
    42f0:	033ccbb3          	div	x23,x25,x19
    42f4:	04174093          	xori	x1,x14,65
    42f8:	032eed3b          	remw	x26,x29,x18
    42fc:	00710633          	add	x12,x2,x7
    4300:	014befb3          	or	x31,x23,x20
    4304:	01b88f33          	add	x30,x17,x27
    4308:	028e66bb          	remw	x13,x28,x8
    430c:	01c68e3b          	addw	x28,x13,x28
    4310:	018888b3          	add	x17,x17,x24
    4314:	0333dd3b          	divuw	x26,x7,x19
    4318:	02c2803b          	mulw	x0,x5,x12
    431c:	839b0013          	addi	x0,x22,-1991
    4320:	0267f133          	remu	x2,x15,x6
    4324:	0336073b          	mulw	x14,x12,x19
    4328:	0302093b          	mulw	x18,x4,x16
    432c:	03a6c033          	div	x0,x13,x26
    4330:	02155a3b          	divuw	x20,x10,x1
    4334:	f20c7113          	andi	x2,x24,-224
    4338:	000662b3          	or	x5,x12,x0
    433c:	03db0633          	mul	x12,x22,x29
    4340:	011d0e33          	add	x28,x26,x17
    4344:	41e50433          	sub	x8,x10,x30
    4348:	0224ecbb          	remw	x25,x9,x2
    434c:	0314fb33          	remu	x22,x9,x17
    4350:	03fd783b          	remuw	x16,x26,x31
    4354:	00177db3          	and	x27,x14,x1
    4358:	0250d53b          	divuw	x10,x1,x5
    435c:	032a593b          	divuw	x18,x20,x18
    4360:	02bf763b          	remuw	x12,x30,x11
    4364:	02c8ceb3          	div	x29,x17,x12
    4368:	0143c8b3          	xor	x17,x7,x20
    436c:	023a6733          	rem	x14,x20,x3
    4370:	013e00b3          	add	x1,x28,x19
    4374:	41be803b          	subw	x0,x29,x27
    4378:	02d5d33b          	divuw	x6,x11,x13
    437c:	0321c0bb          	divw	x1,x3,x18
    4380:	027ce93b          	remw	x18,x25,x7
    4384:	00a0f233          	and	x4,x1,x10
    4388:	03c44133          	div	x2,x8,x28
    438c:	02d2763b          	remuw	x12,x4,x13
    4390:	3cce7e93          	andi	x29,x28,972
    4394:	023d6ebb          	remw	x29,x26,x3
    4398:	1c3f0c93          	addi	x25,x30,451
    439c:	0048ccb3          	xor	x25,x17,x4
    43a0:	6392e913          	ori	x18,x5,1593
    43a4:	03b368b3          	rem	x17,x6,x27
    43a8:	4081883b          	subw	x16,x3,x8
    43ac:	0320fb33          	remu	x22,x1,x18
    43b0:	41bb85bb          	subw	x11,x23,x27
    43b4:	b6e64913          	xori	x18,x12,-1170
    43b8:	02606933          	rem	x18,x0,x6
    43bc:	400d043b          	subw	x8,x26,x0
    43c0:	01964033          	xor	x0,x12,x25
    43c4:	03fe84bb          	mulw	x9,x29,x31
    43c8:	022ee3b3          	rem	x7,x29,x2
    43cc:	00d303bb          	addw	x7,x6,x13
    43d0:	03b6843b          	mulw	x8,x13,x27
    43d4:	03d3ff33          	remu	x30,x7,x29
    43d8:	037c06bb          	mulw	x13,x24,x23
    43dc:	01990e3b          	addw	x28,x18,x25
    43e0:	1d454a13          	xori	x20,x10,468
    43e4:	028a5533          	divu	x10,x20,x8
    43e8:	21edea13          	ori	x20,x27,542
    43ec:	29a77e93          	andi	x29,x14,666
    43f0:	021f583b          	divuw	x16,x30,x1
    43f4:	00630f33          	add	x30,x6,x6
    43f8:	016a4bb3          	xor	x23,x20,x22
    43fc:	404607b3          	sub	x15,x12,x4
    4400:	03455f33          	divu	x30,x10,x20
    4404:	020ee7b3          	rem	x15,x29,x0
    4408:	02d88cbb          	mulw	x25,x17,x13
    440c:	47138b9b          	addiw	x23,x7,1137
    4410:	40eb00b3          	sub	x1,x22,x14
    4414:	022cfb33          	remu	x22,x25,x2
    4418:	00518833          	add	x16,x3,x5
    441c:	0272d333          	divu	x6,x5,x7
    4420:	03b46d33          	rem	x26,x8,x27
    4424:	413289b3          	sub	x19,x5,x19
    4428:	1e330213          	addi	x4,x6,483
    442c:	02b4793b          	remuw	x18,x8,x11
    4430:	0316833b          	mulw	x6,x13,x17
    4434:	03e90333          	mul	x6,x18,x30
    4438:	0241d033          	divu	x0,x3,x4
    443c:	87420113          	addi	x2,x4,-1932 # fffffffffffff874 <_binary_lab1_extra_test_bin_end+0xfffffffffffdf854>
    4440:	69c07793          	andi	x15,x0,1692
    4444:	012df333          	and	x6,x27,x18
    4448:	039309b3          	mul	x19,x6,x25
    444c:	02070833          	mul	x16,x14,x0
    4450:	40520e33          	sub	x28,x4,x5
    4454:	030eea33          	rem	x20,x29,x16
    4458:	0370f3b3          	remu	x7,x1,x23
    445c:	9e0aca13          	xori	x20,x21,-1568
    4460:	26fcfe93          	andi	x29,x25,623
    4464:	003c85bb          	addw	x11,x25,x3
    4468:	a533cc13          	xori	x24,x7,-1453
    446c:	021ee13b          	remw	x2,x29,x1
    4470:	01f4823b          	addw	x4,x9,x31
    4474:	019e0033          	add	x0,x28,x25
    4478:	f03ce013          	ori	x0,x25,-253
    447c:	005b4d33          	xor	x26,x22,x5
    4480:	40b10933          	sub	x18,x2,x11
    4484:	02ef8a33          	mul	x20,x31,x14
    4488:	fbd98b9b          	addiw	x23,x19,-67
    448c:	02af52b3          	divu	x5,x30,x10
    4490:	ea79849b          	addiw	x9,x19,-345
    4494:	019d6933          	or	x18,x26,x25
    4498:	0310e5b3          	rem	x11,x1,x17
    449c:	030a6833          	rem	x16,x20,x16
    44a0:	290dca13          	xori	x20,x27,656
    44a4:	40368cbb          	subw	x25,x13,x3
    44a8:	01c060b3          	or	x1,x0,x28
    44ac:	41da893b          	subw	x18,x21,x29
    44b0:	0203f3b3          	remu	x7,x7,x0
    44b4:	22aafa93          	andi	x21,x21,554
    44b8:	0170fdb3          	and	x27,x1,x23
    44bc:	01964733          	xor	x14,x12,x25
    44c0:	0a0f871b          	addiw	x14,x31,160
    44c4:	47788293          	addi	x5,x17,1143
    44c8:	016e8c3b          	addw	x24,x29,x22
    44cc:	007065b3          	or	x11,x0,x7
    44d0:	1a8b6a93          	ori	x21,x22,424
    44d4:	0339cab3          	div	x21,x19,x19
    44d8:	fd556d13          	ori	x26,x10,-43
    44dc:	006e84b3          	add	x9,x29,x6
    44e0:	0008cf33          	xor	x30,x17,x0
    44e4:	3289f913          	andi	x18,x19,808
    44e8:	418a00bb          	subw	x1,x20,x24
    44ec:	93fdc213          	xori	x4,x27,-1729
    44f0:	019bc333          	xor	x6,x23,x25
    44f4:	a60f6d93          	ori	x27,x30,-1440
    44f8:	0278ec33          	rem	x24,x17,x7
    44fc:	76cb049b          	addiw	x9,x22,1900
    4500:	03d3623b          	remw	x4,x6,x29
    4504:	41798bbb          	subw	x23,x19,x23
    4508:	02cac133          	div	x2,x21,x12
    450c:	033ad533          	divu	x10,x21,x19
    4510:	b040e513          	ori	x10,x1,-1276
    4514:	024aec33          	rem	x24,x21,x4
    4518:	361d051b          	addiw	x10,x26,865
    451c:	abd7e193          	ori	x3,x15,-1347
    4520:	031301b3          	mul	x3,x6,x17
    4524:	03688f3b          	mulw	x30,x17,x22
    4528:	03ad51b3          	divu	x3,x26,x26
    452c:	40fe04b3          	sub	x9,x28,x15
    4530:	40c48093          	addi	x1,x9,1036
    4534:	032b7bb3          	remu	x23,x22,x18
    4538:	03aeddb3          	divu	x27,x29,x26
    453c:	fa99ef13          	ori	x30,x19,-87
    4540:	01d286b3          	add	x13,x5,x29
    4544:	0314e733          	rem	x14,x9,x17
    4548:	03e5ff3b          	remuw	x30,x11,x30
    454c:	035dd833          	divu	x16,x27,x21
    4550:	402a063b          	subw	x12,x20,x2
    4554:	0173c133          	xor	x2,x7,x23
    4558:	03968db3          	mul	x27,x13,x25
    455c:	02ced8bb          	divuw	x17,x29,x12
    4560:	008e7ab3          	and	x21,x28,x8
    4564:	00bc813b          	addw	x2,x25,x11
    4568:	9e1c8493          	addi	x9,x25,-1567
    456c:	03007933          	remu	x18,x0,x16
    4570:	00666033          	or	x0,x12,x6
    4574:	02dc47bb          	divw	x15,x24,x13
    4578:	0023f233          	and	x4,x7,x2
    457c:	40898abb          	subw	x21,x19,x8
    4580:	4199853b          	subw	x10,x19,x25
    4584:	025488b3          	mul	x17,x9,x5
    4588:	02e28db3          	mul	x27,x5,x14
    458c:	444ffc93          	andi	x25,x31,1092
    4590:	031c71bb          	remuw	x3,x24,x17
    4594:	03b6843b          	mulw	x8,x13,x27
    4598:	00e84bb3          	xor	x23,x16,x14
    459c:	025ee83b          	remw	x16,x29,x5
    45a0:	41090a33          	sub	x20,x18,x16
    45a4:	0085cab3          	xor	x21,x11,x8
    45a8:	026ccc3b          	divw	x24,x25,x6
    45ac:	0337cf33          	div	x30,x15,x19
    45b0:	2cae7513          	andi	x10,x28,714
    45b4:	002acfb3          	xor	x31,x21,x2
    45b8:	02617fbb          	remuw	x31,x2,x6
    45bc:	034d5233          	divu	x4,x26,x20
    45c0:	004349b3          	xor	x19,x6,x4
    45c4:	400f8733          	sub	x14,x31,x0
    45c8:	02d949b3          	div	x19,x18,x13
    45cc:	15706e13          	ori	x28,x0,343
    45d0:	03e70733          	mul	x14,x14,x30
    45d4:	00da8bb3          	add	x23,x21,x13
    45d8:	0318fe3b          	remuw	x28,x17,x17
    45dc:	dee07913          	andi	x18,x0,-530
    45e0:	03c65eb3          	divu	x29,x12,x28
    45e4:	03937f3b          	remuw	x30,x6,x25
    45e8:	8baffd13          	andi	x26,x31,-1862
    45ec:	003b0933          	add	x18,x22,x3
    45f0:	02837b3b          	remuw	x22,x6,x8
    45f4:	41dc8833          	sub	x16,x25,x29
    45f8:	f1f30193          	addi	x3,x6,-225
    45fc:	03d7d133          	divu	x2,x15,x29
    4600:	011866b3          	or	x13,x16,x17
    4604:	cbe0ee93          	ori	x29,x1,-834
    4608:	02b9f7bb          	remuw	x15,x19,x11
    460c:	021af133          	remu	x2,x21,x1
    4610:	0230f833          	remu	x16,x1,x3
    4614:	02ab5abb          	divuw	x21,x22,x10
    4618:	006be733          	or	x14,x23,x6
    461c:	03bf793b          	remuw	x18,x30,x27
    4620:	0337d633          	divu	x12,x15,x19
    4624:	261ccd13          	xori	x26,x25,609
    4628:	021a7fb3          	remu	x31,x20,x1
    462c:	0372d93b          	divuw	x18,x5,x23
    4630:	d1f20c9b          	addiw	x25,x4,-737 # fffffffffffffd1f <_binary_lab1_extra_test_bin_end+0xfffffffffffdfcff>
    4634:	022f7433          	remu	x8,x30,x2
    4638:	03b8cfbb          	divw	x31,x17,x27
    463c:	1ce4031b          	addiw	x6,x8,462
    4640:	8c8fe693          	ori	x13,x31,-1848
    4644:	0082c5b3          	xor	x11,x5,x8
    4648:	033cddb3          	divu	x27,x25,x19
    464c:	d850fd13          	andi	x26,x1,-635
    4650:	03b2d8bb          	divuw	x17,x5,x27
    4654:	007e02bb          	addw	x5,x28,x7
    4658:	02af423b          	divw	x4,x30,x10
    465c:	a028fb13          	andi	x22,x17,-1534
    4660:	40ed8e33          	sub	x28,x27,x14
    4664:	03565133          	divu	x2,x12,x21
    4668:	016041b3          	xor	x3,x0,x22
    466c:	02738bbb          	mulw	x23,x7,x7
    4670:	3c227713          	andi	x14,x4,962
    4674:	0d7f7393          	andi	x7,x30,215
    4678:	03314fb3          	div	x31,x2,x19
    467c:	47c76113          	ori	x2,x14,1148
    4680:	02a3d033          	divu	x0,x7,x10
    4684:	55db8213          	addi	x4,x23,1373
    4688:	cab30713          	addi	x14,x6,-853
    468c:	01cb8bb3          	add	x23,x23,x28
    4690:	029beb3b          	remw	x22,x23,x9
    4694:	02a85733          	divu	x14,x16,x10
    4698:	03ec583b          	divuw	x16,x24,x30
    469c:	41e782bb          	subw	x5,x15,x30
    46a0:	400a0db3          	sub	x27,x20,x0
    46a4:	cfa16113          	ori	x2,x2,-774
    46a8:	d9f3c013          	xori	x0,x7,-609
    46ac:	82650793          	addi	x15,x10,-2010
    46b0:	41df863b          	subw	x12,x31,x29
    46b4:	02d6fa33          	remu	x20,x13,x13
    46b8:	c1acec13          	ori	x24,x25,-998
    46bc:	0042c5b3          	xor	x11,x5,x4
    46c0:	41d6893b          	subw	x18,x13,x29
    46c4:	02118a33          	mul	x20,x3,x1
    46c8:	03f05fbb          	divuw	x31,x0,x31
    46cc:	5ce00593          	li	x11,1486
    46d0:	0222813b          	mulw	x2,x5,x2
    46d4:	9be7861b          	addiw	x12,x15,-1602
    46d8:	e18c6a13          	ori	x20,x24,-488
    46dc:	41d20933          	sub	x18,x4,x29
    46e0:	0363edbb          	remw	x27,x7,x22
    46e4:	419e0f33          	sub	x30,x28,x25
    46e8:	0150c0b3          	xor	x1,x1,x21
    46ec:	da97809b          	addiw	x1,x15,-599
    46f0:	d9120f93          	addi	x31,x4,-623 # fffffffffffffd91 <_binary_lab1_extra_test_bin_end+0xfffffffffffdfd71>
    46f4:	00c07db3          	and	x27,x0,x12
    46f8:	023a77bb          	remuw	x15,x20,x3
    46fc:	631ac793          	xori	x15,x21,1585
    4700:	016a8c3b          	addw	x24,x21,x22
    4704:	40300333          	neg	x6,x3
    4708:	0142883b          	addw	x16,x5,x20
    470c:	2a69859b          	addiw	x11,x19,678
    4710:	030052b3          	divu	x5,x0,x16
    4714:	02b6eb33          	rem	x22,x13,x11
    4718:	01908d33          	add	x26,x1,x25
    471c:	a2538293          	addi	x5,x7,-1499
    4720:	03846d3b          	remw	x26,x8,x24
    4724:	02660cb3          	mul	x25,x12,x6
    4728:	d1a48a1b          	addiw	x20,x9,-742
    472c:	020a753b          	remuw	x10,x20,x0
    4730:	033d8dbb          	mulw	x27,x27,x19
    4734:	0391f33b          	remuw	x6,x3,x25
    4738:	03d756bb          	divuw	x13,x14,x29
    473c:	bec4859b          	addiw	x11,x9,-1044
    4740:	00187eb3          	and	x29,x16,x1
    4744:	034c4fbb          	divw	x31,x24,x20
    4748:	01bb8b33          	add	x22,x23,x27
    474c:	021a01bb          	mulw	x3,x20,x1
    4750:	0275eeb3          	rem	x29,x11,x7
    4754:	01538b3b          	addw	x22,x7,x21
    4758:	03fcd2b3          	divu	x5,x25,x31
    475c:	039b6c3b          	remw	x24,x22,x25
    4760:	406002bb          	negw	x5,x6
    4764:	b12f8213          	addi	x4,x31,-1262
    4768:	02cbf533          	remu	x10,x23,x12
    476c:	01b14cb3          	xor	x25,x2,x27
    4770:	02ee6b33          	rem	x22,x28,x14
    4774:	40dd08bb          	subw	x17,x26,x13
    4778:	5baf0693          	addi	x13,x30,1466
    477c:	02f08333          	mul	x6,x1,x15
    4780:	038689bb          	mulw	x19,x13,x24
    4784:	0228fabb          	remuw	x21,x17,x2
    4788:	03dfd833          	divu	x16,x31,x29
    478c:	0292df3b          	divuw	x30,x5,x9
    4790:	e44e6493          	ori	x9,x28,-444
    4794:	b2b0079b          	addiw	x15,x0,-1237
    4798:	033c89b3          	mul	x19,x25,x19
    479c:	00b4fab3          	and	x21,x9,x11
    47a0:	02f17d33          	remu	x26,x2,x15
    47a4:	0108ed33          	or	x26,x17,x16
    47a8:	02b65fb3          	divu	x31,x12,x11
    47ac:	03d147b3          	div	x15,x2,x29
    47b0:	02770a3b          	mulw	x20,x14,x7
    47b4:	03234db3          	div	x27,x6,x18
    47b8:	010e65b3          	or	x11,x28,x16
    47bc:	5e3e071b          	addiw	x14,x28,1507
    47c0:	01bb4033          	xor	x0,x22,x27
    47c4:	010d8d33          	add	x26,x27,x16
    47c8:	00f28f3b          	addw	x30,x5,x15
    47cc:	033cffbb          	remuw	x31,x25,x19
    47d0:	01b360b3          	or	x1,x6,x27
    47d4:	029fc1bb          	divw	x3,x31,x9
    47d8:	0165043b          	addw	x8,x10,x22
    47dc:	412287bb          	subw	x15,x5,x18
    47e0:	03c062bb          	remw	x5,x0,x28
    47e4:	0358e433          	rem	x8,x17,x21
    47e8:	b8f98513          	addi	x10,x19,-1137
    47ec:	0078083b          	addw	x16,x16,x7
    47f0:	40a40cbb          	subw	x25,x8,x10
    47f4:	033b0233          	mul	x4,x22,x19
    47f8:	03d2e0bb          	remw	x1,x5,x29
    47fc:	7b7f081b          	addiw	x16,x30,1975
    4800:	0243fcb3          	remu	x25,x7,x4
    4804:	017d7213          	andi	x4,x26,23
    4808:	9790e993          	ori	x19,x1,-1671
    480c:	006ec833          	xor	x16,x29,x6
    4810:	02dd6833          	rem	x16,x26,x13
    4814:	1bbe4893          	xori	x17,x28,443
    4818:	03f47db3          	remu	x27,x8,x31
    481c:	03af6933          	rem	x18,x30,x26
    4820:	01760bbb          	addw	x23,x12,x23
    4824:	03f360bb          	remw	x1,x6,x31
    4828:	003b06b3          	add	x13,x22,x3
    482c:	03c66abb          	remw	x21,x12,x28
    4830:	41ed8d3b          	subw	x26,x27,x30
    4834:	025d063b          	mulw	x12,x26,x5
    4838:	2bd2ef93          	ori	x31,x5,701
    483c:	034d5333          	divu	x6,x26,x20
    4840:	03f90533          	mul	x10,x18,x31
    4844:	4198083b          	subw	x16,x16,x25
    4848:	265f8f93          	addi	x31,x31,613
    484c:	039ff233          	remu	x4,x31,x25
    4850:	3bbb8b9b          	addiw	x23,x23,955
    4854:	0c35f613          	andi	x12,x11,195
    4858:	01694d33          	xor	x26,x18,x22
    485c:	0326403b          	divw	x0,x12,x18
    4860:	00a0053b          	addw	x10,x0,x10
    4864:	035cc9bb          	divw	x19,x25,x21
    4868:	02de5533          	divu	x10,x28,x13
    486c:	b1bdff93          	andi	x31,x27,-1253
    4870:	0307e8bb          	remw	x17,x15,x16
    4874:	008b0233          	add	x4,x22,x8
    4878:	00cb07b3          	add	x15,x22,x12
    487c:	a433851b          	addiw	x10,x7,-1469
    4880:	025b8fbb          	mulw	x31,x23,x5
    4884:	03b9debb          	divuw	x29,x19,x27
    4888:	a717ed13          	ori	x26,x15,-1423
    488c:	03ccc5b3          	div	x11,x25,x28
    4890:	03c74133          	div	x2,x14,x28
    4894:	003b8893          	addi	x17,x23,3
    4898:	84c1c093          	xori	x1,x3,-1972
    489c:	03fe83b3          	mul	x7,x29,x31
    48a0:	03f68f33          	mul	x30,x13,x31
    48a4:	038ad03b          	divuw	x0,x21,x24
    48a8:	02becf3b          	divw	x30,x29,x11
    48ac:	00deff33          	and	x30,x29,x13
    48b0:	f91d8713          	addi	x14,x27,-111
    48b4:	0331de3b          	divuw	x28,x3,x19
    48b8:	025a7333          	remu	x6,x20,x5
    48bc:	ec07c413          	xori	x8,x15,-320
    48c0:	cef7f493          	andi	x9,x15,-785
    48c4:	02996eb3          	rem	x29,x18,x9
    48c8:	749e6293          	ori	x5,x28,1865
    48cc:	02cd8c3b          	mulw	x24,x27,x12
    48d0:	034e4833          	div	x16,x28,x20
    48d4:	0387ddb3          	divu	x27,x15,x24
    48d8:	03eb69b3          	rem	x19,x22,x30
    48dc:	31ca7c13          	andi	x24,x20,796
    48e0:	01810a3b          	addw	x20,x2,x24
    48e4:	00f5f2b3          	and	x5,x11,x15
    48e8:	03c24e3b          	divw	x28,x4,x28
    48ec:	004067b3          	or	x15,x0,x4
    48f0:	03abdbb3          	divu	x23,x23,x26
    48f4:	02ce4dbb          	divw	x27,x28,x12
    48f8:	0212dfb3          	divu	x31,x5,x1
    48fc:	027757bb          	divuw	x15,x14,x7
    4900:	41e082bb          	subw	x5,x1,x30
    4904:	033501b3          	mul	x3,x10,x19
    4908:	e588039b          	addiw	x7,x16,-424
    490c:	41f40e3b          	subw	x28,x8,x31
    4910:	03f3f533          	remu	x10,x7,x31
    4914:	0374e433          	rem	x8,x9,x23
    4918:	408906b3          	sub	x13,x18,x8
    491c:	00b9ecb3          	or	x25,x19,x11
    4920:	0389cc33          	div	x24,x19,x24
    4924:	02aa523b          	divuw	x4,x20,x10
    4928:	0295673b          	remw	x14,x10,x9
    492c:	41690333          	sub	x6,x18,x22
    4930:	559e4a93          	xori	x21,x28,1369
    4934:	f38e6993          	ori	x19,x28,-200
    4938:	b9b9f193          	andi	x3,x19,-1125
    493c:	39980c13          	addi	x24,x16,921
    4940:	403d863b          	subw	x12,x27,x3
    4944:	0259683b          	remw	x16,x18,x5
    4948:	00ba78b3          	and	x17,x20,x11
    494c:	0064fd33          	and	x26,x9,x6
    4950:	0dbb7f93          	andi	x31,x22,219
    4954:	0266ccbb          	divw	x25,x13,x6
    4958:	02ebf63b          	remuw	x12,x23,x14
    495c:	0324f8b3          	remu	x17,x9,x18
    4960:	407a04bb          	subw	x9,x20,x7
    4964:	b893f613          	andi	x12,x7,-1143
    4968:	405389bb          	subw	x19,x7,x5
    496c:	00dcc033          	xor	x0,x25,x13
    4970:	01040933          	add	x18,x8,x16
    4974:	032ff2b3          	remu	x5,x31,x18
    4978:	0ec4f813          	andi	x16,x9,236
    497c:	0037023b          	addw	x4,x14,x3
    4980:	02e25933          	divu	x18,x4,x14
    4984:	40c3053b          	subw	x10,x6,x12
    4988:	020edb33          	divu	x22,x29,x0
    498c:	021bc23b          	divw	x4,x23,x1
    4990:	41f809b3          	sub	x19,x16,x31
    4994:	00578ebb          	addw	x29,x15,x5
    4998:	0375ec33          	rem	x24,x11,x23
    499c:	40848cb3          	sub	x25,x9,x8
    49a0:	0350d93b          	divuw	x18,x1,x21
    49a4:	025e60b3          	rem	x1,x28,x5
    49a8:	03105b33          	divu	x22,x0,x17
    49ac:	74766993          	ori	x19,x12,1863
    49b0:	408c0b3b          	subw	x22,x24,x8
    49b4:	0346ca33          	div	x20,x13,x20
    49b8:	00d4803b          	addw	x0,x9,x13
    49bc:	02d14333          	div	x6,x2,x13
    49c0:	02cb0abb          	mulw	x21,x22,x12
    49c4:	0336f23b          	remuw	x4,x13,x19
    49c8:	010c72b3          	and	x5,x24,x16
    49cc:	012cc4b3          	xor	x9,x25,x18
    49d0:	03d35733          	divu	x14,x6,x29
    49d4:	00cf6cb3          	or	x25,x30,x12
    49d8:	02406a3b          	remw	x20,x0,x4
    49dc:	033f85bb          	mulw	x11,x31,x19
    49e0:	02578cb3          	mul	x25,x15,x5
    49e4:	03b50733          	mul	x14,x10,x27
    49e8:	015e88b3          	add	x17,x29,x21
    49ec:	57e2ec13          	ori	x24,x5,1406
    49f0:	415d08bb          	subw	x17,x26,x21
    49f4:	015a8433          	add	x8,x21,x21
    49f8:	dd390e13          	addi	x28,x18,-557
    49fc:	da9b6a13          	ori	x20,x22,-599
    4a00:	017582bb          	addw	x5,x11,x23
    4a04:	5b38e593          	ori	x11,x17,1459
    4a08:	41640833          	sub	x16,x8,x22
    4a0c:	01988e3b          	addw	x28,x17,x25
    4a10:	039dedb3          	rem	x27,x27,x25
    4a14:	1dbe7913          	andi	x18,x28,475
    4a18:	d4558113          	addi	x2,x11,-699
    4a1c:	d5c9891b          	addiw	x18,x19,-676
    4a20:	6b7e8e9b          	addiw	x29,x29,1719
    4a24:	023b0833          	mul	x16,x22,x3
    4a28:	48a70f1b          	addiw	x30,x14,1162
    4a2c:	03b2643b          	remw	x8,x4,x27
    4a30:	0283d633          	divu	x12,x7,x8
    4a34:	022a8f33          	mul	x30,x21,x2
    4a38:	2a418a9b          	addiw	x21,x3,676
    4a3c:	03af58bb          	divuw	x17,x30,x26
    4a40:	7db5f293          	andi	x5,x11,2011
    4a44:	02b0e93b          	remw	x18,x1,x11
    4a48:	03e541bb          	divw	x3,x10,x30
    4a4c:	670af693          	andi	x13,x21,1648
    4a50:	0b216c13          	ori	x24,x2,178
    4a54:	015805bb          	addw	x11,x16,x21
    4a58:	034465bb          	remw	x11,x8,x20
    4a5c:	030e583b          	divuw	x16,x28,x16
    4a60:	016267b3          	or	x15,x4,x22
    4a64:	b27cea13          	ori	x20,x25,-1241
    4a68:	00508b33          	add	x22,x1,x5
    4a6c:	a1eb6793          	ori	x15,x22,-1506
    4a70:	00b806b3          	add	x13,x16,x11
    4a74:	0f39c113          	xori	x2,x19,243
    4a78:	0266003b          	mulw	x0,x12,x6
    4a7c:	f942ff93          	andi	x31,x5,-108
    4a80:	01368133          	add	x2,x13,x19
    4a84:	039bd8b3          	divu	x17,x23,x25
    4a88:	03b58233          	mul	x4,x11,x27
    4a8c:	0303693b          	remw	x18,x6,x16
    4a90:	00dd77b3          	and	x15,x26,x13
    4a94:	d75c831b          	addiw	x6,x25,-651
    4a98:	011c7133          	and	x2,x24,x17
    4a9c:	01f403b3          	add	x7,x8,x31
    4aa0:	031df2b3          	remu	x5,x27,x17
    4aa4:	023ad5bb          	divuw	x11,x21,x3
    4aa8:	03f4d2bb          	divuw	x5,x9,x31
    4aac:	0141e533          	or	x10,x3,x20
    4ab0:	407f0dbb          	subw	x27,x30,x7
    4ab4:	02cec5bb          	divw	x11,x29,x12
    4ab8:	02ae70b3          	remu	x1,x28,x10
    4abc:	94bd8213          	addi	x4,x27,-1717
    4ac0:	02b087bb          	mulw	x15,x1,x11
    4ac4:	00340233          	add	x4,x8,x3
    4ac8:	03c8da3b          	divuw	x20,x17,x28
    4acc:	4081063b          	subw	x12,x2,x8
    4ad0:	0cc0cc93          	xori	x25,x1,204
    4ad4:	c3d48e93          	addi	x29,x9,-963
    4ad8:	3752891b          	addiw	x18,x5,885
    4adc:	0081f0b3          	and	x1,x3,x8
    4ae0:	0013863b          	addw	x12,x7,x1
    4ae4:	034f6e33          	rem	x28,x30,x20
    4ae8:	03f68333          	mul	x6,x13,x31
    4aec:	9f400a93          	li	x21,-1548
    4af0:	48fb6193          	ori	x3,x22,1167
    4af4:	03f988b3          	mul	x17,x19,x31
    4af8:	005906b3          	add	x13,x18,x5
    4afc:	03c95ebb          	divuw	x29,x18,x28
    4b00:	03ccd533          	divu	x10,x25,x28
    4b04:	03bcce3b          	divw	x28,x25,x27
    4b08:	02fa843b          	mulw	x8,x21,x15
    4b0c:	419a8bbb          	subw	x23,x21,x25
    4b10:	00596ab3          	or	x21,x18,x5
    4b14:	030cc4bb          	divw	x9,x25,x16
    4b18:	02e6e4bb          	remw	x9,x13,x14
    4b1c:	034e45b3          	div	x11,x28,x20
    4b20:	0042fa33          	and	x20,x5,x4
    4b24:	028fc533          	div	x10,x31,x8
    4b28:	0389c93b          	divw	x18,x19,x24
    4b2c:	40f00dbb          	negw	x27,x15
    4b30:	74034313          	xori	x6,x6,1856
    4b34:	41808db3          	sub	x27,x1,x24
    4b38:	00d64433          	xor	x8,x12,x13
    4b3c:	f7d7ef93          	ori	x31,x15,-131
    4b40:	81246013          	ori	x0,x8,-2030
    4b44:	15c6fe93          	andi	x29,x13,348
    4b48:	02280d33          	mul	x26,x16,x2
    4b4c:	017ec7b3          	xor	x15,x29,x23
    4b50:	cc430793          	addi	x15,x6,-828
    4b54:	0151823b          	addw	x4,x3,x21
    4b58:	033172bb          	remuw	x5,x2,x19
    4b5c:	035a42b3          	div	x5,x20,x21
    4b60:	03d6c333          	div	x6,x13,x29
    4b64:	aab67493          	andi	x9,x12,-1365
    4b68:	02e767bb          	remw	x15,x14,x14
    4b6c:	4a830d9b          	addiw	x27,x6,1192
    4b70:	01a2ee33          	or	x28,x5,x26
    4b74:	00258d3b          	addw	x26,x11,x2
    4b78:	c1f4f793          	andi	x15,x9,-993
    4b7c:	02506fbb          	remw	x31,x0,x5
    4b80:	2a516a13          	ori	x20,x2,677
    4b84:	014c6cb3          	or	x25,x24,x20
    4b88:	03b1e7b3          	rem	x15,x3,x27
    4b8c:	95ba7e93          	andi	x29,x20,-1701
    4b90:	027cc73b          	divw	x14,x25,x7
    4b94:	03b856bb          	divuw	x13,x16,x27
    4b98:	000a0abb          	addw	x21,x20,x0
    4b9c:	77df079b          	addiw	x15,x30,1917
    4ba0:	035fcf33          	div	x30,x31,x21
    4ba4:	037b0933          	mul	x18,x22,x23
    4ba8:	01548e3b          	addw	x28,x9,x21
    4bac:	019f7e33          	and	x28,x30,x25
    4bb0:	03aef23b          	remuw	x4,x29,x26
    4bb4:	014aebb3          	or	x23,x21,x20
    4bb8:	031d82b3          	mul	x5,x27,x17
    4bbc:	40c98dbb          	subw	x27,x19,x12
    4bc0:	c596049b          	addiw	x9,x12,-935
    4bc4:	03a485b3          	mul	x11,x9,x26
    4bc8:	84004d13          	xori	x26,x0,-1984
    4bcc:	03f04ab3          	div	x21,x0,x31
    4bd0:	024ec133          	div	x2,x29,x4
    4bd4:	41038b33          	sub	x22,x7,x16
    4bd8:	f6118f9b          	addiw	x31,x3,-159
    4bdc:	412908b3          	sub	x17,x18,x18
    4be0:	030585bb          	mulw	x11,x11,x16
    4be4:	a19c7793          	andi	x15,x24,-1511
    4be8:	02d1cfbb          	divw	x31,x3,x13
    4bec:	74a9039b          	addiw	x7,x18,1866
    4bf0:	032562b3          	rem	x5,x10,x18
    4bf4:	02dff5b3          	remu	x11,x31,x13
    4bf8:	02b0413b          	divw	x2,x0,x11
    4bfc:	00fe88b3          	add	x17,x29,x15
    4c00:	006e05b3          	add	x11,x28,x6
    4c04:	029947bb          	divw	x15,x18,x9
    4c08:	41c383bb          	subw	x7,x7,x28
    4c0c:	0344c7bb          	divw	x15,x9,x20
    4c10:	02d2eb33          	rem	x22,x5,x13
    4c14:	02f97ab3          	remu	x21,x18,x15
    4c18:	0e9e7013          	andi	x0,x28,233
    4c1c:	02a48b3b          	mulw	x22,x9,x10
    4c20:	02a90e3b          	mulw	x28,x18,x10
    4c24:	0212891b          	addiw	x18,x5,33
    4c28:	0273c733          	div	x14,x7,x7
    4c2c:	039447b3          	div	x15,x8,x25
    4c30:	01f377b3          	and	x15,x6,x31
    4c34:	03af51b3          	divu	x3,x30,x26
    4c38:	02dd643b          	remw	x8,x26,x13
    4c3c:	01350d3b          	addw	x26,x10,x19
    4c40:	03d3fd33          	remu	x26,x7,x29
    4c44:	033780b3          	mul	x1,x15,x19
    4c48:	00f5c7b3          	xor	x15,x11,x15
    4c4c:	012e8333          	add	x6,x29,x18
    4c50:	54bccb13          	xori	x22,x25,1355
    4c54:	02d6d93b          	divuw	x18,x13,x13
    4c58:	40800a3b          	negw	x20,x8
    4c5c:	03b6d2bb          	divuw	x5,x13,x27
    4c60:	03c848b3          	div	x17,x16,x28
    4c64:	40ee8733          	sub	x14,x29,x14
    4c68:	d19d7293          	andi	x5,x26,-743
    4c6c:	40dc053b          	subw	x10,x24,x13
    4c70:	01e50433          	add	x8,x10,x30
    4c74:	a1cd091b          	addiw	x18,x26,-1508
    4c78:	00a54833          	xor	x16,x10,x10
    4c7c:	000f84bb          	addw	x9,x31,x0
    4c80:	03d80833          	mul	x16,x16,x29
    4c84:	00190bb3          	add	x23,x18,x1
    4c88:	404d803b          	subw	x0,x27,x4
    4c8c:	40d18abb          	subw	x21,x3,x13
    4c90:	000f47b3          	xor	x15,x30,x0
    4c94:	41e5023b          	subw	x4,x10,x30
    4c98:	3f4b6413          	ori	x8,x22,1012
    4c9c:	00e988b3          	add	x17,x19,x14
    4ca0:	02dbd6bb          	divuw	x13,x23,x13
    4ca4:	fe18f893          	andi	x17,x17,-31
    4ca8:	032d7233          	remu	x4,x26,x18
    4cac:	032455b3          	divu	x11,x8,x18
    4cb0:	0379fa33          	remu	x20,x19,x23
    4cb4:	024c63b3          	rem	x7,x24,x4
    4cb8:	033cffb3          	remu	x31,x25,x19
    4cbc:	02097e3b          	remuw	x28,x18,x0
    4cc0:	01c7e033          	or	x0,x15,x28
    4cc4:	0345e133          	rem	x2,x11,x20
    4cc8:	02976333          	rem	x6,x14,x9
    4ccc:	030849b3          	div	x19,x16,x16
    4cd0:	038501b3          	mul	x3,x10,x24
    4cd4:	02e47cb3          	remu	x25,x8,x14
    4cd8:	035ff833          	remu	x16,x31,x21
    4cdc:	0205763b          	remuw	x12,x10,x0
    4ce0:	028d5dbb          	divuw	x27,x26,x8
    4ce4:	41e40fbb          	subw	x31,x8,x30
    4ce8:	6b91ee93          	ori	x29,x3,1721
    4cec:	00c08633          	add	x12,x1,x12
    4cf0:	0091eb33          	or	x22,x3,x9
    4cf4:	02c2e9b3          	rem	x19,x5,x12
    4cf8:	75aae913          	ori	x18,x21,1882
    4cfc:	41df8eb3          	sub	x29,x31,x29
    4d00:	b69f7a93          	andi	x21,x30,-1175
    4d04:	027468b3          	rem	x17,x8,x7
    4d08:	00a4ebb3          	or	x23,x9,x10
    4d0c:	00a56e33          	or	x28,x10,x10
    4d10:	0365eab3          	rem	x21,x11,x22
    4d14:	c89f4013          	xori	x0,x30,-887
    4d18:	020b6733          	rem	x14,x22,x0
    4d1c:	03e2e833          	rem	x16,x5,x30
    4d20:	032843b3          	div	x7,x16,x18
    4d24:	e4ef6c13          	ori	x24,x30,-434
    4d28:	02f36ab3          	rem	x21,x6,x15
    4d2c:	035d8733          	mul	x14,x27,x21
    4d30:	013f8c3b          	addw	x24,x31,x19
    4d34:	0360f63b          	remuw	x12,x1,x22
    4d38:	01864ab3          	xor	x21,x12,x24
    4d3c:	41a4093b          	subw	x18,x8,x26
    4d40:	017a4b33          	xor	x22,x20,x23
    4d44:	ec07ea93          	ori	x21,x15,-320
    4d48:	02757eb3          	remu	x29,x10,x7
    4d4c:	039a7fb3          	remu	x31,x20,x25
    4d50:	01a54333          	xor	x6,x10,x26
    4d54:	034d8333          	mul	x6,x27,x20
    4d58:	002d8733          	add	x14,x27,x2
    4d5c:	03d7d5bb          	divuw	x11,x15,x29
    4d60:	1899fc13          	andi	x24,x19,393
    4d64:	006f853b          	addw	x10,x31,x6
    4d68:	a9864613          	xori	x12,x12,-1384
    4d6c:	40618ebb          	subw	x29,x3,x6
    4d70:	0302e33b          	remw	x6,x5,x16
    4d74:	0369f033          	remu	x0,x19,x22
    4d78:	b8240c1b          	addiw	x24,x8,-1150
    4d7c:	0205e2b3          	rem	x5,x11,x0
    4d80:	00b50b3b          	addw	x22,x10,x11
    4d84:	03bd08b3          	mul	x17,x26,x27
    4d88:	03d30733          	mul	x14,x6,x29
    4d8c:	008a4133          	xor	x2,x20,x8
    4d90:	7b8b0193          	addi	x3,x22,1976
    4d94:	4a2ee513          	ori	x10,x29,1186
    4d98:	40a9853b          	subw	x10,x19,x10
    4d9c:	40c189bb          	subw	x19,x3,x12
    4da0:	0066c3b3          	xor	x7,x13,x6
    4da4:	124f001b          	addiw	x0,x30,292
    4da8:	96990c1b          	addiw	x24,x18,-1687
    4dac:	3052ce93          	xori	x29,x5,773
    4db0:	738f7a13          	andi	x20,x30,1848
    4db4:	01178eb3          	add	x29,x15,x17
    4db8:	02d7d4bb          	divuw	x9,x15,x13
    4dbc:	022b87bb          	mulw	x15,x23,x2
    4dc0:	0098fdb3          	and	x27,x17,x9
    4dc4:	75cbc113          	xori	x2,x23,1884
    4dc8:	00756cb3          	or	x25,x10,x7
    4dcc:	039e42bb          	divw	x5,x28,x25
    4dd0:	01e07f33          	and	x30,x0,x30
    4dd4:	c59d8e93          	addi	x29,x27,-935
    4dd8:	0028fdb3          	and	x27,x17,x2
    4ddc:	01c1e4b3          	or	x9,x3,x28
    4de0:	007887bb          	addw	x15,x17,x7
    4de4:	0041eb33          	or	x22,x3,x4
    4de8:	40820b3b          	subw	x22,x4,x8
    4dec:	03467abb          	remuw	x21,x12,x20
    4df0:	025208b3          	mul	x17,x4,x5
    4df4:	03200abb          	mulw	x21,x0,x18
    4df8:	01dcc533          	xor	x10,x25,x29
    4dfc:	43ff4593          	xori	x11,x30,1087
    4e00:	40b28bb3          	sub	x23,x5,x11
    4e04:	018b4233          	xor	x4,x22,x24
    4e08:	0218823b          	mulw	x4,x17,x1
    4e0c:	03e95e3b          	divuw	x28,x18,x30
    4e10:	02a668bb          	remw	x17,x12,x10
    4e14:	016dc1b3          	xor	x3,x27,x22
    4e18:	013f843b          	addw	x8,x31,x19
    4e1c:	03f55cb3          	divu	x25,x10,x31
    4e20:	41128cbb          	subw	x25,x5,x17
    4e24:	022c53bb          	divuw	x7,x24,x2
    4e28:	40f6813b          	subw	x2,x13,x15
    4e2c:	03c454b3          	divu	x9,x8,x28
    4e30:	028b06bb          	mulw	x13,x22,x8
    4e34:	40ea86b3          	sub	x13,x21,x14
    4e38:	0088cab3          	xor	x21,x17,x8
    4e3c:	0108fc33          	and	x24,x17,x16
    4e40:	0131ec33          	or	x24,x3,x19
    4e44:	031c603b          	remw	x0,x24,x17
    4e48:	84f10b1b          	addiw	x22,x2,-1969
    4e4c:	40d0023b          	negw	x4,x13
    4e50:	87d77c13          	andi	x24,x14,-1923
    4e54:	02c87533          	remu	x10,x16,x12
    4e58:	027cdd33          	divu	x26,x25,x7
    4e5c:	024f7133          	remu	x2,x30,x4
    4e60:	023857b3          	divu	x15,x16,x3
    4e64:	0353513b          	divuw	x2,x6,x21
    4e68:	d9fc0d1b          	addiw	x26,x24,-609
    4e6c:	0252733b          	remuw	x6,x4,x5
    4e70:	50676e13          	ori	x28,x14,1286
    4e74:	01c7fab3          	and	x21,x15,x28
    4e78:	03d2dfbb          	divuw	x31,x5,x29
    4e7c:	03990233          	mul	x4,x18,x25
    4e80:	8372c913          	xori	x18,x5,-1993
    4e84:	02d47bb3          	remu	x23,x8,x13
    4e88:	0251cf3b          	divw	x30,x3,x5
    4e8c:	c1187813          	andi	x16,x16,-1007
    4e90:	002acd33          	xor	x26,x21,x2
    4e94:	026b78bb          	remuw	x17,x22,x6
    4e98:	0316efbb          	remw	x31,x13,x17
    4e9c:	018a6833          	or	x16,x20,x24
    4ea0:	03acd5b3          	divu	x11,x25,x26
    4ea4:	0162cd33          	xor	x26,x5,x22
    4ea8:	0126e4b3          	or	x9,x13,x18
    4eac:	03a3443b          	divw	x8,x6,x26
    4eb0:	02bb03b3          	mul	x7,x22,x11
    4eb4:	02c7de33          	divu	x28,x15,x12
    4eb8:	0375e433          	rem	x8,x11,x23
    4ebc:	13bd6713          	ori	x14,x26,315
    4ec0:	00f97fb3          	and	x31,x18,x15
    4ec4:	0276c1bb          	divw	x3,x13,x7
    4ec8:	41c58eb3          	sub	x29,x11,x28
    4ecc:	40fb8133          	sub	x2,x23,x15
    4ed0:	7d154413          	xori	x8,x10,2001
    4ed4:	2de24313          	xori	x6,x4,734
    4ed8:	64aecf13          	xori	x30,x29,1610
    4edc:	b8eb0093          	addi	x1,x22,-1138
    4ee0:	0015ce33          	xor	x28,x11,x1
    4ee4:	492b8d13          	addi	x26,x23,1170
    4ee8:	03e862b3          	rem	x5,x16,x30
    4eec:	5cbcfe13          	andi	x28,x25,1483
    4ef0:	02690b3b          	mulw	x22,x18,x6
    4ef4:	00f38ab3          	add	x21,x7,x15
    4ef8:	b1f2cf13          	xori	x30,x5,-1249
    4efc:	41190933          	sub	x18,x18,x17
    4f00:	33138393          	addi	x7,x7,817
    4f04:	029d4bb3          	div	x23,x26,x9
    4f08:	00c701b3          	add	x3,x14,x12
    4f0c:	4fd37a93          	andi	x21,x6,1277
    4f10:	006d8d3b          	addw	x26,x27,x6
    4f14:	03daf933          	remu	x18,x21,x29
    4f18:	00df79b3          	and	x19,x30,x13
    4f1c:	d1b1f713          	andi	x14,x3,-741
    4f20:	01666db3          	or	x27,x12,x22
    4f24:	2cf3fe13          	andi	x28,x7,719
    4f28:	01797d33          	and	x26,x18,x23
    4f2c:	03aefabb          	remuw	x21,x29,x26
    4f30:	4164883b          	subw	x16,x9,x22
    4f34:	9cc6859b          	addiw	x11,x13,-1588
    4f38:	03595a3b          	divuw	x20,x18,x21
    4f3c:	02ae78b3          	remu	x17,x28,x10
    4f40:	03d16c3b          	remw	x24,x2,x29
    4f44:	03af75bb          	remuw	x11,x30,x26
    4f48:	016b76b3          	and	x13,x22,x22
    4f4c:	03640633          	mul	x12,x8,x22
    4f50:	03ff653b          	remw	x10,x30,x31
    4f54:	02ec56b3          	divu	x13,x24,x14
    4f58:	af524713          	xori	x14,x4,-1291
    4f5c:	000681bb          	addw	x3,x13,x0
    4f60:	020ff533          	remu	x10,x31,x0
    4f64:	41578c3b          	subw	x24,x15,x21
    4f68:	02f44f3b          	divw	x30,x8,x15
    4f6c:	011acdb3          	xor	x27,x21,x17
    4f70:	03ffe6bb          	remw	x13,x31,x31
    4f74:	005af133          	and	x2,x21,x5
    4f78:	025d07bb          	mulw	x15,x26,x5
    4f7c:	035245bb          	divw	x11,x4,x21
    4f80:	02d9f0bb          	remuw	x1,x19,x13
    4f84:	0236dab3          	divu	x21,x13,x3
    4f88:	0381f53b          	remuw	x10,x3,x24
    4f8c:	01120eb3          	add	x29,x4,x17
    4f90:	018cc733          	xor	x14,x25,x24
    4f94:	03d1f23b          	remuw	x4,x3,x29
    4f98:	1c4f0c9b          	addiw	x25,x30,452
    4f9c:	41118d3b          	subw	x26,x3,x17
    4fa0:	79fdcf93          	xori	x31,x27,1951
    4fa4:	49b78213          	addi	x4,x15,1179
    4fa8:	0358ce3b          	divw	x28,x17,x21
    4fac:	46a0881b          	addiw	x16,x1,1130
    4fb0:	03d783bb          	mulw	x7,x15,x29
    4fb4:	02eb4f3b          	divw	x30,x22,x14
    4fb8:	d9fd019b          	addiw	x3,x26,-609
    4fbc:	030758b3          	divu	x17,x14,x16
    4fc0:	02c9c5b3          	div	x11,x19,x12
    4fc4:	0176cbb3          	xor	x23,x13,x23
    4fc8:	c0f3039b          	addiw	x7,x6,-1009
    4fcc:	41c08f33          	sub	x30,x1,x28
    4fd0:	414d0e33          	sub	x28,x26,x20
    4fd4:	027fe8bb          	remw	x17,x31,x7
    4fd8:	017fcdb3          	xor	x27,x31,x23
    4fdc:	7e05039b          	addiw	x7,x10,2016
    4fe0:	02caca33          	div	x20,x21,x12
    4fe4:	0337cfb3          	div	x31,x15,x19
    4fe8:	272b4d93          	xori	x27,x22,626
    4fec:	01ccc3b3          	xor	x7,x25,x28
    4ff0:	03860333          	mul	x6,x12,x24
    4ff4:	02fd0a3b          	mulw	x20,x26,x15
    4ff8:	6a564e13          	xori	x28,x12,1701
    4ffc:	410783bb          	subw	x7,x15,x16
    5000:	409a8f33          	sub	x30,x21,x9
    5004:	02cf72bb          	remuw	x5,x30,x12
    5008:	036f893b          	mulw	x18,x31,x22
    500c:	0215793b          	remuw	x18,x10,x1
    5010:	860d4293          	xori	x5,x26,-1952
    5014:	315d889b          	addiw	x17,x27,789
    5018:	c807c713          	xori	x14,x15,-896
    501c:	f0488313          	addi	x6,x17,-252
    5020:	00197333          	and	x6,x18,x1
    5024:	02fb8a3b          	mulw	x20,x23,x15
    5028:	03055a33          	divu	x20,x10,x16
    502c:	02db8833          	mul	x16,x23,x13
    5030:	0257f4bb          	remuw	x9,x15,x5
    5034:	03b25dbb          	divuw	x27,x4,x27
    5038:	404e803b          	subw	x0,x29,x4
    503c:	007b8433          	add	x8,x23,x7
    5040:	02d555b3          	divu	x11,x10,x13
    5044:	40020db3          	sub	x27,x4,x0
    5048:	030b553b          	divuw	x10,x22,x16
    504c:	4167063b          	subw	x12,x14,x22
    5050:	0160e6b3          	or	x13,x1,x22
    5054:	32090d9b          	addiw	x27,x18,800
    5058:	03436b33          	rem	x22,x6,x20
    505c:	40178ab3          	sub	x21,x15,x1
    5060:	02537133          	remu	x2,x6,x5
    5064:	00f07d33          	and	x26,x0,x15
    5068:	00cbe7b3          	or	x15,x23,x12
    506c:	06d5ed93          	ori	x27,x11,109
    5070:	574c7993          	andi	x19,x24,1396
    5074:	00d2feb3          	and	x29,x5,x13
    5078:	40a38cbb          	subw	x25,x7,x10
    507c:	e121801b          	addiw	x0,x3,-494
    5080:	f7d27a93          	andi	x21,x4,-131
    5084:	024ec0b3          	div	x1,x29,x4
    5088:	03adf8b3          	remu	x17,x27,x26
    508c:	0360fb3b          	remuw	x22,x1,x22
    5090:	416e7793          	andi	x15,x28,1046
    5094:	0300edb3          	rem	x27,x1,x16
    5098:	02b6023b          	mulw	x4,x12,x11
    509c:	009304bb          	addw	x9,x6,x9
    50a0:	41320033          	sub	x0,x4,x19
    50a4:	039c0b33          	mul	x22,x24,x25
    50a8:	03b4cd3b          	divw	x26,x9,x27
    50ac:	01358eb3          	add	x29,x11,x19
    50b0:	407783b3          	sub	x7,x15,x7
    50b4:	028bcbbb          	divw	x23,x23,x8
    50b8:	9f9af893          	andi	x17,x21,-1543
    50bc:	035a62bb          	remw	x5,x20,x21
    50c0:	02390e3b          	mulw	x28,x18,x3
    50c4:	5311801b          	addiw	x0,x3,1329
    50c8:	035583b3          	mul	x7,x11,x21
    50cc:	410d01b3          	sub	x3,x26,x16
    50d0:	001e0a3b          	addw	x20,x28,x1
    50d4:	00f680b3          	add	x1,x13,x15
    50d8:	41b908b3          	sub	x17,x18,x27
    50dc:	01b98b33          	add	x22,x19,x27
    50e0:	01ca6f33          	or	x30,x20,x28
    50e4:	01e573b3          	and	x7,x10,x30
    50e8:	016d81bb          	addw	x3,x27,x22
    50ec:	40fd82bb          	subw	x5,x27,x15
    50f0:	01c18c3b          	addw	x24,x3,x28
    50f4:	bbe9fc13          	andi	x24,x19,-1090
    50f8:	01c04733          	xor	x14,x0,x28
    50fc:	0a5fed93          	ori	x27,x31,165
    5100:	02c5d6b3          	divu	x13,x11,x12
    5104:	0219d63b          	divuw	x12,x19,x1
    5108:	0397ce33          	div	x28,x15,x25
    510c:	035bda33          	divu	x20,x23,x21
    5110:	aad04d13          	xori	x26,x0,-1363
    5114:	d96cc513          	xori	x10,x25,-618
    5118:	0391f5bb          	remuw	x11,x3,x25
    511c:	41c60d3b          	subw	x26,x12,x28
    5120:	02e65dbb          	divuw	x27,x12,x14
    5124:	4128853b          	subw	x10,x17,x18
    5128:	411c0733          	sub	x14,x24,x17
    512c:	029d01bb          	mulw	x3,x26,x9
    5130:	a97a4e93          	xori	x29,x20,-1385
    5134:	03a6eebb          	remw	x29,x13,x26
    5138:	03a342b3          	div	x5,x6,x26
    513c:	03ccdfbb          	divuw	x31,x25,x28
    5140:	51bf059b          	addiw	x11,x30,1307
    5144:	037dfb3b          	remuw	x22,x27,x23
    5148:	03084ebb          	divw	x29,x16,x16
    514c:	0298e8bb          	remw	x17,x17,x9
    5150:	034cdcbb          	divuw	x25,x25,x20
    5154:	12e24d93          	xori	x27,x4,302
    5158:	02720fb3          	mul	x31,x4,x7
    515c:	0385ffb3          	remu	x31,x11,x24
    5160:	02e76e3b          	remw	x28,x14,x14
    5164:	a41d8a1b          	addiw	x20,x27,-1471
    5168:	410c0db3          	sub	x27,x24,x16
    516c:	bfb00f1b          	addiw	x30,x0,-1029
    5170:	017608bb          	addw	x17,x12,x23
    5174:	51d8f913          	andi	x18,x17,1309
    5178:	035580b3          	mul	x1,x11,x21
    517c:	02a05fbb          	divuw	x31,x0,x10
    5180:	c88d4013          	xori	x0,x26,-888
    5184:	03fbceb3          	div	x29,x23,x31
    5188:	00de87bb          	addw	x15,x29,x13
    518c:	0324dc3b          	divuw	x24,x9,x18
    5190:	039b4333          	div	x6,x22,x25
    5194:	41730c3b          	subw	x24,x6,x23
    5198:	02fa4933          	div	x18,x20,x15
    519c:	40970933          	sub	x18,x14,x9
    51a0:	016807b3          	add	x15,x16,x22
    51a4:	405e0cbb          	subw	x25,x28,x5
    51a8:	001189b3          	add	x19,x3,x1
    51ac:	03637d3b          	remuw	x26,x6,x22
    51b0:	02a005b3          	mul	x11,x0,x10
    51b4:	02a4e433          	rem	x8,x9,x10
    51b8:	aa2e839b          	addiw	x7,x29,-1374
    51bc:	41518a33          	sub	x20,x3,x21
    51c0:	689cc113          	xori	x2,x25,1673
    51c4:	03c208b3          	mul	x17,x4,x28
    51c8:	029102b3          	mul	x5,x2,x9
    51cc:	03c86db3          	rem	x27,x16,x28
    51d0:	03ecd433          	divu	x8,x25,x30
    51d4:	01ac0133          	add	x2,x24,x26
    51d8:	d5626d13          	ori	x26,x4,-682
    51dc:	45d6e993          	ori	x19,x13,1117
    51e0:	5bf90213          	addi	x4,x18,1471
    51e4:	037e4f3b          	divw	x30,x28,x23
    51e8:	03a571bb          	remuw	x3,x10,x26
    51ec:	ade30c93          	addi	x25,x6,-1314
    51f0:	01ad8fb3          	add	x31,x27,x26
    51f4:	32c4851b          	addiw	x10,x9,812
    51f8:	027fcd33          	div	x26,x31,x7
    51fc:	010f4633          	xor	x12,x30,x16
    5200:	0232eb3b          	remw	x22,x5,x3
    5204:	03aa77b3          	remu	x15,x20,x26
    5208:	3b5be213          	ori	x4,x23,949
    520c:	01264333          	xor	x6,x12,x18
    5210:	006aca33          	xor	x20,x21,x6
    5214:	02c7e8bb          	remw	x17,x15,x12
    5218:	03cc7833          	remu	x16,x24,x28
    521c:	a1d06a13          	ori	x20,x0,-1507
    5220:	4d73c993          	xori	x19,x7,1239
    5224:	042f0413          	addi	x8,x30,66
    5228:	01667b33          	and	x22,x12,x22
    522c:	0114c5b3          	xor	x11,x9,x17
    5230:	409180b3          	sub	x1,x3,x9
    5234:	01af6cb3          	or	x25,x30,x26
    5238:	024cfbb3          	remu	x23,x25,x4
    523c:	00eccf33          	xor	x30,x25,x14
    5240:	01bafeb3          	and	x29,x21,x27
    5244:	029fe233          	rem	x4,x31,x9
    5248:	405c87b3          	sub	x15,x25,x5
    524c:	0182f833          	and	x16,x5,x24
    5250:	03dedb33          	divu	x22,x29,x29
    5254:	0308f5bb          	remuw	x11,x17,x16
    5258:	92df6413          	ori	x8,x30,-1747
    525c:	40700dbb          	negw	x27,x7
    5260:	03bae13b          	remw	x2,x21,x27
    5264:	40e787b3          	sub	x15,x15,x14
    5268:	026df93b          	remuw	x18,x27,x6
    526c:	03fbedb3          	rem	x27,x23,x31
    5270:	b6aa7213          	andi	x4,x20,-1174
    5274:	03ab8bb3          	mul	x23,x23,x26
    5278:	e9fc8713          	addi	x14,x25,-353
    527c:	01bac533          	xor	x10,x21,x27
    5280:	00afc533          	xor	x10,x31,x10
    5284:	011887bb          	addw	x15,x17,x17
    5288:	b5b4f893          	andi	x17,x9,-1189
    528c:	01decab3          	xor	x21,x29,x29
    5290:	01e186b3          	add	x13,x3,x30
    5294:	0222d2bb          	divuw	x5,x5,x2
    5298:	03a74333          	div	x6,x14,x26
    529c:	015ccab3          	xor	x21,x25,x21
    52a0:	656c8d1b          	addiw	x26,x25,1622
    52a4:	8b04849b          	addiw	x9,x9,-1872
    52a8:	02826e3b          	remw	x28,x4,x8
    52ac:	409481bb          	subw	x3,x9,x9
    52b0:	02d780b3          	mul	x1,x15,x13
    52b4:	02a66333          	rem	x6,x12,x10
    52b8:	0218c933          	div	x18,x17,x1
    52bc:	412c8333          	sub	x6,x25,x18
    52c0:	03aacc3b          	divw	x24,x21,x26
    52c4:	0234ceb3          	div	x29,x9,x3
    52c8:	00976133          	or	x2,x14,x9
    52cc:	036b46bb          	divw	x13,x22,x22
    52d0:	009ac2b3          	xor	x5,x21,x9
    52d4:	023f0c33          	mul	x24,x30,x3
    52d8:	00c177b3          	and	x15,x2,x12
    52dc:	003c7eb3          	and	x29,x24,x3
    52e0:	55744113          	xori	x2,x8,1367
    52e4:	03b15833          	divu	x16,x2,x27
    52e8:	b0607093          	andi	x1,x0,-1274
    52ec:	032bf53b          	remuw	x10,x23,x18
    52f0:	40d60f33          	sub	x30,x12,x13
    52f4:	cd23061b          	addiw	x12,x6,-814
    52f8:	0306f0b3          	remu	x1,x13,x16
    52fc:	029cf5bb          	remuw	x11,x25,x9
    5300:	0353ce3b          	divw	x28,x7,x21
    5304:	45124193          	xori	x3,x4,1105
    5308:	00f683bb          	addw	x7,x13,x15
    530c:	01610c33          	add	x24,x2,x22
    5310:	ec61f193          	andi	x3,x3,-314
    5314:	02d3eb3b          	remw	x22,x7,x13
    5318:	025f6833          	rem	x16,x30,x5
    531c:	1d64cf13          	xori	x30,x9,470
    5320:	02366f3b          	remw	x30,x12,x3
    5324:	000c49b3          	xor	x19,x24,x0
    5328:	00c6edb3          	or	x27,x13,x12
    532c:	02e87833          	remu	x16,x16,x14
    5330:	01b774b3          	and	x9,x14,x27
    5334:	fef6c793          	xori	x15,x13,-17
    5338:	00b9073b          	addw	x14,x18,x11
    533c:	03986e33          	rem	x28,x16,x25
    5340:	0380fd33          	remu	x26,x1,x24
    5344:	4914c393          	xori	x7,x9,1169
    5348:	02936d33          	rem	x26,x6,x9
    534c:	023cfe3b          	remuw	x28,x25,x3
    5350:	4ee48513          	addi	x10,x9,1262
    5354:	01dbfc33          	and	x24,x23,x29
    5358:	f6c5e113          	ori	x2,x11,-148
    535c:	03c653bb          	divuw	x7,x12,x28
    5360:	0269673b          	remw	x14,x18,x6
    5364:	03ce5ab3          	divu	x21,x28,x28
    5368:	029d623b          	remw	x4,x26,x9
    536c:	01cf81b3          	add	x3,x31,x28
    5370:	6d28089b          	addiw	x17,x16,1746
    5374:	012281b3          	add	x3,x5,x18
    5378:	03fa85bb          	mulw	x11,x21,x31
    537c:	9a0b6513          	ori	x10,x22,-1632
    5380:	028957bb          	divuw	x15,x18,x8
    5384:	78e1811b          	addiw	x2,x3,1934
    5388:	01a9e733          	or	x14,x19,x26
    538c:	031582bb          	mulw	x5,x11,x17
    5390:	029042b3          	div	x5,x0,x9
    5394:	41300ebb          	negw	x29,x19
    5398:	037ac9b3          	div	x19,x21,x23
    539c:	03f8443b          	divw	x8,x16,x31
    53a0:	0238dcbb          	divuw	x25,x17,x3
    53a4:	025260b3          	rem	x1,x4,x5
    53a8:	03adc83b          	divw	x16,x27,x26
    53ac:	40510f33          	sub	x30,x2,x5
    53b0:	03805633          	divu	x12,x0,x24
    53b4:	02e04c33          	div	x24,x0,x14
    53b8:	5e34851b          	addiw	x10,x9,1507
    53bc:	02ace733          	rem	x14,x25,x10
    53c0:	da90fe13          	andi	x28,x1,-599
    53c4:	024bcd3b          	divw	x26,x23,x4
    53c8:	03604593          	xori	x11,x0,54
    53cc:	02e17abb          	remuw	x21,x2,x14
    53d0:	ed8e831b          	addiw	x6,x29,-296
    53d4:	02dc7333          	remu	x6,x24,x13
    53d8:	00327ab3          	and	x21,x4,x3
    53dc:	02aa5833          	divu	x16,x20,x10
    53e0:	2f00021b          	addiw	x4,x0,752
    53e4:	03a37333          	remu	x6,x6,x26
    53e8:	0337cf3b          	divw	x30,x15,x19
    53ec:	40c60533          	sub	x10,x12,x12
    53f0:	0260d633          	divu	x12,x1,x6
    53f4:	024383bb          	mulw	x7,x7,x4
    53f8:	40498c3b          	subw	x24,x19,x4
    53fc:	02716cb3          	rem	x25,x2,x7
    5400:	02b6c93b          	divw	x18,x13,x11
    5404:	0289e63b          	remw	x12,x19,x8
    5408:	03ee74b3          	remu	x9,x28,x30
    540c:	010afd33          	and	x26,x21,x16
    5410:	2be1c493          	xori	x9,x3,702
    5414:	02697633          	remu	x12,x18,x6
    5418:	41c08e33          	sub	x28,x1,x28
    541c:	020071bb          	remuw	x3,x0,x0
    5420:	928df593          	andi	x11,x27,-1752
    5424:	02a6f7b3          	remu	x15,x13,x10
    5428:	006b44b3          	xor	x9,x22,x6
    542c:	017eff33          	and	x30,x29,x23
    5430:	017370b3          	and	x1,x6,x23
    5434:	0107cbb3          	xor	x23,x15,x16
    5438:	00c04cb3          	xor	x25,x0,x12
    543c:	0094c133          	xor	x2,x9,x9
    5440:	1a83899b          	addiw	x19,x7,424
    5444:	0168f7b3          	and	x15,x17,x22
    5448:	02e30933          	mul	x18,x6,x14
    544c:	027d5bbb          	divuw	x23,x26,x7
    5450:	00880e33          	add	x28,x16,x8
    5454:	01817b33          	and	x22,x2,x24
    5458:	782dc413          	xori	x8,x27,1922
    545c:	011a033b          	addw	x6,x20,x17
    5460:	026ee9b3          	rem	x19,x29,x6
    5464:	400904b3          	sub	x9,x18,x0
    5468:	03405fbb          	divuw	x31,x0,x20
    546c:	02a6563b          	divuw	x12,x12,x10
    5470:	024a4633          	div	x12,x20,x4
    5474:	02220ab3          	mul	x21,x4,x2
    5478:	0191083b          	addw	x16,x2,x25
    547c:	01e200b3          	add	x1,x4,x30
    5480:	0329873b          	mulw	x14,x19,x18
    5484:	034d8db3          	mul	x27,x27,x20
    5488:	40ca03bb          	subw	x7,x20,x12
    548c:	40730eb3          	sub	x29,x6,x7
    5490:	cb25c213          	xori	x4,x11,-846
    5494:	8a77ce93          	xori	x29,x15,-1881
    5498:	027fdd33          	divu	x26,x31,x7
    549c:	84d0849b          	addiw	x9,x1,-1971
    54a0:	4d35c593          	xori	x11,x11,1235
    54a4:	07c58d13          	addi	x26,x11,124
    54a8:	0321ed33          	rem	x26,x3,x18
    54ac:	03d85e3b          	divuw	x28,x16,x29
    54b0:	02b0583b          	divuw	x16,x0,x11
    54b4:	03c1483b          	divw	x16,x2,x28
    54b8:	c654cd13          	xori	x26,x9,-923
    54bc:	00fe4c33          	xor	x24,x28,x15
    54c0:	04aecb13          	xori	x22,x29,74
    54c4:	da32821b          	addiw	x4,x5,-605
    54c8:	02c700bb          	mulw	x1,x14,x12
    54cc:	03936db3          	rem	x27,x6,x25
    54d0:	3da36193          	ori	x3,x6,986
    54d4:	0183f933          	and	x18,x7,x24
    54d8:	03fb54b3          	divu	x9,x22,x31
    54dc:	032440b3          	div	x1,x8,x18
    54e0:	0293dabb          	divuw	x21,x7,x9
    54e4:	01def733          	and	x14,x29,x29
    54e8:	0336db3b          	divuw	x22,x13,x19
    54ec:	fd12c093          	xori	x1,x5,-47
    54f0:	0088eb33          	or	x22,x17,x8
    54f4:	00cb843b          	addw	x8,x23,x12
    54f8:	00a949b3          	xor	x19,x18,x10
    54fc:	4b7ffa93          	andi	x21,x31,1207
    5500:	0382fd33          	remu	x26,x5,x24
    5504:	00cdfc33          	and	x24,x27,x12
    5508:	03aad0bb          	divuw	x1,x21,x26
    550c:	0399e1bb          	remw	x3,x19,x25
    5510:	018087b3          	add	x15,x1,x24
    5514:	01b4cdb3          	xor	x27,x9,x27
    5518:	457c881b          	addiw	x16,x25,1111
    551c:	9c28881b          	addiw	x16,x17,-1598
    5520:	02de08bb          	mulw	x17,x28,x13
    5524:	03b5fdbb          	remuw	x27,x11,x27
    5528:	b653099b          	addiw	x19,x6,-1179
    552c:	030e4abb          	divw	x21,x28,x16
    5530:	c04c839b          	addiw	x7,x25,-1020
    5534:	41e0813b          	subw	x2,x1,x30
    5538:	f8dceb13          	ori	x22,x25,-115
    553c:	ef5bef13          	ori	x30,x23,-267
    5540:	01bd8433          	add	x8,x27,x27
    5544:	03e6f5b3          	remu	x11,x13,x30
    5548:	0371c33b          	divw	x6,x3,x23
    554c:	0272d333          	divu	x6,x5,x7
    5550:	03760d33          	mul	x26,x12,x23
    5554:	a7a3c513          	xori	x10,x7,-1414
    5558:	d7fa0f93          	addi	x31,x20,-641
    555c:	02387fbb          	remuw	x31,x16,x3
    5560:	03444533          	div	x10,x8,x20
    5564:	029dcab3          	div	x21,x27,x9
    5568:	035cf2b3          	remu	x5,x25,x21
    556c:	02720333          	mul	x6,x4,x7
    5570:	e3118a1b          	addiw	x20,x3,-463
    5574:	03e78a33          	mul	x20,x15,x30
    5578:	015c0f3b          	addw	x30,x24,x21
    557c:	a168ee13          	ori	x28,x17,-1514
    5580:	01c109bb          	addw	x19,x2,x28
    5584:	0296773b          	remuw	x14,x12,x9
    5588:	bcc5819b          	addiw	x3,x11,-1076
    558c:	0287d8b3          	divu	x17,x15,x8
    5590:	034a68bb          	remw	x17,x20,x20
    5594:	03f2f7b3          	remu	x15,x5,x31
    5598:	02f9e5b3          	rem	x11,x19,x15
    559c:	029bf9b3          	remu	x19,x23,x9
    55a0:	41b788bb          	subw	x17,x15,x27
    55a4:	02f25fbb          	divuw	x31,x4,x15
    55a8:	41400833          	neg	x16,x20
    55ac:	0389073b          	mulw	x14,x18,x24
    55b0:	a215c993          	xori	x19,x11,-1503
    55b4:	039a09bb          	mulw	x19,x20,x25
    55b8:	11954493          	xori	x9,x10,281
    55bc:	01da0c33          	add	x24,x20,x29
    55c0:	5b85861b          	addiw	x12,x11,1464
    55c4:	40fd0633          	sub	x12,x26,x15
    55c8:	525d0c93          	addi	x25,x26,1317
    55cc:	0225c5b3          	div	x11,x11,x2
    55d0:	024debb3          	rem	x23,x27,x4
    55d4:	01a545b3          	xor	x11,x10,x26
    55d8:	40ef8633          	sub	x12,x31,x14
    55dc:	015c74b3          	and	x9,x24,x21
    55e0:	40a788b3          	sub	x17,x15,x10
    55e4:	01867233          	and	x4,x12,x24
    55e8:	40f2853b          	subw	x10,x5,x15
    55ec:	028a4833          	div	x16,x20,x8
    55f0:	3de28c1b          	addiw	x24,x5,990
    55f4:	0059043b          	addw	x8,x18,x5
    55f8:	0006f933          	and	x18,x13,x0
    55fc:	01cd8fbb          	addw	x31,x27,x28
    5600:	0244e733          	rem	x14,x9,x4
    5604:	5a1d0d13          	addi	x26,x26,1441
    5608:	02ecfb33          	remu	x22,x25,x14
    560c:	41070733          	sub	x14,x14,x16
    5610:	0206623b          	remw	x4,x12,x0
    5614:	0377f4b3          	remu	x9,x15,x23
    5618:	41548f33          	sub	x30,x9,x21
    561c:	01a78333          	add	x6,x15,x26
    5620:	4dec7693          	andi	x13,x24,1246
    5624:	02d959b3          	divu	x19,x18,x13
    5628:	406681bb          	subw	x3,x13,x6
    562c:	036becb3          	rem	x25,x23,x22
    5630:	40258cb3          	sub	x25,x11,x2
    5634:	41fa8c3b          	subw	x24,x21,x31
    5638:	02dadbb3          	divu	x23,x21,x13
