
temp_disassemble.elf:     file format elf64-littleriscv


Disassembly of section .text:

0000000000000000 <_binary_lab1_test_bin_start>:
       0:	012508b3          	add	x17,x10,x18
       4:	41528c3b          	subw	x24,x5,x21
       8:	fc4c7113          	andi	x2,x24,-60
       c:	009600b3          	add	x1,x12,x9
      10:	cd930d93          	addi	x27,x6,-807
      14:	41cd8b3b          	subw	x22,x27,x28
      18:	00858c33          	add	x24,x11,x8
      1c:	5f3cc193          	xori	x3,x25,1523
      20:	00cd05b3          	add	x11,x26,x12
      24:	00b0f833          	and	x16,x1,x11
      28:	1c088413          	addi	x8,x17,448
      2c:	00996bb3          	or	x23,x18,x9
      30:	7443831b          	addiw	x6,x7,1860
      34:	012a0393          	addi	x7,x20,18
      38:	e4758c93          	addi	x25,x11,-441
      3c:	40998033          	sub	x0,x19,x9
      40:	401000b3          	neg	x1,x1
      44:	413e0233          	sub	x4,x28,x19
      48:	fc737f93          	andi	x31,x6,-57
      4c:	41d60dbb          	subw	x27,x12,x29
      50:	051b6513          	ori	x10,x22,81
      54:	40ca02bb          	subw	x5,x20,x12
      58:	77a57d93          	andi	x27,x10,1914
      5c:	011583bb          	addw	x7,x11,x17
      60:	00df05b3          	add	x11,x30,x13
      64:	2b99c493          	xori	x9,x19,697
      68:	404d86bb          	subw	x13,x27,x4
      6c:	40340fb3          	sub	x31,x8,x3
      70:	b7bd4613          	xori	x12,x26,-1157
      74:	988a4813          	xori	x16,x20,-1656
      78:	01698e33          	add	x28,x19,x22
      7c:	00b4f233          	and	x4,x9,x11
      80:	76de4193          	xori	x3,x28,1901
      84:	01d37733          	and	x14,x6,x29
      88:	0046c3b3          	xor	x7,x13,x4
      8c:	f994871b          	addiw	x14,x9,-103
      90:	e3e24e93          	xori	x29,x4,-450
      94:	9af3f513          	andi	x10,x7,-1617
      98:	006cf233          	and	x4,x25,x6
      9c:	a318f813          	andi	x16,x17,-1487
      a0:	017c4cb3          	xor	x25,x24,x23
      a4:	40c48233          	sub	x4,x9,x12
      a8:	00288433          	add	x8,x17,x2
      ac:	01730833          	add	x16,x6,x23
      b0:	00e000bb          	addw	x1,x0,x14
      b4:	41070233          	sub	x4,x14,x16
      b8:	41bf81b3          	sub	x3,x31,x27
      bc:	0025feb3          	and	x29,x11,x2
      c0:	017848b3          	xor	x17,x16,x23
      c4:	145ac213          	xori	x4,x21,325
      c8:	40be8bb3          	sub	x23,x29,x11
      cc:	0113e3b3          	or	x7,x7,x17
      d0:	404a8bb3          	sub	x23,x21,x4
      d4:	0092f933          	and	x18,x5,x9
      d8:	bdcb0413          	addi	x8,x22,-1060
      dc:	42530c13          	addi	x24,x6,1061
      e0:	0178ef33          	or	x30,x17,x23
      e4:	016a05bb          	addw	x11,x20,x22
      e8:	01ccebb3          	or	x23,x25,x28
      ec:	012afbb3          	and	x23,x21,x18
      f0:	01ff6eb3          	or	x29,x30,x31
      f4:	017401bb          	addw	x3,x8,x23
      f8:	78997393          	andi	x7,x18,1929
      fc:	0166fdb3          	and	x27,x13,x22
     100:	01560533          	add	x10,x12,x21
     104:	01c66933          	or	x18,x12,x28
     108:	4138053b          	subw	x10,x16,x19
     10c:	d3ecf793          	andi	x15,x25,-706
     110:	af1a8993          	addi	x19,x21,-1295
     114:	0009ef33          	or	x30,x19,x0
     118:	012d8b33          	add	x22,x27,x18
     11c:	00dcc933          	xor	x18,x25,x13
     120:	7784089b          	addiw	x17,x8,1912
     124:	004b043b          	addw	x8,x22,x4
     128:	01e8f333          	and	x6,x17,x30
     12c:	01dfe733          	or	x14,x31,x29
     130:	403a80b3          	sub	x1,x21,x3
     134:	d4eae993          	ori	x19,x21,-690
     138:	00eac233          	xor	x4,x21,x14
     13c:	41c003b3          	neg	x7,x28
     140:	bf42cb13          	xori	x22,x5,-1036
     144:	019e6e33          	or	x28,x28,x25
     148:	0186e033          	or	x0,x13,x24
     14c:	415700bb          	subw	x1,x14,x21
     150:	0065873b          	addw	x14,x11,x6
     154:	41fb893b          	subw	x18,x23,x31
     158:	aab70b1b          	addiw	x22,x14,-1365
     15c:	419a823b          	subw	x4,x21,x25
     160:	41dd043b          	subw	x8,x26,x29
     164:	476a4413          	xori	x8,x20,1142
     168:	0157883b          	addw	x16,x15,x21
     16c:	01c34f33          	xor	x30,x6,x28
     170:	403c8a3b          	subw	x20,x25,x3
     174:	0190f7b3          	and	x15,x1,x25
     178:	018bc3b3          	xor	x7,x23,x24
     17c:	0118e8b3          	or	x17,x17,x17
     180:	01366eb3          	or	x29,x12,x19
     184:	7ffa001b          	addiw	x0,x20,2047
     188:	0032c233          	xor	x4,x5,x3
     18c:	019d62b3          	or	x5,x26,x25
     190:	01eb7fb3          	and	x31,x22,x30
     194:	a10b0813          	addi	x16,x22,-1520
     198:	0149f0b3          	and	x1,x19,x20
     19c:	01c7093b          	addw	x18,x14,x28
     1a0:	00a24eb3          	xor	x29,x4,x10
     1a4:	00874f33          	xor	x30,x14,x8
     1a8:	00080733          	add	x14,x16,x0
     1ac:	003572b3          	and	x5,x10,x3
     1b0:	0175093b          	addw	x18,x10,x23
     1b4:	28eb8693          	addi	x13,x23,654
     1b8:	4a2cf913          	andi	x18,x25,1186
     1bc:	01576593          	ori	x11,x14,21
     1c0:	011664b3          	or	x9,x12,x17
     1c4:	01d0e6b3          	or	x13,x1,x29
     1c8:	01986533          	or	x10,x16,x25
     1cc:	00e6fcb3          	and	x25,x13,x14
     1d0:	00116633          	or	x12,x2,x1
     1d4:	00604733          	xor	x14,x0,x6
     1d8:	40bf8433          	sub	x8,x31,x11
     1dc:	016beeb3          	or	x29,x23,x22
     1e0:	011bfbb3          	and	x23,x23,x17
     1e4:	38c54f93          	xori	x31,x10,908
     1e8:	00baf2b3          	and	x5,x21,x11
     1ec:	00956e33          	or	x28,x10,x9
     1f0:	00c503b3          	add	x7,x10,x12
     1f4:	cb988793          	addi	x15,x17,-839
     1f8:	00bbcab3          	xor	x21,x23,x11
     1fc:	01218bb3          	add	x23,x3,x18
     200:	005cfcb3          	and	x25,x25,x5
     204:	ef9fcb13          	xori	x22,x31,-263
     208:	01848d3b          	addw	x26,x9,x24
     20c:	41fb06b3          	sub	x13,x22,x31
     210:	00996d33          	or	x26,x18,x9
     214:	65117013          	andi	x0,x2,1617
     218:	4fb67c13          	andi	x24,x12,1275
     21c:	010f05b3          	add	x11,x30,x16
     220:	011e83bb          	addw	x7,x29,x17
     224:	00a005bb          	addw	x11,x0,x10
     228:	9b3e7313          	andi	x6,x28,-1613
     22c:	40478733          	sub	x14,x15,x4
     230:	013c8d3b          	addw	x26,x25,x19
     234:	00cdeeb3          	or	x29,x27,x12
     238:	194fec13          	ori	x24,x31,404
     23c:	010c8dbb          	addw	x27,x25,x16
     240:	015047b3          	xor	x15,x0,x21
     244:	0122e4b3          	or	x9,x5,x18
     248:	011086bb          	addw	x13,x1,x17
     24c:	001967b3          	or	x15,x18,x1
     250:	012c8433          	add	x8,x25,x18
     254:	c8876013          	ori	x0,x14,-888
     258:	3225cc13          	xori	x24,x11,802
     25c:	151bce93          	xori	x29,x23,337
     260:	d2f3e993          	ori	x19,x7,-721
     264:	0065093b          	addw	x18,x10,x6
     268:	7daceb13          	ori	x22,x25,2010
     26c:	75740493          	addi	x9,x8,1879
     270:	01908133          	add	x2,x1,x25
     274:	a46d8a13          	addi	x20,x27,-1466
     278:	a0536713          	ori	x14,x6,-1531
     27c:	40c18fbb          	subw	x31,x3,x12
     280:	01364733          	xor	x14,x12,x19
     284:	013de7b3          	or	x15,x27,x19
     288:	00c772b3          	and	x5,x14,x12
     28c:	01090833          	add	x16,x18,x16
     290:	424a0f1b          	addiw	x30,x20,1060
     294:	44cfc913          	xori	x18,x31,1100
     298:	0152e2b3          	or	x5,x5,x21
     29c:	01ca6333          	or	x6,x20,x28
     2a0:	4cd30e9b          	addiw	x29,x6,1229
     2a4:	018ccab3          	xor	x21,x25,x24
     2a8:	418c8533          	sub	x10,x25,x24
     2ac:	0101e933          	or	x18,x3,x16
     2b0:	005801bb          	addw	x3,x16,x5
     2b4:	403c0a33          	sub	x20,x24,x3
     2b8:	d9450193          	addi	x3,x10,-620
     2bc:	01b57c33          	and	x24,x10,x27
     2c0:	00b50b3b          	addw	x22,x10,x11
     2c4:	006ec3b3          	xor	x7,x29,x6
     2c8:	d69fe893          	ori	x17,x31,-663
     2cc:	39e56a13          	ori	x20,x10,926
     2d0:	01028c33          	add	x24,x5,x16
     2d4:	7334051b          	addiw	x10,x8,1843
     2d8:	0e1f6393          	ori	x7,x30,225
     2dc:	00fd88b3          	add	x17,x27,x15
     2e0:	6f3c029b          	addiw	x5,x24,1779
     2e4:	405f87bb          	subw	x15,x31,x5
     2e8:	47ff6413          	ori	x8,x30,1151
     2ec:	0058033b          	addw	x6,x16,x5
     2f0:	019d883b          	addw	x16,x27,x25
     2f4:	017b8d9b          	addiw	x27,x23,23
     2f8:	003a0333          	add	x6,x20,x3
     2fc:	2f6f7e13          	andi	x28,x30,758
     300:	d633e413          	ori	x8,x7,-669
     304:	2c39c593          	xori	x11,x19,707
     308:	01708333          	add	x6,x1,x23
     30c:	00477433          	and	x8,x14,x4
     310:	00de7133          	and	x2,x28,x13
     314:	e8a60c13          	addi	x24,x12,-374
     318:	01750933          	add	x18,x10,x23
     31c:	409c8433          	sub	x8,x25,x9
     320:	01e288b3          	add	x17,x5,x30
     324:	40ae0033          	sub	x0,x28,x10
     328:	009df8b3          	and	x17,x27,x9
     32c:	853ae413          	ori	x8,x21,-1965
     330:	220ce613          	ori	x12,x25,544
     334:	007d77b3          	and	x15,x26,x7
     338:	404c8a33          	sub	x20,x25,x4
     33c:	ab5b4e13          	xori	x28,x22,-1355
     340:	8fb5cd13          	xori	x26,x11,-1797
     344:	00ffeb33          	or	x22,x31,x15
     348:	402a8ebb          	subw	x29,x21,x2
     34c:	00b1c6b3          	xor	x13,x3,x11
     350:	00157bb3          	and	x23,x10,x1
     354:	000572b3          	and	x5,x10,x0
     358:	00c76533          	or	x10,x14,x12
     35c:	006861b3          	or	x3,x16,x6
     360:	0175ec33          	or	x24,x11,x23
     364:	40b90333          	sub	x6,x18,x11
     368:	01db0c3b          	addw	x24,x22,x29
     36c:	11960e9b          	addiw	x29,x12,281
     370:	01067533          	and	x10,x12,x16
     374:	00337f33          	and	x30,x6,x3
     378:	b74ac493          	xori	x9,x21,-1164
     37c:	d77b8193          	addi	x3,x23,-649
     380:	d3184593          	xori	x11,x16,-719
     384:	018de8b3          	or	x17,x27,x24
     388:	40ad85b3          	sub	x11,x27,x10
     38c:	00d70a3b          	addw	x20,x14,x13
     390:	018bfa33          	and	x20,x23,x24
     394:	f4c4031b          	addiw	x6,x8,-180
     398:	008df433          	and	x8,x27,x8
     39c:	016c87bb          	addw	x15,x25,x22
     3a0:	89c68b93          	addi	x23,x13,-1892
     3a4:	84867b13          	andi	x22,x12,-1976
     3a8:	00b78733          	add	x14,x15,x11
     3ac:	4030063b          	negw	x12,x3
     3b0:	3ca14093          	xori	x1,x2,970
     3b4:	a7640693          	addi	x13,x8,-1418
     3b8:	b643829b          	addiw	x5,x7,-1180
     3bc:	00016833          	or	x16,x2,x0
     3c0:	009278b3          	and	x17,x4,x9
     3c4:	0008043b          	addw	x8,x16,x0
     3c8:	00dc06bb          	addw	x13,x24,x13
     3cc:	005062b3          	or	x5,x0,x5
     3d0:	00e68bb3          	add	x23,x13,x14
     3d4:	21604813          	xori	x16,x0,534
     3d8:	014ffd33          	and	x26,x31,x20
     3dc:	0116863b          	addw	x12,x13,x17
     3e0:	011e8eb3          	add	x29,x29,x17
     3e4:	1a4ec813          	xori	x16,x29,420
     3e8:	01da0db3          	add	x27,x20,x29
     3ec:	012100b3          	add	x1,x2,x18
     3f0:	40370033          	sub	x0,x14,x3
     3f4:	012df213          	andi	x4,x27,18
     3f8:	00bb8e3b          	addw	x28,x23,x11
     3fc:	1fa34293          	xori	x5,x6,506
     400:	6e84cf93          	xori	x31,x9,1768
     404:	fbcb4613          	xori	x12,x22,-68
     408:	414b8db3          	sub	x27,x23,x20
     40c:	aad6f913          	andi	x18,x13,-1363
     410:	01d44eb3          	xor	x29,x8,x29
     414:	1cf60113          	addi	x2,x12,463
     418:	c133051b          	addiw	x10,x6,-1005
     41c:	c3b90e9b          	addiw	x29,x18,-965
     420:	413d82bb          	subw	x5,x27,x19
     424:	a2a60413          	addi	x8,x12,-1494
     428:	01d1e533          	or	x10,x3,x29
     42c:	01687633          	and	x12,x16,x22
     430:	e97d069b          	addiw	x13,x26,-361
     434:	aa880c93          	addi	x25,x16,-1368
     438:	58c1041b          	addiw	x8,x2,1420
     43c:	008a84bb          	addw	x9,x21,x8
     440:	050f8013          	addi	x0,x31,80
     444:	016a07bb          	addw	x15,x20,x22
     448:	417188b3          	sub	x17,x3,x23
     44c:	40f78c3b          	subw	x24,x15,x15
     450:	673e031b          	addiw	x6,x28,1651
     454:	014971b3          	and	x3,x18,x20
     458:	b82d859b          	addiw	x11,x27,-1150
     45c:	01450733          	add	x14,x10,x20
     460:	00d487b3          	add	x15,x9,x13
     464:	000ce2b3          	or	x5,x25,x0
     468:	013189bb          	addw	x19,x3,x19
     46c:	01b76733          	or	x14,x14,x27
     470:	40a38633          	sub	x12,x7,x10
     474:	00520933          	add	x18,x4,x5
     478:	4c524613          	xori	x12,x4,1221
     47c:	a91e4613          	xori	x12,x28,-1391
     480:	012883b3          	add	x7,x17,x18
     484:	006008b3          	add	x17,x0,x6
     488:	002cfab3          	and	x21,x25,x2
     48c:	126a7793          	andi	x15,x20,294
     490:	0196c3b3          	xor	x7,x13,x25
     494:	4096011b          	addiw	x2,x12,1033
     498:	00ff8f3b          	addw	x30,x31,x15
     49c:	013c40b3          	xor	x1,x24,x19
     4a0:	41618e33          	sub	x28,x3,x22
     4a4:	01d647b3          	xor	x15,x12,x29
     4a8:	36a90f13          	addi	x30,x18,874
     4ac:	007e6133          	or	x2,x28,x7
     4b0:	0009f633          	and	x12,x19,x0
     4b4:	2a1f7a93          	andi	x21,x30,673
     4b8:	6d610793          	addi	x15,x2,1750
     4bc:	003103b3          	add	x7,x2,x3
     4c0:	1dda8293          	addi	x5,x21,477
     4c4:	407309bb          	subw	x19,x6,x7
     4c8:	23a9f013          	andi	x0,x19,570
     4cc:	98e3c393          	xori	x7,x7,-1650
     4d0:	00e309bb          	addw	x19,x6,x14
     4d4:	00337d33          	and	x26,x6,x3
     4d8:	faf37513          	andi	x10,x6,-81
     4dc:	400a8033          	sub	x0,x21,x0
     4e0:	00538513          	addi	x10,x7,5
     4e4:	006f4033          	xor	x0,x30,x6
     4e8:	40720633          	sub	x12,x4,x7
     4ec:	7ab87213          	andi	x4,x16,1963
     4f0:	4090803b          	subw	x0,x1,x9
     4f4:	012080bb          	addw	x1,x1,x18
     4f8:	75ebf493          	andi	x9,x23,1886
     4fc:	408c8333          	sub	x6,x25,x8
     500:	ee007793          	andi	x15,x0,-288
     504:	11c9f493          	andi	x9,x19,284
     508:	6b7e6413          	ori	x8,x28,1719
     50c:	002f7e33          	and	x28,x30,x2
     510:	001002b3          	add	x5,x0,x1
     514:	00036eb3          	or	x29,x6,x0
     518:	41740f3b          	subw	x30,x8,x23
     51c:	234e819b          	addiw	x3,x29,564
     520:	01ec0ab3          	add	x21,x24,x30
     524:	1e10861b          	addiw	x12,x1,481
     528:	416504b3          	sub	x9,x10,x22
     52c:	c1e76093          	ori	x1,x14,-994
     530:	418d8733          	sub	x14,x27,x24
     534:	8897c493          	xori	x9,x15,-1911
     538:	00610e3b          	addw	x28,x2,x6
     53c:	2810f313          	andi	x6,x1,641
     540:	dc0f4313          	xori	x6,x30,-576
     544:	0106f6b3          	and	x13,x13,x16
     548:	00ff7233          	and	x4,x30,x15
     54c:	01f585bb          	addw	x11,x11,x31
     550:	00dbcb33          	xor	x22,x23,x13
     554:	01986ab3          	or	x21,x16,x25
     558:	01cc6233          	or	x4,x24,x28
     55c:	01af6333          	or	x6,x30,x26
     560:	e57e0e93          	addi	x29,x28,-425
     564:	410382b3          	sub	x5,x7,x16
     568:	20136293          	ori	x5,x6,513
     56c:	0154fdb3          	and	x27,x9,x21
     570:	b3e0e593          	ori	x11,x1,-1218
     574:	40d405bb          	subw	x11,x8,x13
     578:	01b20ab3          	add	x21,x4,x27
     57c:	c76ccf93          	xori	x31,x25,-906
     580:	004ff0b3          	and	x1,x31,x4
     584:	003b0f3b          	addw	x30,x22,x3
     588:	ecbfe293          	ori	x5,x31,-309
     58c:	418589b3          	sub	x19,x11,x24
     590:	fee2819b          	addiw	x3,x5,-18
     594:	013a0833          	add	x16,x20,x19
     598:	018773b3          	and	x7,x14,x24
     59c:	d7484393          	xori	x7,x16,-652
     5a0:	971bc213          	xori	x4,x23,-1679
     5a4:	01b0cbb3          	xor	x23,x1,x27
     5a8:	417b88b3          	sub	x17,x23,x23
     5ac:	41400cb3          	neg	x25,x20
     5b0:	01de7033          	and	x0,x28,x29
     5b4:	015bf933          	and	x18,x23,x21
     5b8:	001c6a33          	or	x20,x24,x1
     5bc:	0167f133          	and	x2,x15,x22
     5c0:	018f71b3          	and	x3,x30,x24
     5c4:	c5a0089b          	addiw	x17,x0,-934
     5c8:	01dc0533          	add	x10,x24,x29
     5cc:	430c4713          	xori	x14,x24,1072
     5d0:	a8750713          	addi	x14,x10,-1401
     5d4:	01be7db3          	and	x27,x28,x27
     5d8:	3c59811b          	addiw	x2,x19,965
     5dc:	417c8c3b          	subw	x24,x25,x23
     5e0:	38ac839b          	addiw	x7,x25,906
     5e4:	41798b3b          	subw	x22,x19,x23
     5e8:	0c288013          	addi	x0,x17,194
     5ec:	41840e3b          	subw	x28,x8,x24
     5f0:	01b960b3          	or	x1,x18,x27
     5f4:	00cac433          	xor	x8,x21,x12
     5f8:	018ff9b3          	and	x19,x31,x24
     5fc:	20b8041b          	addiw	x8,x16,523
     600:	98b96e93          	ori	x29,x18,-1653
     604:	00918b3b          	addw	x22,x3,x9
     608:	41fd8f3b          	subw	x30,x27,x31
     60c:	012c0333          	add	x6,x24,x18
     610:	b4bf7313          	andi	x6,x30,-1205
     614:	85fdc793          	xori	x15,x27,-1953
     618:	01a2c933          	xor	x18,x5,x26
     61c:	406b04b3          	sub	x9,x22,x6
     620:	03267f13          	andi	x30,x12,50
     624:	4306e893          	ori	x17,x13,1072
     628:	3894091b          	addiw	x18,x8,905
     62c:	01b861b3          	or	x3,x16,x27
     630:	011bedb3          	or	x27,x23,x17
     634:	019672b3          	and	x5,x12,x25
     638:	00898333          	add	x6,x19,x8
     63c:	007f40b3          	xor	x1,x30,x7
     640:	0022f933          	and	x18,x5,x2
     644:	017888bb          	addw	x17,x17,x23
     648:	01d88d33          	add	x26,x17,x29
     64c:	00e8e433          	or	x8,x17,x14
     650:	cc4f009b          	addiw	x1,x30,-828
     654:	005d0a33          	add	x20,x26,x5
     658:	49fbe193          	ori	x3,x23,1183
     65c:	01afc6b3          	xor	x13,x31,x26
     660:	010077b3          	and	x15,x0,x16
     664:	55a87d93          	andi	x27,x16,1370
     668:	62bec093          	xori	x1,x29,1579
     66c:	58d36313          	ori	x6,x6,1421
     670:	c0cc8a9b          	addiw	x21,x25,-1012
     674:	3553811b          	addiw	x2,x7,853
     678:	01e87f33          	and	x30,x16,x30
     67c:	41ce85b3          	sub	x11,x29,x28
     680:	405004b3          	neg	x9,x5
     684:	28f90c93          	addi	x25,x18,655
     688:	40dc8f33          	sub	x30,x25,x13
     68c:	013800b3          	add	x1,x16,x19
     690:	fd53ee13          	ori	x28,x7,-43
     694:	3fc56813          	ori	x16,x10,1020
     698:	6b808993          	addi	x19,x1,1720
     69c:	c5814013          	xori	x0,x2,-936
     6a0:	401087b3          	sub	x15,x1,x1
     6a4:	01200133          	add	x2,x0,x18
     6a8:	00f46333          	or	x6,x8,x15
     6ac:	21e94713          	xori	x14,x18,542
     6b0:	c7c40c9b          	addiw	x25,x8,-900
     6b4:	00628933          	add	x18,x5,x6
     6b8:	015385b3          	add	x11,x7,x21
     6bc:	bcac0613          	addi	x12,x24,-1078
     6c0:	00d9ecb3          	or	x25,x19,x13
     6c4:	40f40db3          	sub	x27,x8,x15
     6c8:	01ae7ab3          	and	x21,x28,x26
     6cc:	7307fe13          	andi	x28,x15,1840
     6d0:	0067ecb3          	or	x25,x15,x6
     6d4:	ef1b079b          	addiw	x15,x22,-271
     6d8:	40e00933          	neg	x18,x14
     6dc:	010be9b3          	or	x19,x23,x16
     6e0:	0e33e893          	ori	x17,x7,227
     6e4:	73157e13          	andi	x28,x10,1841
     6e8:	9c38099b          	addiw	x19,x16,-1597
     6ec:	4199033b          	subw	x6,x18,x25
     6f0:	99db7413          	andi	x8,x22,-1635
     6f4:	016d8fb3          	add	x31,x27,x22
     6f8:	003e0733          	add	x14,x28,x3
     6fc:	01104533          	xor	x10,x0,x17
     700:	01cd62b3          	or	x5,x26,x28
     704:	00897fb3          	and	x31,x18,x8
     708:	0104f233          	and	x4,x9,x16
     70c:	002a4bb3          	xor	x23,x20,x2
     710:	5e82f113          	andi	x2,x5,1512
     714:	60e2e693          	ori	x13,x5,1550
     718:	f8c1c113          	xori	x2,x3,-116
     71c:	4001003b          	subw	x0,x2,x0
     720:	0089f633          	and	x12,x19,x8
     724:	003e02bb          	addw	x5,x28,x3
     728:	01bae4b3          	or	x9,x21,x27
     72c:	0067843b          	addw	x8,x15,x6
     730:	9e31049b          	addiw	x9,x2,-1565
     734:	d5866793          	ori	x15,x12,-680
     738:	0065e513          	ori	x10,x11,6
     73c:	5cd96093          	ori	x1,x18,1485
     740:	014d03bb          	addw	x7,x26,x20
     744:	ab987213          	andi	x4,x16,-1351
     748:	00e70fbb          	addw	x31,x14,x14
     74c:	01c307bb          	addw	x15,x6,x28
     750:	b3ef4c13          	xori	x24,x30,-1218
     754:	a44e8f1b          	addiw	x30,x29,-1468
     758:	0055eab3          	or	x21,x11,x5
     75c:	f3a38b13          	addi	x22,x7,-198
     760:	dd5a061b          	addiw	x12,x20,-555
     764:	00adc5b3          	xor	x11,x27,x10
     768:	10f28f93          	addi	x31,x5,271
     76c:	aeb90893          	addi	x17,x18,-1301
     770:	fddd839b          	addiw	x7,x27,-35
     774:	00597db3          	and	x27,x18,x5
     778:	83767b13          	andi	x22,x12,-1993
     77c:	2e064a93          	xori	x21,x12,736
     780:	41f90f3b          	subw	x30,x18,x31
     784:	94038313          	addi	x6,x7,-1728
     788:	621d081b          	addiw	x16,x26,1569
     78c:	007d8dbb          	addw	x27,x27,x7
     790:	014bcab3          	xor	x21,x23,x20
     794:	002a083b          	addw	x16,x20,x2
     798:	00084eb3          	xor	x29,x16,x0
     79c:	12a0029b          	addiw	x5,x0,298
     7a0:	40998cb3          	sub	x25,x19,x9
     7a4:	00bc01bb          	addw	x3,x24,x11
     7a8:	405d80bb          	subw	x1,x27,x5
     7ac:	3c130913          	addi	x18,x6,961
     7b0:	f46e4713          	xori	x14,x28,-186
     7b4:	01d2f033          	and	x0,x5,x29
     7b8:	efa5f213          	andi	x4,x11,-262
     7bc:	73ef8c9b          	addiw	x25,x31,1854
     7c0:	b0930513          	addi	x10,x6,-1271
     7c4:	35220e1b          	addiw	x28,x4,850 # 352 <_binary_lab1_test_bin_start+0x352>
     7c8:	95137213          	andi	x4,x6,-1711
     7cc:	092b6e13          	ori	x28,x22,146
     7d0:	40d30b3b          	subw	x22,x6,x13
     7d4:	2750e813          	ori	x16,x1,629
     7d8:	d11e7913          	andi	x18,x28,-751
     7dc:	0091ea33          	or	x20,x3,x9
     7e0:	41180cbb          	subw	x25,x16,x17
     7e4:	7fdd8813          	addi	x16,x27,2045
     7e8:	000463b3          	or	x7,x8,x0
     7ec:	0138f033          	and	x0,x17,x19
     7f0:	306a029b          	addiw	x5,x20,774
     7f4:	ae2c8a9b          	addiw	x21,x25,-1310
     7f8:	30764c93          	xori	x25,x12,775
     7fc:	b2b4fe93          	andi	x29,x9,-1237
     800:	01bd883b          	addw	x16,x27,x27
     804:	40f08bb3          	sub	x23,x1,x15
     808:	01337f33          	and	x30,x6,x19
     80c:	002563b3          	or	x7,x10,x2
     810:	00f48e33          	add	x28,x9,x15
     814:	01626333          	or	x6,x4,x22
     818:	41e56613          	ori	x12,x10,1054
     81c:	002205b3          	add	x11,x4,x2
     820:	00f6e2b3          	or	x5,x13,x15
     824:	00c582bb          	addw	x5,x11,x12
     828:	00ee8f33          	add	x30,x29,x14
     82c:	404b813b          	subw	x2,x23,x4
     830:	08dff213          	andi	x4,x31,141
     834:	0185f333          	and	x6,x11,x24
     838:	019ce333          	or	x6,x25,x25
     83c:	cc53c393          	xori	x7,x7,-827
     840:	01674633          	xor	x12,x14,x22
     844:	00d00db3          	add	x27,x0,x13
     848:	a2f87a93          	andi	x21,x16,-1489
     84c:	01df68b3          	or	x17,x30,x29
     850:	8591e813          	ori	x16,x3,-1959
     854:	e02e0a9b          	addiw	x21,x28,-510
     858:	007201bb          	addw	x3,x4,x7
     85c:	01fdc2b3          	xor	x5,x27,x31
     860:	016b0cbb          	addw	x25,x22,x22
     864:	00340033          	add	x0,x8,x3
     868:	1c8dc813          	xori	x16,x27,456
     86c:	e4934593          	xori	x11,x6,-439
     870:	41348233          	sub	x4,x9,x19
     874:	0ac4069b          	addiw	x13,x8,172
     878:	9976081b          	addiw	x16,x12,-1641
     87c:	400a85bb          	subw	x11,x21,x0
     880:	01ab6733          	or	x14,x22,x26
     884:	01808a3b          	addw	x20,x1,x24
     888:	cff80593          	addi	x11,x16,-769
     88c:	01220a33          	add	x20,x4,x18
     890:	00628f3b          	addw	x30,x5,x6
     894:	1ec96593          	ori	x11,x18,492
     898:	40388fbb          	subw	x31,x17,x3
     89c:	003e8b3b          	addw	x22,x29,x3
     8a0:	576f8593          	addi	x11,x31,1398
     8a4:	004e0bb3          	add	x23,x28,x4
     8a8:	01e541b3          	xor	x3,x10,x30
     8ac:	9c39ef93          	ori	x31,x19,-1597
     8b0:	00facc33          	xor	x24,x21,x15
     8b4:	9551f493          	andi	x9,x3,-1707
     8b8:	0198c4b3          	xor	x9,x17,x25
     8bc:	40bc063b          	subw	x12,x24,x11
     8c0:	019c88b3          	add	x17,x25,x25
     8c4:	40fd073b          	subw	x14,x26,x15
     8c8:	b9c8099b          	addiw	x19,x16,-1124
     8cc:	401081bb          	subw	x3,x1,x1
     8d0:	01dccfb3          	xor	x31,x25,x29
     8d4:	0c140113          	addi	x2,x8,193
     8d8:	001fe433          	or	x8,x31,x1
     8dc:	01f44333          	xor	x6,x8,x31
     8e0:	41c18cb3          	sub	x25,x3,x28
     8e4:	008674b3          	and	x9,x12,x8
     8e8:	00e86933          	or	x18,x16,x14
     8ec:	01c86bb3          	or	x23,x16,x28
     8f0:	013f07b3          	add	x15,x30,x19
     8f4:	84980013          	addi	x0,x16,-1975
     8f8:	2ec9e313          	ori	x6,x19,748
     8fc:	003cce33          	xor	x28,x25,x3
     900:	411b05bb          	subw	x11,x22,x17
     904:	003dc033          	xor	x0,x27,x3
     908:	40298b33          	sub	x22,x19,x2
     90c:	0005e933          	or	x18,x11,x0
     910:	e8986293          	ori	x5,x16,-375
     914:	011000b3          	add	x1,x0,x17
     918:	fdafe793          	ori	x15,x31,-38
     91c:	2c6ae313          	ori	x6,x21,710
     920:	20960793          	addi	x15,x12,521
     924:	01d0c033          	xor	x0,x1,x29
     928:	cc870a1b          	addiw	x20,x14,-824
     92c:	01e68d33          	add	x26,x13,x30
     930:	9e59831b          	addiw	x6,x19,-1563
     934:	00266133          	or	x2,x12,x2
     938:	41480c3b          	subw	x24,x16,x20
     93c:	007af933          	and	x18,x21,x7
     940:	40998f33          	sub	x30,x19,x9
     944:	011be7b3          	or	x15,x23,x17
     948:	8be07393          	andi	x7,x0,-1858
     94c:	00c20533          	add	x10,x4,x12
     950:	018b76b3          	and	x13,x22,x24
     954:	41888d33          	sub	x26,x17,x24
     958:	00d2893b          	addw	x18,x5,x13
     95c:	01c8023b          	addw	x4,x16,x28
     960:	005180bb          	addw	x1,x3,x5
     964:	404f0ebb          	subw	x29,x30,x4
     968:	4063813b          	subw	x2,x7,x6
     96c:	00a548b3          	xor	x17,x10,x10
     970:	d5027e13          	andi	x28,x4,-688
     974:	015b0933          	add	x18,x22,x21
     978:	8dea7493          	andi	x9,x20,-1826
     97c:	40c00b33          	neg	x22,x12
     980:	05104f93          	xori	x31,x0,81
     984:	00c87f33          	and	x30,x16,x12
     988:	0160fdb3          	and	x27,x1,x22
     98c:	00bce0b3          	or	x1,x25,x11
     990:	fed64c93          	xori	x25,x12,-19
     994:	690a0693          	addi	x13,x20,1680
     998:	cc3ce713          	ori	x14,x25,-829
     99c:	4bb06313          	ori	x6,x0,1211
     9a0:	ed82881b          	addiw	x16,x5,-296
     9a4:	23cb6b13          	ori	x22,x22,572
     9a8:	bd0e8b93          	addi	x23,x29,-1072
     9ac:	01674c33          	xor	x24,x14,x22
     9b0:	01c1833b          	addw	x6,x3,x28
     9b4:	41120eb3          	sub	x29,x4,x17
     9b8:	01bb85bb          	addw	x11,x23,x27
     9bc:	001f8ebb          	addw	x29,x31,x1
     9c0:	1a7d4e93          	xori	x29,x26,423
     9c4:	a2f68f13          	addi	x30,x13,-1489
     9c8:	609fc093          	xori	x1,x31,1545
     9cc:	00020333          	add	x6,x4,x0
     9d0:	40f90f33          	sub	x30,x18,x15
     9d4:	4110063b          	negw	x12,x17
     9d8:	2911e993          	ori	x19,x3,657
     9dc:	c5c9c193          	xori	x3,x19,-932
     9e0:	417689b3          	sub	x19,x13,x23
     9e4:	499ef893          	andi	x17,x29,1177
     9e8:	41288fbb          	subw	x31,x17,x18
     9ec:	40568033          	sub	x0,x13,x5
     9f0:	41e588bb          	subw	x17,x11,x30
     9f4:	41398533          	sub	x10,x19,x19
     9f8:	17d4ef13          	ori	x30,x9,381
     9fc:	b177c113          	xori	x2,x15,-1257
     a00:	01e74f33          	xor	x30,x14,x30
     a04:	9a72c113          	xori	x2,x5,-1625
     a08:	00b48f3b          	addw	x30,x9,x11
     a0c:	014e0233          	add	x4,x28,x20
     a10:	21dc6f93          	ori	x31,x24,541
     a14:	24be819b          	addiw	x3,x29,587
     a18:	016c8c3b          	addw	x24,x25,x22
     a1c:	00c477b3          	and	x15,x8,x12
     a20:	b415891b          	addiw	x18,x11,-1215
     a24:	008ef5b3          	and	x11,x29,x8
     a28:	0ce70693          	addi	x13,x14,206
     a2c:	5c87ca93          	xori	x21,x15,1480
     a30:	40e90d33          	sub	x26,x18,x14
     a34:	010e893b          	addw	x18,x29,x16
     a38:	1bda831b          	addiw	x6,x21,445
     a3c:	0fb20213          	addi	x4,x4,251 # fb <_binary_lab1_test_bin_start+0xfb>
     a40:	0179e733          	or	x14,x19,x23
     a44:	41c70c33          	sub	x24,x14,x28
     a48:	548e6913          	ori	x18,x28,1352
     a4c:	01eec333          	xor	x6,x29,x30
     a50:	008e76b3          	and	x13,x28,x8
     a54:	013a4033          	xor	x0,x20,x19
     a58:	a1118c13          	addi	x24,x3,-1519
     a5c:	95156013          	ori	x0,x10,-1711
     a60:	75f1f513          	andi	x10,x3,1887
     a64:	40d30033          	sub	x0,x6,x13
     a68:	5ea5f413          	andi	x8,x11,1514
     a6c:	004c86bb          	addw	x13,x25,x4
     a70:	4089861b          	addiw	x12,x19,1032
     a74:	f295ec13          	ori	x24,x11,-215
     a78:	411f0a33          	sub	x20,x30,x17
     a7c:	c8e77f93          	andi	x31,x14,-882
     a80:	41820eb3          	sub	x29,x4,x24
     a84:	2baaea13          	ori	x20,x21,698
     a88:	a54ccb13          	xori	x22,x25,-1452
     a8c:	003c8d3b          	addw	x26,x25,x3
     a90:	eed04513          	xori	x10,x0,-275
     a94:	b31e8813          	addi	x16,x29,-1231
     a98:	40c10d33          	sub	x26,x2,x12
     a9c:	01738333          	add	x6,x7,x23
     aa0:	6362fc13          	andi	x24,x5,1590
     aa4:	682d0213          	addi	x4,x26,1666
     aa8:	019287bb          	addw	x15,x5,x25
     aac:	a56f6213          	ori	x4,x30,-1450
     ab0:	01664a33          	xor	x20,x12,x22
     ab4:	00390833          	add	x16,x18,x3
     ab8:	016ee8b3          	or	x17,x29,x22
     abc:	c62df293          	andi	x5,x27,-926
     ac0:	00b98a33          	add	x20,x19,x11
     ac4:	401f06bb          	subw	x13,x30,x1
     ac8:	41268233          	sub	x4,x13,x18
     acc:	f5034093          	xori	x1,x6,-176
     ad0:	aeae029b          	addiw	x5,x28,-1302
     ad4:	00c1ecb3          	or	x25,x3,x12
     ad8:	016d0133          	add	x2,x26,x22
     adc:	73254c93          	xori	x25,x10,1842
     ae0:	ac670793          	addi	x15,x14,-1338
     ae4:	013c8133          	add	x2,x25,x19
     ae8:	00660f3b          	addw	x30,x12,x6
     aec:	fe438513          	addi	x10,x7,-28
     af0:	542f4f93          	xori	x31,x30,1346
     af4:	f8b40b13          	addi	x22,x8,-117
     af8:	85300e1b          	addiw	x28,x0,-1965
     afc:	406a88bb          	subw	x17,x21,x6
     b00:	36286a93          	ori	x21,x16,866
     b04:	00276433          	or	x8,x14,x2
     b08:	01c8f933          	and	x18,x17,x28
     b0c:	00c17fb3          	and	x31,x2,x12
     b10:	41ca8a33          	sub	x20,x21,x28
     b14:	ad2e4993          	xori	x19,x28,-1326
     b18:	41ae8f33          	sub	x30,x29,x26
     b1c:	728be893          	ori	x17,x23,1832
     b20:	7ebcfa13          	andi	x20,x25,2027
     b24:	0052c6b3          	xor	x13,x5,x5
     b28:	ce677293          	andi	x5,x14,-794
     b2c:	00e501bb          	addw	x3,x10,x14
     b30:	41510b3b          	subw	x22,x2,x21
     b34:	41c98ebb          	subw	x29,x19,x28
     b38:	00230dbb          	addw	x27,x6,x2
     b3c:	b5488413          	addi	x8,x17,-1196
     b40:	5f14e113          	ori	x2,x9,1521
     b44:	00cb8abb          	addw	x21,x23,x12
     b48:	01d642b3          	xor	x5,x12,x29
     b4c:	306d8f13          	addi	x30,x27,774
     b50:	019fc6b3          	xor	x13,x31,x25
     b54:	00136633          	or	x12,x6,x1
     b58:	00fe73b3          	and	x7,x28,x15
     b5c:	bc7def13          	ori	x30,x27,-1081
     b60:	404a8033          	sub	x0,x21,x4
     b64:	5ca0ca93          	xori	x21,x1,1482
     b68:	f9dd6593          	ori	x11,x26,-99
     b6c:	405d00b3          	sub	x1,x26,x5
     b70:	2eb4ee93          	ori	x29,x9,747
     b74:	403f013b          	subw	x2,x30,x3
     b78:	01ff7d33          	and	x26,x30,x31
     b7c:	6f1de293          	ori	x5,x27,1777
     b80:	01e64c33          	xor	x24,x12,x30
     b84:	40fb0dbb          	subw	x27,x22,x15
     b88:	0016c5b3          	xor	x11,x13,x1
     b8c:	f5d14113          	xori	x2,x2,-163
     b90:	dd2ee593          	ori	x11,x29,-558
     b94:	011663b3          	or	x7,x12,x17
     b98:	9a588b9b          	addiw	x23,x17,-1627
     b9c:	000a64b3          	or	x9,x20,x0
     ba0:	00e888b3          	add	x17,x17,x14
     ba4:	00ce4db3          	xor	x27,x28,x12
     ba8:	e3b97413          	andi	x8,x18,-453
     bac:	40548333          	sub	x6,x9,x5
     bb0:	01e86c33          	or	x24,x16,x30
     bb4:	8cfde013          	ori	x0,x27,-1841
     bb8:	f2837b13          	andi	x22,x6,-216
     bbc:	8ca04993          	xori	x19,x0,-1846
     bc0:	774f0e13          	addi	x28,x30,1908
     bc4:	40c78cb3          	sub	x25,x15,x12
     bc8:	41250db3          	sub	x27,x10,x18
     bcc:	c4c9ef93          	ori	x31,x19,-948
     bd0:	40240cb3          	sub	x25,x8,x2
     bd4:	015d8233          	add	x4,x27,x21
     bd8:	40c282b3          	sub	x5,x5,x12
     bdc:	41200fb3          	neg	x31,x18
     be0:	af9c0693          	addi	x13,x24,-1287
     be4:	00006f33          	or	x30,x0,x0
     be8:	017246b3          	xor	x13,x4,x23
     bec:	7d74fa13          	andi	x20,x9,2007
     bf0:	017e62b3          	or	x5,x28,x23
     bf4:	4f6c7913          	andi	x18,x24,1270
     bf8:	00a10a3b          	addw	x20,x2,x10
     bfc:	01c48eb3          	add	x29,x9,x28
     c00:	40af05b3          	sub	x11,x30,x10
     c04:	a7306c13          	ori	x24,x0,-1421
     c08:	33354d13          	xori	x26,x10,819
     c0c:	5f4bc213          	xori	x4,x23,1524
     c10:	40220233          	sub	x4,x4,x2
     c14:	8b304f93          	xori	x31,x0,-1869
     c18:	98df8e1b          	addiw	x28,x31,-1651
     c1c:	1a77e993          	ori	x19,x15,423
     c20:	006f00bb          	addw	x1,x30,x6
     c24:	006c6eb3          	or	x29,x24,x6
     c28:	00df87b3          	add	x15,x31,x13
     c2c:	013403bb          	addw	x7,x8,x19
     c30:	00776233          	or	x4,x14,x7
     c34:	3f32879b          	addiw	x15,x5,1011
     c38:	00c4f133          	and	x2,x9,x12
     c3c:	014ff733          	and	x14,x31,x20
     c40:	6d9f4713          	xori	x14,x30,1753
     c44:	011c7cb3          	and	x25,x24,x17
     c48:	e7ed0e9b          	addiw	x29,x26,-386
     c4c:	b77d891b          	addiw	x18,x27,-1161
     c50:	003b7eb3          	and	x29,x22,x3
     c54:	cffe0f9b          	addiw	x31,x28,-769
     c58:	40490bb3          	sub	x23,x18,x4
     c5c:	e9ae0d13          	addi	x26,x28,-358
     c60:	0001e0b3          	or	x1,x3,x0
     c64:	e8f16713          	ori	x14,x2,-369
     c68:	01af0cbb          	addw	x25,x30,x26
     c6c:	32b9c113          	xori	x2,x19,811
     c70:	01464533          	xor	x10,x12,x20
     c74:	01948c33          	add	x24,x9,x25
     c78:	01e5f9b3          	and	x19,x11,x30
     c7c:	01bd09b3          	add	x19,x26,x27
     c80:	2671fb13          	andi	x22,x3,615
     c84:	ad7fc993          	xori	x19,x31,-1321
     c88:	04e7f013          	andi	x0,x15,78
     c8c:	003d0b3b          	addw	x22,x26,x3
     c90:	f8d8c113          	xori	x2,x17,-115
     c94:	623b8913          	addi	x18,x23,1571
     c98:	ae9dc413          	xori	x8,x27,-1303
     c9c:	004f6c33          	or	x24,x30,x4
     ca0:	b641859b          	addiw	x11,x3,-1180
     ca4:	a7af8993          	addi	x19,x31,-1414
     ca8:	0023ce33          	xor	x28,x7,x2
     cac:	013f0fbb          	addw	x31,x30,x19
     cb0:	011a06bb          	addw	x13,x20,x17
     cb4:	41a67f93          	andi	x31,x12,1050
     cb8:	01720f3b          	addw	x30,x4,x23
     cbc:	489ac013          	xori	x0,x21,1161
     cc0:	4157823b          	subw	x4,x15,x21
     cc4:	3ffeed93          	ori	x27,x29,1023
     cc8:	4f34fe93          	andi	x29,x9,1267
     ccc:	00906db3          	or	x27,x0,x9
     cd0:	de1bc613          	xori	x12,x23,-543
     cd4:	be976113          	ori	x2,x14,-1047
     cd8:	019583b3          	add	x7,x11,x25
     cdc:	d54b8513          	addi	x10,x23,-684
     ce0:	01ed67b3          	or	x15,x26,x30
     ce4:	4c1d031b          	addiw	x6,x26,1217
     ce8:	400b83b3          	sub	x7,x23,x0
     cec:	00c28933          	add	x18,x5,x12
     cf0:	007df7b3          	and	x15,x27,x7
     cf4:	abd67613          	andi	x12,x12,-1347
     cf8:	40030033          	sub	x0,x6,x0
     cfc:	414107b3          	sub	x15,x2,x20
     d00:	018f833b          	addw	x6,x31,x24
     d04:	3402f993          	andi	x19,x5,832
     d08:	00d36bb3          	or	x23,x6,x13
     d0c:	01cc8433          	add	x8,x25,x28
     d10:	57f7c713          	xori	x14,x15,1407
     d14:	00cd023b          	addw	x4,x26,x12
     d18:	a9236293          	ori	x5,x6,-1390
     d1c:	01dd8dbb          	addw	x27,x27,x29
     d20:	01fcccb3          	xor	x25,x25,x31
     d24:	003a62b3          	or	x5,x20,x3
     d28:	0121893b          	addw	x18,x3,x18
     d2c:	db93e993          	ori	x19,x7,-583
     d30:	0ad28c1b          	addiw	x24,x5,173
     d34:	3fac8c9b          	addiw	x25,x25,1018
     d38:	00048a33          	add	x20,x9,x0
     d3c:	01b90a3b          	addw	x20,x18,x27
     d40:	20310993          	addi	x19,x2,515
     d44:	5eff081b          	addiw	x16,x30,1519
     d48:	41900933          	neg	x18,x25
     d4c:	40a604b3          	sub	x9,x12,x10
     d50:	fa68081b          	addiw	x16,x16,-90
     d54:	b760ce13          	xori	x28,x1,-1162
     d58:	405888b3          	sub	x17,x17,x5
     d5c:	40bd04bb          	subw	x9,x26,x11
     d60:	00d74b33          	xor	x22,x14,x13
     d64:	00076733          	or	x14,x14,x0
     d68:	01478b3b          	addw	x22,x15,x20
     d6c:	12260413          	addi	x8,x12,290
     d70:	d0a40c13          	addi	x24,x8,-758
     d74:	006a0d33          	add	x26,x20,x6
     d78:	1af1f413          	andi	x8,x3,431
     d7c:	9d800e1b          	addiw	x28,x0,-1576
     d80:	69ab0e93          	addi	x29,x22,1690
     d84:	41c28a33          	sub	x20,x5,x28
     d88:	00f48b3b          	addw	x22,x9,x15
     d8c:	08176c13          	ori	x24,x14,129
     d90:	ccd77f93          	andi	x31,x14,-819
     d94:	6b1a4c13          	xori	x24,x20,1713
     d98:	00246eb3          	or	x29,x8,x2
     d9c:	01de8333          	add	x6,x29,x29
     da0:	013d7733          	and	x14,x26,x19
     da4:	0173893b          	addw	x18,x7,x23
     da8:	b2728d1b          	addiw	x26,x5,-1241
     dac:	413d0233          	sub	x4,x26,x19
     db0:	01a389b3          	add	x19,x7,x26
     db4:	cb630d9b          	addiw	x27,x6,-842
     db8:	011c0e33          	add	x28,x24,x17
     dbc:	414d893b          	subw	x18,x27,x20
     dc0:	01ac7f33          	and	x30,x24,x26
     dc4:	01038dbb          	addw	x27,x7,x16
     dc8:	135cf613          	andi	x12,x25,309
     dcc:	5363031b          	addiw	x6,x6,1334
     dd0:	01a6c9b3          	xor	x19,x13,x26
     dd4:	e8c7e593          	ori	x11,x15,-372
     dd8:	53d27c13          	andi	x24,x4,1341
     ddc:	4092093b          	subw	x18,x4,x9
     de0:	82e27b93          	andi	x23,x4,-2002
     de4:	19036193          	ori	x3,x6,400
     de8:	00ed49b3          	xor	x19,x26,x14
     dec:	5194c913          	xori	x18,x9,1305
     df0:	40bc8c33          	sub	x24,x25,x11
     df4:	00c577b3          	and	x15,x10,x12
     df8:	013004b3          	add	x9,x0,x19
     dfc:	41020fbb          	subw	x31,x4,x16
     e00:	011f05b3          	add	x11,x30,x17
     e04:	7eeb0b1b          	addiw	x22,x22,2030
     e08:	00d1883b          	addw	x16,x3,x13
     e0c:	405482b3          	sub	x5,x9,x5
     e10:	2c588813          	addi	x16,x17,709
     e14:	4cf6881b          	addiw	x16,x13,1231
     e18:	01f34533          	xor	x10,x6,x31
     e1c:	40088e33          	sub	x28,x17,x0
     e20:	50a57413          	andi	x8,x10,1290
     e24:	41bb07bb          	subw	x15,x22,x27
     e28:	00468b33          	add	x22,x13,x4
     e2c:	01b47ab3          	and	x21,x8,x27
     e30:	42b17813          	andi	x16,x2,1067
     e34:	01b448b3          	xor	x17,x8,x27
     e38:	41fa0ab3          	sub	x21,x20,x31
     e3c:	016e4133          	xor	x2,x28,x22
     e40:	00c26733          	or	x14,x4,x12
     e44:	00840433          	add	x8,x8,x8
     e48:	0003ceb3          	xor	x29,x7,x0
     e4c:	8a4f021b          	addiw	x4,x30,-1884
     e50:	44ee4a13          	xori	x20,x28,1102
     e54:	01637fb3          	and	x31,x6,x22
     e58:	0018833b          	addw	x6,x17,x1
     e5c:	0035ffb3          	and	x31,x11,x3
     e60:	01bb899b          	addiw	x19,x23,27
     e64:	017fe533          	or	x10,x31,x23
     e68:	916d4a13          	xori	x20,x26,-1770
     e6c:	41aa81bb          	subw	x3,x21,x26
     e70:	37667713          	andi	x14,x12,886
     e74:	0013edb3          	or	x27,x7,x1
     e78:	f5c54f93          	xori	x31,x10,-164
     e7c:	a3a18e13          	addi	x28,x3,-1478
     e80:	00874c33          	xor	x24,x14,x8
     e84:	003577b3          	and	x15,x10,x3
     e88:	da4f0713          	addi	x14,x30,-604
     e8c:	00c18ebb          	addw	x29,x3,x12
     e90:	7187879b          	addiw	x15,x15,1816
     e94:	8a680513          	addi	x10,x16,-1882
     e98:	40718333          	sub	x6,x3,x7
     e9c:	41c385bb          	subw	x11,x7,x28
     ea0:	0f9c4693          	xori	x13,x24,249
     ea4:	40ce00bb          	subw	x1,x28,x12
     ea8:	401189bb          	subw	x19,x3,x1
     eac:	014a0abb          	addw	x21,x20,x20
     eb0:	eed4fc13          	andi	x24,x9,-275
     eb4:	d6c28c13          	addi	x24,x5,-660
     eb8:	e09f069b          	addiw	x13,x30,-503
     ebc:	413c0c33          	sub	x24,x24,x19
     ec0:	006c833b          	addw	x6,x25,x6
     ec4:	00046cb3          	or	x25,x8,x0
     ec8:	002f63b3          	or	x7,x30,x2
     ecc:	00c006bb          	addw	x13,x0,x12
     ed0:	0108f833          	and	x16,x17,x16
     ed4:	01b7f3b3          	and	x7,x15,x27
     ed8:	a68e0c13          	addi	x24,x28,-1432
     edc:	fa10801b          	addiw	x0,x1,-95
     ee0:	3c657613          	andi	x12,x10,966
     ee4:	0f78cf13          	xori	x30,x17,247
     ee8:	32e74d93          	xori	x27,x14,814
     eec:	01bdf7b3          	and	x15,x27,x27
     ef0:	4f234313          	xori	x6,x6,1266
     ef4:	dfbeeb93          	ori	x23,x29,-517
     ef8:	40a201b3          	sub	x3,x4,x10
     efc:	24116593          	ori	x11,x2,577
     f00:	afaeed93          	ori	x27,x29,-1286
     f04:	010464b3          	or	x9,x8,x16
     f08:	f0234093          	xori	x1,x6,-254
     f0c:	0126cd33          	xor	x26,x13,x18
     f10:	00c44c33          	xor	x24,x8,x12
     f14:	015f0b33          	add	x22,x30,x21
     f18:	402f0bbb          	subw	x23,x30,x2
     f1c:	1bd68f93          	addi	x31,x13,445
     f20:	01d30dbb          	addw	x27,x6,x29
     f24:	41eb803b          	subw	x0,x23,x30
     f28:	41e00db3          	neg	x27,x30
     f2c:	01e081bb          	addw	x3,x1,x30
     f30:	270d6593          	ori	x11,x26,624
     f34:	142b821b          	addiw	x4,x23,322
     f38:	000b72b3          	and	x5,x22,x0
     f3c:	002881bb          	addw	x3,x17,x2
     f40:	0100053b          	addw	x10,x0,x16
     f44:	415f0733          	sub	x14,x30,x21
     f48:	412b00bb          	subw	x1,x22,x18
     f4c:	6027071b          	addiw	x14,x14,1538
     f50:	81480f1b          	addiw	x30,x16,-2028
     f54:	40d40733          	sub	x14,x8,x13
     f58:	007f7e33          	and	x28,x30,x7
     f5c:	05cf7a93          	andi	x21,x30,92
     f60:	57906813          	ori	x16,x0,1401
     f64:	00f863b3          	or	x7,x16,x15
     f68:	13f5891b          	addiw	x18,x11,319
     f6c:	9150089b          	addiw	x17,x0,-1771
     f70:	ddd8c493          	xori	x9,x17,-547
     f74:	01faec33          	or	x24,x21,x31
     f78:	a8c50f93          	addi	x31,x10,-1396
     f7c:	10dc7613          	andi	x12,x24,269
     f80:	95b2069b          	addiw	x13,x4,-1701 # fffffffffffff95b <_binary_lab1_test_bin_end+0xfffffffffffef953>
     f84:	3477c993          	xori	x19,x15,839
     f88:	db9b8b1b          	addiw	x22,x23,-583
     f8c:	00588433          	add	x8,x17,x5
     f90:	019a803b          	addw	x0,x21,x25
     f94:	90b67113          	andi	x2,x12,-1781
     f98:	41d406b3          	sub	x13,x8,x29
     f9c:	dcde0f9b          	addiw	x31,x28,-563
     fa0:	aa346313          	ori	x6,x8,-1373
     fa4:	09ae7813          	andi	x16,x28,154
     fa8:	08240993          	addi	x19,x8,130
     fac:	6501f293          	andi	x5,x3,1616
     fb0:	01d0f1b3          	and	x3,x1,x29
     fb4:	00994633          	xor	x12,x18,x9
     fb8:	0027fcb3          	and	x25,x15,x2
     fbc:	ec718193          	addi	x3,x3,-313
     fc0:	01636bb3          	or	x23,x6,x22
     fc4:	006e0abb          	addw	x21,x28,x6
     fc8:	412482b3          	sub	x5,x9,x18
     fcc:	06a1869b          	addiw	x13,x3,106
     fd0:	8cf87213          	andi	x4,x16,-1841
     fd4:	414283bb          	subw	x7,x5,x20
     fd8:	bd640b93          	addi	x23,x8,-1066
     fdc:	aeed839b          	addiw	x7,x27,-1298
     fe0:	40cb03bb          	subw	x7,x22,x12
     fe4:	419a8433          	sub	x8,x21,x25
     fe8:	01e26eb3          	or	x29,x4,x30
     fec:	464d0a1b          	addiw	x20,x26,1124
     ff0:	51f3889b          	addiw	x17,x7,1311
     ff4:	0085e633          	or	x12,x11,x8
     ff8:	6c73cb13          	xori	x22,x7,1735
     ffc:	019288bb          	addw	x17,x5,x25
    1000:	00ca72b3          	and	x5,x20,x12
    1004:	40ab04b3          	sub	x9,x22,x10
    1008:	002e8633          	add	x12,x29,x2
    100c:	00597ab3          	and	x21,x18,x5
    1010:	01ee7433          	and	x8,x28,x30
    1014:	de5c7f93          	andi	x31,x24,-539
    1018:	004a7133          	and	x2,x20,x4
    101c:	01a106b3          	add	x13,x2,x26
    1020:	86476693          	ori	x13,x14,-1948
    1024:	553f059b          	addiw	x11,x30,1363
    1028:	40e50e33          	sub	x28,x10,x14
    102c:	2cc96513          	ori	x10,x18,716
    1030:	414d0133          	sub	x2,x26,x20
    1034:	dfa68c13          	addi	x24,x13,-518
    1038:	002c0e33          	add	x28,x24,x2
    103c:	cf4d6093          	ori	x1,x26,-780
    1040:	00c70dbb          	addw	x27,x14,x12
    1044:	00a58db3          	add	x27,x11,x10
    1048:	d29a0d9b          	addiw	x27,x20,-727
    104c:	00087133          	and	x2,x16,x0
    1050:	00dd813b          	addw	x2,x27,x13
    1054:	01cb42b3          	xor	x5,x22,x28
    1058:	400f8b3b          	subw	x22,x31,x0
    105c:	76f56b13          	ori	x22,x10,1903
    1060:	0e56e313          	ori	x6,x13,229
    1064:	5a68ce93          	xori	x29,x17,1446
    1068:	ca8c021b          	addiw	x4,x24,-856
    106c:	007ff833          	and	x16,x31,x7
    1070:	10406e93          	ori	x29,x0,260
    1074:	409509b3          	sub	x19,x10,x9
    1078:	0129883b          	addw	x16,x19,x18
    107c:	40b604b3          	sub	x9,x12,x11
    1080:	40798633          	sub	x12,x19,x7
    1084:	016c8eb3          	add	x29,x25,x22
    1088:	dd827293          	andi	x5,x4,-552
    108c:	014cc733          	xor	x14,x25,x20
    1090:	6bdaff93          	andi	x31,x21,1725
    1094:	41360b33          	sub	x22,x12,x19
    1098:	01abe233          	or	x4,x23,x26
    109c:	41848dbb          	subw	x27,x9,x24
    10a0:	b8fc6693          	ori	x13,x24,-1137
    10a4:	00f20fb3          	add	x31,x4,x15
    10a8:	9f796413          	ori	x8,x18,-1545
    10ac:	dcf58013          	addi	x0,x11,-561
    10b0:	01998cb3          	add	x25,x19,x25
    10b4:	008944b3          	xor	x9,x18,x8
    10b8:	018487bb          	addw	x15,x9,x24
    10bc:	006780b3          	add	x1,x15,x6
    10c0:	1546f293          	andi	x5,x13,340
    10c4:	012d823b          	addw	x4,x27,x18
    10c8:	9c1c7a93          	andi	x21,x24,-1599
    10cc:	bfbe6293          	ori	x5,x28,-1029
    10d0:	12be839b          	addiw	x7,x29,299
    10d4:	a83e8c1b          	addiw	x24,x29,-1405
    10d8:	019c84bb          	addw	x9,x25,x25
    10dc:	ff797a93          	andi	x21,x18,-9
    10e0:	014fe933          	or	x18,x31,x20
    10e4:	005cecb3          	or	x25,x25,x5
    10e8:	01da41b3          	xor	x3,x20,x29
    10ec:	00cdc133          	xor	x2,x27,x12
    10f0:	01998abb          	addw	x21,x19,x25
    10f4:	4132873b          	subw	x14,x5,x19
    10f8:	016fc033          	xor	x0,x31,x22
    10fc:	52f5011b          	addiw	x2,x10,1327
    1100:	40548733          	sub	x14,x9,x5
    1104:	27514993          	xori	x19,x2,629
    1108:	014369b3          	or	x19,x6,x20
    110c:	006ac733          	xor	x14,x21,x6
    1110:	00860433          	add	x8,x12,x8
    1114:	01f1e0b3          	or	x1,x3,x31
    1118:	b4370d1b          	addiw	x26,x14,-1213
    111c:	00a2c8b3          	xor	x17,x5,x10
    1120:	010489b3          	add	x19,x9,x16
    1124:	40350233          	sub	x4,x10,x3
    1128:	512e7193          	andi	x3,x28,1298
    112c:	416b853b          	subw	x10,x23,x22
    1130:	bd564693          	xori	x13,x12,-1067
    1134:	013303b3          	add	x7,x6,x19
    1138:	3bb7ed93          	ori	x27,x15,955
    113c:	f1b64013          	xori	x0,x12,-229
    1140:	012386bb          	addw	x13,x7,x18
    1144:	01d9f633          	and	x12,x19,x29
    1148:	7db67c93          	andi	x25,x12,2011
    114c:	403e8bb3          	sub	x23,x29,x3
    1150:	267b4a93          	xori	x21,x22,615
    1154:	eae3e293          	ori	x5,x7,-338
    1158:	40c3043b          	subw	x8,x6,x12
    115c:	014c6a33          	or	x20,x24,x20
    1160:	dd577293          	andi	x5,x14,-555
    1164:	a3fce893          	ori	x17,x25,-1473
    1168:	63cb0d9b          	addiw	x27,x22,1596
    116c:	61406393          	ori	x7,x0,1556
    1170:	ee810f9b          	addiw	x31,x2,-280
    1174:	00536cb3          	or	x25,x6,x5
    1178:	00f94933          	xor	x18,x18,x15
    117c:	40e08833          	sub	x16,x1,x14
    1180:	01ca4033          	xor	x0,x20,x28
    1184:	a932c313          	xori	x6,x5,-1389
    1188:	2a578b13          	addi	x22,x15,677
    118c:	018264b3          	or	x9,x4,x24
    1190:	dc17829b          	addiw	x5,x15,-575
    1194:	e2a84213          	xori	x4,x16,-470
    1198:	4296f713          	andi	x14,x13,1065
    119c:	00328013          	addi	x0,x5,3
    11a0:	0119e833          	or	x16,x19,x17
    11a4:	013e0533          	add	x10,x28,x19
    11a8:	414581b3          	sub	x3,x11,x20
    11ac:	f93d6b93          	ori	x23,x26,-109
    11b0:	75d5081b          	addiw	x16,x10,1885
    11b4:	c037819b          	addiw	x3,x15,-1021
    11b8:	74570c9b          	addiw	x25,x14,1861
    11bc:	8b446f93          	ori	x31,x8,-1868
    11c0:	417304bb          	subw	x9,x6,x23
    11c4:	4b137693          	andi	x13,x6,1201
    11c8:	01bcf1b3          	and	x3,x25,x27
    11cc:	d115041b          	addiw	x8,x10,-751
    11d0:	3bbffc13          	andi	x24,x31,955
    11d4:	009b4633          	xor	x12,x22,x9
    11d8:	e61a6813          	ori	x16,x20,-415
    11dc:	f3d2f293          	andi	x5,x5,-195
    11e0:	79647493          	andi	x9,x8,1942
    11e4:	40fc0fbb          	subw	x31,x24,x15
    11e8:	00298e3b          	addw	x28,x19,x2
    11ec:	e308c613          	xori	x12,x17,-464
    11f0:	38867f93          	andi	x31,x12,904
    11f4:	013883b3          	add	x7,x17,x19
    11f8:	01b009bb          	addw	x19,x0,x27
    11fc:	58dc8e93          	addi	x29,x25,1421
    1200:	00547d33          	and	x26,x8,x5
    1204:	280eca13          	xori	x20,x29,640
    1208:	1fe57193          	andi	x3,x10,510
    120c:	40b10abb          	subw	x21,x2,x11
    1210:	004c8633          	add	x12,x25,x4
    1214:	00fa8933          	add	x18,x21,x15
    1218:	4192023b          	subw	x4,x4,x25
    121c:	00600e33          	add	x28,x0,x6
    1220:	00bf4033          	xor	x0,x30,x11
    1224:	405b8b3b          	subw	x22,x23,x5
    1228:	01fc4eb3          	xor	x29,x24,x31
    122c:	012403bb          	addw	x7,x8,x18
    1230:	2c9f6d93          	ori	x27,x30,713
    1234:	db02e693          	ori	x13,x5,-592
    1238:	005345b3          	xor	x11,x6,x5
    123c:	a11be693          	ori	x13,x23,-1519
    1240:	0048c3b3          	xor	x7,x17,x4
    1244:	61b60893          	addi	x17,x12,1563
    1248:	d94cc213          	xori	x4,x25,-620
    124c:	f6406c13          	ori	x24,x0,-156
    1250:	00ab06bb          	addw	x13,x22,x10
    1254:	00230433          	add	x8,x6,x2
    1258:	91880f13          	addi	x30,x16,-1768
    125c:	33c7cc13          	xori	x24,x15,828
    1260:	41a38dbb          	subw	x27,x7,x26
    1264:	01bbe533          	or	x10,x23,x27
    1268:	d005c113          	xori	x2,x11,-768
    126c:	01aaf333          	and	x6,x21,x26
    1270:	00a58abb          	addw	x21,x11,x10
    1274:	4096863b          	subw	x12,x13,x9
    1278:	5a780093          	addi	x1,x16,1447
    127c:	41aa893b          	subw	x18,x21,x26
    1280:	0096cd33          	xor	x26,x13,x9
    1284:	415e0733          	sub	x14,x28,x21
    1288:	01b90033          	add	x0,x18,x27
    128c:	41a602bb          	subw	x5,x12,x26
    1290:	01a36a33          	or	x20,x6,x26
    1294:	01d6e2b3          	or	x5,x13,x29
    1298:	00e06133          	or	x2,x0,x14
    129c:	006003b3          	add	x7,x0,x6
    12a0:	01877c33          	and	x24,x14,x24
    12a4:	3d740e1b          	addiw	x28,x8,983
    12a8:	004f803b          	addw	x0,x31,x4
    12ac:	d64f839b          	addiw	x7,x31,-668
    12b0:	6458811b          	addiw	x2,x17,1605
    12b4:	405d8833          	sub	x16,x27,x5
    12b8:	01d1c133          	xor	x2,x3,x29
    12bc:	00d7e4b3          	or	x9,x15,x13
    12c0:	41d309b3          	sub	x19,x6,x29
    12c4:	41b20fb3          	sub	x31,x4,x27
    12c8:	014c0f3b          	addw	x30,x24,x20
    12cc:	598c6413          	ori	x8,x24,1432
    12d0:	40e18433          	sub	x8,x3,x14
    12d4:	00870533          	add	x10,x14,x8
    12d8:	5dbb0f1b          	addiw	x30,x22,1499
    12dc:	847f8b13          	addi	x22,x31,-1977
    12e0:	0119c5b3          	xor	x11,x19,x17
    12e4:	002e82bb          	addw	x5,x29,x2
    12e8:	00fa8cbb          	addw	x25,x21,x15
    12ec:	40870fbb          	subw	x31,x14,x8
    12f0:	015ee2b3          	or	x5,x29,x21
    12f4:	43a7829b          	addiw	x5,x15,1082
    12f8:	41390e33          	sub	x28,x18,x19
    12fc:	01de6fb3          	or	x31,x28,x29
    1300:	09ac8713          	addi	x14,x25,154
    1304:	c71d8013          	addi	x0,x27,-911
    1308:	fe6c0193          	addi	x3,x24,-26
    130c:	01747e33          	and	x28,x8,x23
    1310:	267f8413          	addi	x8,x31,615
    1314:	e5884713          	xori	x14,x16,-424
    1318:	00520c3b          	addw	x24,x4,x5
    131c:	414607b3          	sub	x15,x12,x20
    1320:	00b188b3          	add	x17,x3,x11
    1324:	00690733          	add	x14,x18,x6
    1328:	019447b3          	xor	x15,x8,x25
    132c:	704ceb93          	ori	x23,x25,1796
    1330:	00c44133          	xor	x2,x8,x12
    1334:	012c043b          	addw	x8,x24,x18
    1338:	01ed0f3b          	addw	x30,x26,x30
    133c:	00ad07bb          	addw	x15,x26,x10
    1340:	00b7ca33          	xor	x20,x15,x11
    1344:	d6acfd13          	andi	x26,x25,-662
    1348:	405f84bb          	subw	x9,x31,x5
    134c:	016be2b3          	or	x5,x23,x22
    1350:	a7416893          	ori	x17,x2,-1420
    1354:	00cd86b3          	add	x13,x27,x12
    1358:	82e36b93          	ori	x23,x6,-2002
    135c:	44f97e13          	andi	x28,x18,1103
    1360:	a309831b          	addiw	x6,x19,-1488
    1364:	1c28e513          	ori	x10,x17,450
    1368:	00b40333          	add	x6,x8,x11
    136c:	00db893b          	addw	x18,x23,x13
    1370:	05576193          	ori	x3,x14,85
    1374:	2fa98b9b          	addiw	x23,x19,762
    1378:	9bb3809b          	addiw	x1,x7,-1605
    137c:	00ea0bbb          	addw	x23,x20,x14
    1380:	412d88b3          	sub	x17,x27,x18
    1384:	000442b3          	xor	x5,x8,x0
    1388:	016c8633          	add	x12,x25,x22
    138c:	6dc68393          	addi	x7,x13,1756
    1390:	f512fa13          	andi	x20,x5,-175
    1394:	019e4233          	xor	x4,x28,x25
    1398:	018d06bb          	addw	x13,x26,x24
    139c:	01d68db3          	add	x27,x13,x29
    13a0:	019c0233          	add	x4,x24,x25
    13a4:	410708b3          	sub	x17,x14,x16
    13a8:	002a87b3          	add	x15,x21,x2
    13ac:	40da863b          	subw	x12,x21,x13
    13b0:	00e985bb          	addw	x11,x19,x14
    13b4:	018575b3          	and	x11,x10,x24
    13b8:	01e4073b          	addw	x14,x8,x30
    13bc:	00e64db3          	xor	x27,x12,x14
    13c0:	41dc8933          	sub	x18,x25,x29
    13c4:	eed27b13          	andi	x22,x4,-275
    13c8:	40d70c33          	sub	x24,x14,x13
    13cc:	460a0b1b          	addiw	x22,x20,1120
    13d0:	00b24833          	xor	x16,x4,x11
    13d4:	01affa33          	and	x20,x31,x26
    13d8:	00bb6233          	or	x4,x22,x11
    13dc:	004d0c3b          	addw	x24,x26,x4
    13e0:	0107c3b3          	xor	x7,x15,x16
    13e4:	417500bb          	subw	x1,x10,x23
    13e8:	41a405bb          	subw	x11,x8,x26
    13ec:	a769e893          	ori	x17,x19,-1418
    13f0:	416f80bb          	subw	x1,x31,x22
    13f4:	015461b3          	or	x3,x8,x21
    13f8:	41980e33          	sub	x28,x16,x25
    13fc:	404c073b          	subw	x14,x24,x4
    1400:	011e8db3          	add	x27,x29,x17
    1404:	7d128a9b          	addiw	x21,x5,2001
    1408:	00a1ce33          	xor	x28,x3,x10
    140c:	9e790a13          	addi	x20,x18,-1561
    1410:	070ecc13          	xori	x24,x29,112
    1414:	411f0833          	sub	x16,x30,x17
    1418:	003b7cb3          	and	x25,x22,x3
    141c:	002575b3          	and	x11,x10,x2
    1420:	7881e513          	ori	x10,x3,1928
    1424:	6c51e693          	ori	x13,x3,1733
    1428:	9dd50593          	addi	x11,x10,-1571
    142c:	407b8e33          	sub	x28,x23,x7
    1430:	00f1eb33          	or	x22,x3,x15
    1434:	90938993          	addi	x19,x7,-1783
    1438:	f6257b93          	andi	x23,x10,-158
    143c:	0324f413          	andi	x8,x9,50
    1440:	5fad6093          	ori	x1,x26,1530
    1444:	0182f433          	and	x8,x5,x24
    1448:	000045b3          	xor	x11,x0,x0
    144c:	008f88b3          	add	x17,x31,x8
    1450:	40510abb          	subw	x21,x2,x5
    1454:	55464b13          	xori	x22,x12,1364
    1458:	4ec9061b          	addiw	x12,x18,1260
    145c:	011e8b33          	add	x22,x29,x17
    1460:	00c46ab3          	or	x21,x8,x12
    1464:	3e73009b          	addiw	x1,x6,999
    1468:	0093ecb3          	or	x25,x7,x9
    146c:	f76f0c9b          	addiw	x25,x30,-138
    1470:	01364933          	xor	x18,x12,x19
    1474:	406508bb          	subw	x17,x10,x6
    1478:	1e994593          	xori	x11,x18,489
    147c:	e2fcca13          	xori	x20,x25,-465
    1480:	007287b3          	add	x15,x5,x7
    1484:	dc6d4013          	xori	x0,x26,-570
    1488:	829c041b          	addiw	x8,x24,-2007
    148c:	d62a0d1b          	addiw	x26,x20,-670
    1490:	dce7039b          	addiw	x7,x14,-562
    1494:	01e6fd33          	and	x26,x13,x30
    1498:	00d10ebb          	addw	x29,x2,x13
    149c:	00e58333          	add	x6,x11,x14
    14a0:	0090fa33          	and	x20,x1,x9
    14a4:	019001b3          	add	x3,x0,x25
    14a8:	71644b93          	xori	x23,x8,1814
    14ac:	bad1c093          	xori	x1,x3,-1107
    14b0:	41f504b3          	sub	x9,x10,x31
    14b4:	411f83bb          	subw	x7,x31,x17
    14b8:	10aa4813          	xori	x16,x20,266
    14bc:	8d458193          	addi	x3,x11,-1836
    14c0:	010970b3          	and	x1,x18,x16
    14c4:	03508a1b          	addiw	x20,x1,53
    14c8:	00b5fc33          	and	x24,x11,x11
    14cc:	410202b3          	sub	x5,x4,x16
    14d0:	40ab0d3b          	subw	x26,x22,x10
    14d4:	5c6c4d93          	xori	x27,x24,1478
    14d8:	010fc633          	xor	x12,x31,x16
    14dc:	40548ab3          	sub	x21,x9,x5
    14e0:	85f6c613          	xori	x12,x13,-1953
    14e4:	4d0de793          	ori	x15,x27,1232
    14e8:	0a86c313          	xori	x6,x13,168
    14ec:	00dff933          	and	x18,x31,x13
    14f0:	01b86ab3          	or	x21,x16,x27
    14f4:	e7466193          	ori	x3,x12,-396
    14f8:	01738c33          	add	x24,x7,x23
    14fc:	3584e813          	ori	x16,x9,856
    1500:	00c0c7b3          	xor	x15,x1,x12
    1504:	ed3c099b          	addiw	x19,x24,-301
    1508:	010b0ebb          	addw	x29,x22,x16
    150c:	ebe3059b          	addiw	x11,x6,-322
    1510:	01728913          	addi	x18,x5,23
    1514:	01d96433          	or	x8,x18,x29
    1518:	00317c33          	and	x24,x2,x3
    151c:	001b7033          	and	x0,x22,x1
    1520:	39544713          	xori	x14,x8,917
    1524:	c6caec93          	ori	x25,x21,-916
    1528:	01390db3          	add	x27,x18,x19
    152c:	ab8e7013          	andi	x0,x28,-1352
    1530:	01948f33          	add	x30,x9,x25
    1534:	22156d13          	ori	x26,x10,545
    1538:	01ddc0b3          	xor	x1,x27,x29
    153c:	ebec829b          	addiw	x5,x25,-322
    1540:	ffb18493          	addi	x9,x3,-5
    1544:	00798133          	add	x2,x19,x7
    1548:	410a0a3b          	subw	x20,x20,x16
    154c:	010be333          	or	x6,x23,x16
    1550:	41c6893b          	subw	x18,x13,x28
    1554:	01ee62b3          	or	x5,x28,x30
    1558:	01708d33          	add	x26,x1,x23
    155c:	00158cb3          	add	x25,x11,x1
    1560:	01f4843b          	addw	x8,x9,x31
    1564:	0076863b          	addw	x12,x13,x7
    1568:	018c4633          	xor	x12,x24,x24
    156c:	017084b3          	add	x9,x1,x23
    1570:	9a234513          	xori	x10,x6,-1630
    1574:	3261011b          	addiw	x2,x2,806
    1578:	00b373b3          	and	x7,x6,x11
    157c:	0184e1b3          	or	x3,x9,x24
    1580:	11404493          	xori	x9,x0,276
    1584:	ae11821b          	addiw	x4,x3,-1311
    1588:	7ccf8293          	addi	x5,x31,1996
    158c:	ce61cb93          	xori	x23,x3,-794
    1590:	17c84093          	xori	x1,x16,380
    1594:	00a282b3          	add	x5,x5,x10
    1598:	40ed0f3b          	subw	x30,x26,x14
    159c:	011343b3          	xor	x7,x6,x17
    15a0:	7c8a8513          	addi	x10,x21,1992
    15a4:	002ecdb3          	xor	x27,x29,x2
    15a8:	3c09ea13          	ori	x20,x19,960
    15ac:	04b6821b          	addiw	x4,x13,75
    15b0:	01044ab3          	xor	x21,x8,x16
    15b4:	e1dd051b          	addiw	x10,x26,-483
    15b8:	01028bbb          	addw	x23,x5,x16
    15bc:	01e0f5b3          	and	x11,x1,x30
    15c0:	00ebfdb3          	and	x27,x23,x14
    15c4:	2094c713          	xori	x14,x9,521
    15c8:	017488b3          	add	x17,x9,x23
    15cc:	01c8f033          	and	x0,x17,x28
    15d0:	01828033          	add	x0,x5,x24
    15d4:	0137c133          	xor	x2,x15,x19
    15d8:	01bf8bb3          	add	x23,x31,x27
    15dc:	1a72821b          	addiw	x4,x5,423
    15e0:	e60f051b          	addiw	x10,x30,-416
    15e4:	de718513          	addi	x10,x3,-537
    15e8:	c5eff993          	andi	x19,x31,-930
    15ec:	a36f801b          	addiw	x0,x31,-1482
    15f0:	5c947993          	andi	x19,x8,1481
    15f4:	cd4b4113          	xori	x2,x22,-812
    15f8:	009877b3          	and	x15,x16,x9
    15fc:	cda08193          	addi	x3,x1,-806
    1600:	00b142b3          	xor	x5,x2,x11
    1604:	0ab70d13          	addi	x26,x14,171
    1608:	0027f8b3          	and	x17,x15,x2
    160c:	b270029b          	addiw	x5,x0,-1241
    1610:	014305b3          	add	x11,x6,x20
    1614:	00906b33          	or	x22,x0,x9
    1618:	00600b33          	add	x22,x0,x6
    161c:	00808933          	add	x18,x1,x8
    1620:	00f2823b          	addw	x4,x5,x15
    1624:	ab036e93          	ori	x29,x6,-1360
    1628:	01ae8abb          	addw	x21,x29,x26
    162c:	40958733          	sub	x14,x11,x9
    1630:	7917ea13          	ori	x20,x15,1937
    1634:	7fb4e113          	ori	x2,x9,2043
    1638:	68a84813          	xori	x16,x16,1674
    163c:	a2bd0a1b          	addiw	x20,x26,-1493
    1640:	01a9e733          	or	x14,x19,x26
    1644:	41390d33          	sub	x26,x18,x19
    1648:	01d8ffb3          	and	x31,x17,x29
    164c:	a6134e13          	xori	x28,x6,-1439
    1650:	01c50e3b          	addw	x28,x10,x28
    1654:	d126ca93          	xori	x21,x13,-750
    1658:	001f44b3          	xor	x9,x30,x1
    165c:	e631cb93          	xori	x23,x3,-413
    1660:	36b5c393          	xori	x7,x11,875
    1664:	016a6a33          	or	x20,x20,x22
    1668:	011d033b          	addw	x6,x26,x17
    166c:	5f450c93          	addi	x25,x10,1524
    1670:	41108bb3          	sub	x23,x1,x17
    1674:	8dcac393          	xori	x7,x21,-1828
    1678:	df3a8a1b          	addiw	x20,x21,-525
    167c:	43fe8b9b          	addiw	x23,x29,1087
    1680:	0100eeb3          	or	x29,x1,x16
    1684:	413204bb          	subw	x9,x4,x19
    1688:	01aec1b3          	xor	x3,x29,x26
    168c:	40618033          	sub	x0,x3,x6
    1690:	015dffb3          	and	x31,x27,x21
    1694:	41fd0d3b          	subw	x26,x26,x31
    1698:	0145edb3          	or	x27,x11,x20
    169c:	5fa26313          	ori	x6,x4,1530
    16a0:	f8d47d13          	andi	x26,x8,-115
    16a4:	01c2ec33          	or	x24,x5,x28
    16a8:	0144cbb3          	xor	x23,x9,x20
    16ac:	006df4b3          	and	x9,x27,x6
    16b0:	009e64b3          	or	x9,x28,x9
    16b4:	003673b3          	and	x7,x12,x3
    16b8:	5793e893          	ori	x17,x7,1401
    16bc:	013e72b3          	and	x5,x28,x19
    16c0:	00266eb3          	or	x29,x12,x2
    16c4:	548e091b          	addiw	x18,x28,1352
    16c8:	01706d33          	or	x26,x0,x23
    16cc:	5d834513          	xori	x10,x6,1496
    16d0:	40988233          	sub	x4,x17,x9
    16d4:	0ce90613          	addi	x12,x18,206
    16d8:	40820fb3          	sub	x31,x4,x8
    16dc:	c39ce693          	ori	x13,x25,-967
    16e0:	23e88393          	addi	x7,x17,574
    16e4:	408a0ebb          	subw	x29,x20,x8
    16e8:	05db7a13          	andi	x20,x22,93
    16ec:	00e38b33          	add	x22,x7,x14
    16f0:	0161e033          	or	x0,x3,x22
    16f4:	40de8b93          	addi	x23,x29,1037
    16f8:	01da7733          	and	x14,x20,x29
    16fc:	14b56013          	ori	x0,x10,331
    1700:	01eb0433          	add	x8,x22,x30
    1704:	87ae8713          	addi	x14,x29,-1926
    1708:	2bc7c113          	xori	x2,x15,700
    170c:	026a6793          	ori	x15,x20,38
    1710:	f2e58f9b          	addiw	x31,x11,-210
    1714:	f5186393          	ori	x7,x16,-175
    1718:	a7978b93          	addi	x23,x15,-1415
    171c:	00b20433          	add	x8,x4,x11
    1720:	40800433          	neg	x8,x8
    1724:	005af533          	and	x10,x21,x5
    1728:	00dbc033          	xor	x0,x23,x13
    172c:	484ccb93          	xori	x23,x25,1156
    1730:	0071c633          	xor	x12,x3,x7
    1734:	408b0a33          	sub	x20,x22,x8
    1738:	7d2cfc13          	andi	x24,x25,2002
    173c:	ba4d7613          	andi	x12,x26,-1116
    1740:	005d7533          	and	x10,x26,x5
    1744:	408507b3          	sub	x15,x10,x8
    1748:	46e3ed13          	ori	x26,x7,1134
    174c:	007b0a3b          	addw	x20,x22,x7
    1750:	00cd8ebb          	addw	x29,x27,x12
    1754:	74a54a13          	xori	x20,x10,1866
    1758:	f09c8413          	addi	x8,x25,-247
    175c:	40420b3b          	subw	x22,x4,x4
    1760:	7c7d4093          	xori	x1,x26,1991
    1764:	24724893          	xori	x17,x4,583
    1768:	1f1f4513          	xori	x10,x30,497
    176c:	41d0003b          	negw	x0,x29
    1770:	0026e633          	or	x12,x13,x2
    1774:	001647b3          	xor	x15,x12,x1
    1778:	d7770e13          	addi	x28,x14,-649
    177c:	0027e9b3          	or	x19,x15,x2
    1780:	01c465b3          	or	x11,x8,x28
    1784:	410a8dbb          	subw	x27,x21,x16
    1788:	00d5813b          	addw	x2,x11,x13
    178c:	ee1df813          	andi	x16,x27,-287
    1790:	666bca93          	xori	x21,x23,1638
    1794:	56f9ed13          	ori	x26,x19,1391
    1798:	473a6b13          	ori	x22,x20,1139
    179c:	006689b3          	add	x19,x13,x6
    17a0:	fa60c193          	xori	x3,x1,-90
    17a4:	3a030793          	addi	x15,x6,928
    17a8:	417504b3          	sub	x9,x10,x23
    17ac:	40bf8333          	sub	x6,x31,x11
    17b0:	00960e3b          	addw	x28,x12,x9
    17b4:	0008013b          	addw	x2,x16,x0
    17b8:	073fe993          	ori	x19,x31,115
    17bc:	40878433          	sub	x8,x15,x8
    17c0:	01ef7cb3          	and	x25,x30,x30
    17c4:	00850abb          	addw	x21,x10,x8
    17c8:	00990033          	add	x0,x18,x9
    17cc:	e66acf13          	xori	x30,x21,-410
    17d0:	1b97c793          	xori	x15,x15,441
    17d4:	41d00a3b          	negw	x20,x29
    17d8:	8d5d0193          	addi	x3,x26,-1835
    17dc:	013463b3          	or	x7,x8,x19
    17e0:	9f167f93          	andi	x31,x12,-1551
    17e4:	001deb33          	or	x22,x27,x1
    17e8:	004d87bb          	addw	x15,x27,x4
    17ec:	014140b3          	xor	x1,x2,x20
    17f0:	009bc333          	xor	x6,x23,x9
    17f4:	634b849b          	addiw	x9,x23,1588
    17f8:	33eb8a13          	addi	x20,x23,830
    17fc:	3a0b0e13          	addi	x28,x22,928
    1800:	00a58d3b          	addw	x26,x11,x10
    1804:	00e10fbb          	addw	x31,x2,x14
    1808:	4166823b          	subw	x4,x13,x22
    180c:	008c0a33          	add	x20,x24,x8
    1810:	07910213          	addi	x4,x2,121
    1814:	41330533          	sub	x10,x6,x19
    1818:	5a637793          	andi	x15,x6,1446
    181c:	406e8bb3          	sub	x23,x29,x6
    1820:	001e023b          	addw	x4,x28,x1
    1824:	82e9ce93          	xori	x29,x19,-2002
    1828:	012c6a33          	or	x20,x24,x18
    182c:	41070933          	sub	x18,x14,x16
    1830:	76094413          	xori	x8,x18,1888
    1834:	41d588b3          	sub	x17,x11,x29
    1838:	1d3fcc13          	xori	x24,x31,467
    183c:	2ec90293          	addi	x5,x18,748
    1840:	00b58fb3          	add	x31,x11,x11
    1844:	9c336f13          	ori	x30,x6,-1597
    1848:	41a187bb          	subw	x15,x3,x26
    184c:	012fc2b3          	xor	x5,x31,x18
    1850:	01397533          	and	x10,x18,x19
    1854:	017accb3          	xor	x25,x21,x23
    1858:	af227293          	andi	x5,x4,-1294
    185c:	bb1d6a13          	ori	x20,x26,-1103
    1860:	9b17879b          	addiw	x15,x15,-1615
    1864:	40178733          	sub	x14,x15,x1
    1868:	019c023b          	addw	x4,x24,x25
    186c:	01ffffb3          	and	x31,x31,x31
    1870:	01a1c033          	xor	x0,x3,x26
    1874:	c7e4059b          	addiw	x11,x8,-898
    1878:	01120d33          	add	x26,x4,x17
    187c:	01370f3b          	addw	x30,x14,x19
    1880:	00fc0fbb          	addw	x31,x24,x15
    1884:	0019c233          	xor	x4,x19,x1
    1888:	6b6ac613          	xori	x12,x21,1718
    188c:	41b10233          	sub	x4,x2,x27
    1890:	016384bb          	addw	x9,x7,x22
    1894:	014a74b3          	and	x9,x20,x20
    1898:	01426a33          	or	x20,x4,x20
    189c:	015f83bb          	addw	x7,x31,x21
    18a0:	403c0c33          	sub	x24,x24,x3
    18a4:	8ec10b1b          	addiw	x22,x2,-1812
    18a8:	008d88b3          	add	x17,x27,x8
    18ac:	01734933          	xor	x18,x6,x23
    18b0:	43c8849b          	addiw	x9,x17,1084
    18b4:	00ba41b3          	xor	x3,x20,x11
    18b8:	1d128093          	addi	x1,x5,465
    18bc:	ee667313          	andi	x6,x12,-282
    18c0:	01e265b3          	or	x11,x4,x30
    18c4:	41a409b3          	sub	x19,x8,x26
    18c8:	00fbc133          	xor	x2,x23,x15
    18cc:	01908cb3          	add	x25,x1,x25
    18d0:	92616c13          	ori	x24,x2,-1754
    18d4:	00f88133          	add	x2,x17,x15
    18d8:	01257033          	and	x0,x10,x18
    18dc:	405782b3          	sub	x5,x15,x5
    18e0:	016a05bb          	addw	x11,x20,x22
    18e4:	01ff0bb3          	add	x23,x30,x31
    18e8:	15e5ca93          	xori	x21,x11,350
    18ec:	6d82c593          	xori	x11,x5,1752
    18f0:	4075853b          	subw	x10,x11,x7
    18f4:	012b01bb          	addw	x3,x22,x18
    18f8:	00c36e33          	or	x28,x6,x12
    18fc:	0125013b          	addw	x2,x10,x18
    1900:	01c20c3b          	addw	x24,x4,x28
    1904:	004e0433          	add	x8,x28,x4
    1908:	013d813b          	addw	x2,x27,x19
    190c:	baa28893          	addi	x17,x5,-1110
    1910:	0033f433          	and	x8,x7,x3
    1914:	7b360693          	addi	x13,x12,1971
    1918:	5355039b          	addiw	x7,x10,1333
    191c:	0054c333          	xor	x6,x9,x5
    1920:	01e5e1b3          	or	x3,x11,x30
    1924:	8b06ca13          	xori	x20,x13,-1872
    1928:	40660b3b          	subw	x22,x12,x6
    192c:	00b801b3          	add	x3,x16,x11
    1930:	da8c0f93          	addi	x31,x24,-600
    1934:	00bf8bb3          	add	x23,x31,x11
    1938:	c1ddce13          	xori	x28,x27,-995
    193c:	bfcd7a93          	andi	x21,x26,-1028
    1940:	01207db3          	and	x27,x0,x18
    1944:	85d9899b          	addiw	x19,x19,-1955
    1948:	018180bb          	addw	x1,x3,x24
    194c:	00cd85bb          	addw	x11,x27,x12
    1950:	bc34c413          	xori	x8,x9,-1085
    1954:	41ec09bb          	subw	x19,x24,x30
    1958:	b49a0c13          	addi	x24,x20,-1207
    195c:	00408d3b          	addw	x26,x1,x4
    1960:	01e4e9b3          	or	x19,x9,x30
    1964:	41ae8f3b          	subw	x30,x29,x26
    1968:	d972891b          	addiw	x18,x5,-617
    196c:	013488b3          	add	x17,x9,x19
    1970:	7b4f7693          	andi	x13,x30,1972
    1974:	1d6c039b          	addiw	x7,x24,470
    1978:	a4d34d93          	xori	x27,x6,-1459
    197c:	0052ffb3          	and	x31,x5,x5
    1980:	41d081bb          	subw	x3,x1,x29
    1984:	0107e233          	or	x4,x15,x16
    1988:	40360ab3          	sub	x21,x12,x3
    198c:	016b8c33          	add	x24,x23,x22
    1990:	40db85bb          	subw	x11,x23,x13
    1994:	015100b3          	add	x1,x2,x21
    1998:	a753889b          	addiw	x17,x7,-1419
    199c:	e88f869b          	addiw	x13,x31,-376
    19a0:	01ff0cbb          	addw	x25,x30,x31
    19a4:	015d80b3          	add	x1,x27,x21
    19a8:	41bb85bb          	subw	x11,x23,x27
    19ac:	01d88fbb          	addw	x31,x17,x29
    19b0:	418500b3          	sub	x1,x10,x24
    19b4:	899ce693          	ori	x13,x25,-1895
    19b8:	00c37ab3          	and	x21,x6,x12
    19bc:	016409bb          	addw	x19,x8,x22
    19c0:	41338c33          	sub	x24,x7,x19
    19c4:	3989c393          	xori	x7,x19,920
    19c8:	260d0013          	addi	x0,x26,608
    19cc:	3dd66613          	ori	x12,x12,989
    19d0:	005ee1b3          	or	x3,x29,x5
    19d4:	743f8a93          	addi	x21,x31,1859
    19d8:	41b0873b          	subw	x14,x1,x27
    19dc:	b414f093          	andi	x1,x9,-1215
    19e0:	009561b3          	or	x3,x10,x9
    19e4:	553d6393          	ori	x7,x26,1363
    19e8:	1b408f93          	addi	x31,x1,436
    19ec:	40e50733          	sub	x14,x10,x14
    19f0:	40ed83bb          	subw	x7,x27,x14
    19f4:	10ebf513          	andi	x10,x23,270
    19f8:	73846193          	ori	x3,x8,1848
    19fc:	40728133          	sub	x2,x5,x7
    1a00:	41f3043b          	subw	x8,x6,x31
    1a04:	9051871b          	addiw	x14,x3,-1787
    1a08:	0134f3b3          	and	x7,x9,x19
    1a0c:	a55bf013          	andi	x0,x23,-1451
    1a10:	7eeac993          	xori	x19,x21,2030
    1a14:	d2e16793          	ori	x15,x2,-722
    1a18:	c0950313          	addi	x6,x10,-1015
    1a1c:	0184e0b3          	or	x1,x9,x24
    1a20:	ba788c9b          	addiw	x25,x17,-1113
    1a24:	00f98a33          	add	x20,x19,x15
    1a28:	f195ce93          	xori	x29,x11,-231
    1a2c:	00de4533          	xor	x10,x28,x13
    1a30:	497a0813          	addi	x16,x20,1175
    1a34:	fd418b93          	addi	x23,x3,-44
    1a38:	76caf993          	andi	x19,x21,1900
    1a3c:	01b66bb3          	or	x23,x12,x27
    1a40:	0f2b029b          	addiw	x5,x22,242
    1a44:	00370033          	add	x0,x14,x3
    1a48:	11bcca93          	xori	x21,x25,283
    1a4c:	0131013b          	addw	x2,x2,x19
    1a50:	e6eb889b          	addiw	x17,x23,-402
    1a54:	013b8cb3          	add	x25,x23,x19
    1a58:	00b78533          	add	x10,x15,x11
    1a5c:	017fe5b3          	or	x11,x31,x23
    1a60:	405e07bb          	subw	x15,x28,x5
    1a64:	00ae83bb          	addw	x7,x29,x10
    1a68:	40310833          	sub	x16,x2,x3
    1a6c:	00c7f633          	and	x12,x15,x12
    1a70:	8cfffd13          	andi	x26,x31,-1841
    1a74:	005e0fb3          	add	x31,x28,x5
    1a78:	00a04bb3          	xor	x23,x0,x10
    1a7c:	7a090f13          	addi	x30,x18,1952
    1a80:	003306bb          	addw	x13,x6,x3
    1a84:	41820833          	sub	x16,x4,x24
    1a88:	10cc0c9b          	addiw	x25,x24,268
    1a8c:	00178f33          	add	x30,x15,x1
    1a90:	e8110893          	addi	x17,x2,-383
    1a94:	000aea33          	or	x20,x21,x0
    1a98:	0056f433          	and	x8,x13,x5
    1a9c:	400d82b3          	sub	x5,x27,x0
    1aa0:	01ad74b3          	and	x9,x26,x26
    1aa4:	40358f3b          	subw	x30,x11,x3
    1aa8:	41890e33          	sub	x28,x18,x24
    1aac:	403983b3          	sub	x7,x19,x3
    1ab0:	008b65b3          	or	x11,x22,x8
    1ab4:	e7660493          	addi	x9,x12,-394
    1ab8:	011d093b          	addw	x18,x26,x17
    1abc:	a819e993          	ori	x19,x19,-1407
    1ac0:	00fc86bb          	addw	x13,x25,x15
    1ac4:	01554cb3          	xor	x25,x10,x21
    1ac8:	00df48b3          	xor	x17,x30,x13
    1acc:	015c67b3          	or	x15,x24,x21
    1ad0:	d01a6b93          	ori	x23,x20,-767
    1ad4:	ed380e93          	addi	x29,x16,-301
    1ad8:	01b44333          	xor	x6,x8,x27
    1adc:	79520a1b          	addiw	x20,x4,1941 # 795 <_binary_lab1_test_bin_start+0x795>
    1ae0:	00904833          	xor	x16,x0,x9
    1ae4:	400a05bb          	subw	x11,x20,x0
    1ae8:	01a94733          	xor	x14,x18,x26
    1aec:	ee8b841b          	addiw	x8,x23,-280
    1af0:	40b387b3          	sub	x15,x7,x11
    1af4:	41e80333          	sub	x6,x16,x30
    1af8:	8c9d0293          	addi	x5,x26,-1847
    1afc:	00c6f533          	and	x10,x13,x12
    1b00:	000d70b3          	and	x1,x26,x0
    1b04:	01e0883b          	addw	x16,x1,x30
    1b08:	900a8e13          	addi	x28,x21,-1792
    1b0c:	419a8233          	sub	x4,x21,x25
    1b10:	dcd8e613          	ori	x12,x17,-563
    1b14:	a8098713          	addi	x14,x19,-1408
    1b18:	365d8513          	addi	x10,x27,869
    1b1c:	003407bb          	addw	x15,x8,x3
    1b20:	ce8f891b          	addiw	x18,x31,-792
    1b24:	aa326e13          	ori	x28,x4,-1373
    1b28:	feb04b13          	xori	x22,x0,-21
    1b2c:	016a863b          	addw	x12,x21,x22
    1b30:	403e8933          	sub	x18,x29,x3
    1b34:	1144fa13          	andi	x20,x9,276
    1b38:	bfade113          	ori	x2,x27,-1030
    1b3c:	10794513          	xori	x10,x18,263
    1b40:	0ac80313          	addi	x6,x16,172
    1b44:	408f85bb          	subw	x11,x31,x8
    1b48:	0088c6b3          	xor	x13,x17,x8
    1b4c:	00204d33          	xor	x26,x0,x2
    1b50:	41c2833b          	subw	x6,x5,x28
    1b54:	402381b3          	sub	x3,x7,x2
    1b58:	01988b3b          	addw	x22,x17,x25
    1b5c:	41400eb3          	neg	x29,x20
    1b60:	700d8f93          	addi	x31,x27,1792
    1b64:	00a84c33          	xor	x24,x16,x10
    1b68:	01fc0733          	add	x14,x24,x31
    1b6c:	010dc1b3          	xor	x3,x27,x16
    1b70:	410787bb          	subw	x15,x15,x16
    1b74:	019609bb          	addw	x19,x12,x25
    1b78:	d152e193          	ori	x3,x5,-747
    1b7c:	41ad083b          	subw	x16,x26,x26
    1b80:	2f6f7513          	andi	x10,x30,758
    1b84:	ade64693          	xori	x13,x12,-1314
    1b88:	41cd0a33          	sub	x20,x26,x28
    1b8c:	f07f6c13          	ori	x24,x30,-249
    1b90:	53656213          	ori	x4,x10,1334
    1b94:	d3167893          	andi	x17,x12,-719
    1b98:	40708bb3          	sub	x23,x1,x7
    1b9c:	003f7633          	and	x12,x30,x3
    1ba0:	7b9fcc13          	xori	x24,x31,1977
    1ba4:	01fc7833          	and	x16,x24,x31
    1ba8:	017889bb          	addw	x19,x17,x23
    1bac:	409400b3          	sub	x1,x8,x9
    1bb0:	7f57ce93          	xori	x29,x15,2037
    1bb4:	00366cb3          	or	x25,x12,x3
    1bb8:	2b627093          	andi	x1,x4,694
    1bbc:	409389b3          	sub	x19,x7,x9
    1bc0:	c2c84a13          	xori	x20,x16,-980
    1bc4:	31aec313          	xori	x6,x29,794
    1bc8:	0178fb33          	and	x22,x17,x23
    1bcc:	01ef0e33          	add	x28,x30,x30
    1bd0:	b6cbe513          	ori	x10,x23,-1172
    1bd4:	00caf4b3          	and	x9,x21,x12
    1bd8:	065ce513          	ori	x10,x25,101
    1bdc:	41240a33          	sub	x20,x8,x18
    1be0:	a59f0393          	addi	x7,x30,-1447
    1be4:	007682bb          	addw	x5,x13,x7
    1be8:	011c01bb          	addw	x3,x24,x17
    1bec:	40100d3b          	negw	x26,x1
    1bf0:	18818e9b          	addiw	x29,x3,392
    1bf4:	70a26b93          	ori	x23,x4,1802
    1bf8:	a9386a93          	ori	x21,x16,-1389
    1bfc:	015ae833          	or	x16,x21,x21
    1c00:	00e98ab3          	add	x21,x19,x14
    1c04:	010660b3          	or	x1,x12,x16
    1c08:	1c588f9b          	addiw	x31,x17,453
    1c0c:	013f43b3          	xor	x7,x30,x19
    1c10:	9cad8713          	addi	x14,x27,-1590
    1c14:	000c053b          	addw	x10,x24,x0
    1c18:	40ce8eb3          	sub	x29,x29,x12
    1c1c:	eb698f13          	addi	x30,x19,-330
    1c20:	014948b3          	xor	x17,x18,x20
    1c24:	286e4b13          	xori	x22,x28,646
    1c28:	009fea33          	or	x20,x31,x9
    1c2c:	016ec1b3          	xor	x3,x29,x22
    1c30:	154af713          	andi	x14,x21,340
    1c34:	009b093b          	addw	x18,x22,x9
    1c38:	4edf8e9b          	addiw	x29,x31,1261
    1c3c:	4022843b          	subw	x8,x5,x2
    1c40:	4b2d4d13          	xori	x26,x26,1202
    1c44:	41738133          	sub	x2,x7,x23
    1c48:	011d84bb          	addw	x9,x27,x17
    1c4c:	41478c33          	sub	x24,x15,x20
    1c50:	40c18d3b          	subw	x26,x3,x12
    1c54:	01014333          	xor	x6,x2,x16
    1c58:	c7dd7c13          	andi	x24,x26,-899
    1c5c:	41b88abb          	subw	x21,x17,x27
    1c60:	cabe8f9b          	addiw	x31,x29,-853
    1c64:	924de893          	ori	x17,x27,-1756
    1c68:	40b3023b          	subw	x4,x6,x11
    1c6c:	0030e0b3          	or	x1,x1,x3
    1c70:	1e44051b          	addiw	x10,x8,484
    1c74:	570d4d13          	xori	x26,x26,1392
    1c78:	003c4233          	xor	x4,x24,x3
    1c7c:	52cec313          	xori	x6,x29,1324
    1c80:	002cf4b3          	and	x9,x25,x2
    1c84:	415b00bb          	subw	x1,x22,x21
    1c88:	511c4013          	xori	x0,x24,1297
    1c8c:	86754b93          	xori	x23,x10,-1945
    1c90:	01d1ffb3          	and	x31,x3,x29
    1c94:	00ab0b33          	add	x22,x22,x10
    1c98:	01420bbb          	addw	x23,x4,x20
    1c9c:	07498b9b          	addiw	x23,x19,116
    1ca0:	7dff021b          	addiw	x4,x30,2015
    1ca4:	372d4393          	xori	x7,x26,882
    1ca8:	5f3d6993          	ori	x19,x26,1523
    1cac:	00a30a33          	add	x20,x6,x10
    1cb0:	019f8233          	add	x4,x31,x25
    1cb4:	af34fa93          	andi	x21,x9,-1293
    1cb8:	008a7cb3          	and	x25,x20,x8
    1cbc:	a2460a93          	addi	x21,x12,-1500
    1cc0:	013a4b33          	xor	x22,x20,x19
    1cc4:	3f2bff13          	andi	x30,x23,1010
    1cc8:	7dd86193          	ori	x3,x16,2013
    1ccc:	01e3fb33          	and	x22,x7,x30
    1cd0:	00264833          	xor	x16,x12,x2
    1cd4:	40d18f33          	sub	x30,x3,x13
    1cd8:	01e08d3b          	addw	x26,x1,x30
    1cdc:	fdb9e293          	ori	x5,x19,-37
    1ce0:	01ff803b          	addw	x0,x31,x31
    1ce4:	413d81bb          	subw	x3,x27,x19
    1ce8:	404d0ebb          	subw	x29,x26,x4
    1cec:	28590693          	addi	x13,x18,645
    1cf0:	406e82bb          	subw	x5,x29,x6
    1cf4:	41f9003b          	subw	x0,x18,x31
    1cf8:	412e04b3          	sub	x9,x28,x18
    1cfc:	4c670f1b          	addiw	x30,x14,1222
    1d00:	419a89bb          	subw	x19,x21,x25
    1d04:	006a0533          	add	x10,x20,x6
    1d08:	0173893b          	addw	x18,x7,x23
    1d0c:	0114ce33          	xor	x28,x9,x17
    1d10:	00948a3b          	addw	x20,x9,x9
    1d14:	0030ccb3          	xor	x25,x1,x3
    1d18:	016666b3          	or	x13,x12,x22
    1d1c:	ea9cec13          	ori	x24,x25,-343
    1d20:	401c8733          	sub	x14,x25,x1
    1d24:	8dd9cc13          	xori	x24,x19,-1827
    1d28:	0016f833          	and	x16,x13,x1
    1d2c:	008a053b          	addw	x10,x20,x8
    1d30:	414b87bb          	subw	x15,x23,x20
    1d34:	015b7533          	and	x10,x22,x21
    1d38:	416807b3          	sub	x15,x16,x22
    1d3c:	4a810693          	addi	x13,x2,1192
    1d40:	0070013b          	addw	x2,x0,x7
    1d44:	01b97eb3          	and	x29,x18,x27
    1d48:	01cb6733          	or	x14,x22,x28
    1d4c:	01c3f033          	and	x0,x7,x28
    1d50:	86668f13          	addi	x30,x13,-1946
    1d54:	009bcfb3          	xor	x31,x23,x9
    1d58:	c1d37113          	andi	x2,x6,-995
    1d5c:	22ea6a13          	ori	x20,x20,558
    1d60:	413c8833          	sub	x16,x25,x19
    1d64:	01cb0a3b          	addw	x20,x22,x28
    1d68:	0069f2b3          	and	x5,x19,x6
    1d6c:	40d70d3b          	subw	x26,x14,x13
    1d70:	cda9889b          	addiw	x17,x19,-806
    1d74:	01868a3b          	addw	x20,x13,x24
    1d78:	9480e393          	ori	x7,x1,-1720
    1d7c:	0043ea33          	or	x20,x7,x4
    1d80:	c459099b          	addiw	x19,x18,-955
    1d84:	019eeeb3          	or	x29,x29,x25
    1d88:	324d831b          	addiw	x6,x27,804
    1d8c:	016ac9b3          	xor	x19,x21,x22
    1d90:	40ad85bb          	subw	x11,x27,x10
    1d94:	014c893b          	addw	x18,x25,x20
    1d98:	c258801b          	addiw	x0,x17,-987
    1d9c:	40a082bb          	subw	x5,x1,x10
    1da0:	46db7e93          	andi	x29,x22,1133
    1da4:	004b8bbb          	addw	x23,x23,x4
    1da8:	189de893          	ori	x17,x27,393
    1dac:	8fb8811b          	addiw	x2,x17,-1797
    1db0:	4dae0113          	addi	x2,x28,1242
    1db4:	002983b3          	add	x7,x19,x2
    1db8:	00dc4c33          	xor	x24,x24,x13
    1dbc:	41b50433          	sub	x8,x10,x27
    1dc0:	b8ab4313          	xori	x6,x22,-1142
    1dc4:	01a8f033          	and	x0,x17,x26
    1dc8:	00b307b3          	add	x15,x6,x11
    1dcc:	41820bbb          	subw	x23,x4,x24
    1dd0:	404a0133          	sub	x2,x20,x4
    1dd4:	009687bb          	addw	x15,x13,x9
    1dd8:	409188b3          	sub	x17,x3,x9
    1ddc:	437ec293          	xori	x5,x29,1079
    1de0:	008cf0b3          	and	x1,x25,x8
    1de4:	008c07bb          	addw	x15,x24,x8
    1de8:	4088053b          	subw	x10,x16,x8
    1dec:	8cc58013          	addi	x0,x11,-1844
    1df0:	40b60413          	addi	x8,x12,1035
    1df4:	40750333          	sub	x6,x10,x7
    1df8:	92dafb13          	andi	x22,x21,-1747
    1dfc:	c50ae913          	ori	x18,x21,-944
    1e00:	013d44b3          	xor	x9,x26,x19
    1e04:	012d6ab3          	or	x21,x26,x18
    1e08:	002a09bb          	addw	x19,x20,x2
    1e0c:	9da94193          	xori	x3,x18,-1574
    1e10:	4112003b          	subw	x0,x4,x17
    1e14:	ebf17093          	andi	x1,x2,-321
    1e18:	cf94ec93          	ori	x25,x9,-775
    1e1c:	01de0733          	add	x14,x28,x29
    1e20:	41808333          	sub	x6,x1,x24
    1e24:	5aea8e1b          	addiw	x28,x21,1454
    1e28:	0018e733          	or	x14,x17,x1
    1e2c:	015c4d33          	xor	x26,x24,x21
    1e30:	a8880993          	addi	x19,x16,-1400
    1e34:	d9e28493          	addi	x9,x5,-610
    1e38:	01106cb3          	or	x25,x0,x17
    1e3c:	41b783b3          	sub	x7,x15,x27
    1e40:	0092e4b3          	or	x9,x5,x9
    1e44:	00baed33          	or	x26,x21,x11
    1e48:	9acc7713          	andi	x14,x24,-1620
    1e4c:	403086bb          	subw	x13,x1,x3
    1e50:	d31b8f13          	addi	x30,x23,-719
    1e54:	01db033b          	addw	x6,x22,x29
    1e58:	fc33fd13          	andi	x26,x7,-61
    1e5c:	2838fc13          	andi	x24,x17,643
    1e60:	c5716a13          	ori	x20,x2,-937
    1e64:	008de833          	or	x16,x27,x8
    1e68:	3caece13          	xori	x28,x29,970
    1e6c:	1f978d93          	addi	x27,x15,505
    1e70:	ad148d1b          	addiw	x26,x9,-1327
    1e74:	01486ab3          	or	x21,x16,x20
    1e78:	41c201bb          	subw	x3,x4,x28
    1e7c:	2f8fcf13          	xori	x30,x31,760
    1e80:	32de009b          	addiw	x1,x28,813
    1e84:	00254433          	xor	x8,x10,x2
    1e88:	41ec0eb3          	sub	x29,x24,x30
    1e8c:	01bc82bb          	addw	x5,x25,x27
    1e90:	7848ec13          	ori	x24,x17,1924
    1e94:	008d4d33          	xor	x26,x26,x8
    1e98:	40fe01b3          	sub	x3,x28,x15
    1e9c:	86948b93          	addi	x23,x9,-1943
    1ea0:	88e64093          	xori	x1,x12,-1906
    1ea4:	723e879b          	addiw	x15,x29,1827
    1ea8:	003cf7b3          	and	x15,x25,x3
    1eac:	01a5fd33          	and	x26,x11,x26
    1eb0:	01c676b3          	and	x13,x12,x28
    1eb4:	d1436793          	ori	x15,x6,-748
    1eb8:	41590bbb          	subw	x23,x18,x21
    1ebc:	40b08ab3          	sub	x21,x1,x11
    1ec0:	adff6013          	ori	x0,x30,-1313
    1ec4:	e67bcf93          	xori	x31,x23,-409
    1ec8:	00b9043b          	addw	x8,x18,x11
    1ecc:	8f9ae893          	ori	x17,x21,-1799
    1ed0:	1e2a8593          	addi	x11,x21,482
    1ed4:	9141eb13          	ori	x22,x3,-1772
    1ed8:	8a9b0293          	addi	x5,x22,-1879
    1edc:	620f7a13          	andi	x20,x30,1568
    1ee0:	00c586b3          	add	x13,x11,x12
    1ee4:	003be933          	or	x18,x23,x3
    1ee8:	00ff7233          	and	x4,x30,x15
    1eec:	34e97013          	andi	x0,x18,846
    1ef0:	40878a3b          	subw	x20,x15,x8
    1ef4:	c3faee93          	ori	x29,x21,-961
    1ef8:	0fbe8913          	addi	x18,x29,251
    1efc:	893ef913          	andi	x18,x29,-1901
    1f00:	0048efb3          	or	x31,x17,x4
    1f04:	0130063b          	addw	x12,x0,x19
    1f08:	01038e3b          	addw	x28,x7,x16
    1f0c:	4aea0d9b          	addiw	x27,x20,1198
    1f10:	0041f6b3          	and	x13,x3,x4
    1f14:	2507ed13          	ori	x26,x15,592
    1f18:	409703b3          	sub	x7,x14,x9
    1f1c:	018eea33          	or	x20,x29,x24
    1f20:	40be81bb          	subw	x3,x29,x11
    1f24:	003bf933          	and	x18,x23,x3
    1f28:	01e0e6b3          	or	x13,x1,x30
    1f2c:	8304839b          	addiw	x7,x9,-2000
    1f30:	00257433          	and	x8,x10,x2
    1f34:	71786b13          	ori	x22,x16,1815
    1f38:	01834eb3          	xor	x29,x6,x24
    1f3c:	d5677c13          	andi	x24,x14,-682
    1f40:	0141f033          	and	x0,x3,x20
    1f44:	fc634a93          	xori	x21,x6,-58
    1f48:	dd6cc513          	xori	x10,x25,-554
    1f4c:	4ac4c913          	xori	x18,x9,1196
    1f50:	003084bb          	addw	x9,x1,x3
    1f54:	01ae7233          	and	x4,x28,x26
    1f58:	2526ed13          	ori	x26,x13,594
    1f5c:	00778b33          	add	x22,x15,x7
    1f60:	407409b3          	sub	x19,x8,x7
    1f64:	012ee133          	or	x2,x29,x18
    1f68:	016ccb33          	xor	x22,x25,x22
    1f6c:	00aaeb33          	or	x22,x21,x10
    1f70:	7f338893          	addi	x17,x7,2035
    1f74:	45a07d93          	andi	x27,x0,1114
    1f78:	40728d3b          	subw	x26,x5,x7
    1f7c:	97900b1b          	addiw	x22,x0,-1671
    1f80:	44304993          	xori	x19,x0,1091
    1f84:	9316ed93          	ori	x27,x13,-1743
    1f88:	3a234393          	xori	x7,x6,930
    1f8c:	cd700c9b          	addiw	x25,x0,-809
    1f90:	009e7b33          	and	x22,x28,x9
    1f94:	00814a33          	xor	x20,x2,x8
    1f98:	016280b3          	add	x1,x5,x22
    1f9c:	41578c33          	sub	x24,x15,x21
    1fa0:	22686293          	ori	x5,x16,550
    1fa4:	403407b3          	sub	x15,x8,x3
    1fa8:	3b280a1b          	addiw	x20,x16,946
    1fac:	01887db3          	and	x27,x16,x24
    1fb0:	418b8d33          	sub	x26,x23,x24
    1fb4:	44bdc713          	xori	x14,x27,1099
    1fb8:	019c7633          	and	x12,x24,x25
    1fbc:	ad32fd93          	andi	x27,x5,-1325
    1fc0:	c8a78f13          	addi	x30,x15,-886
    1fc4:	41f603bb          	subw	x7,x12,x31
    1fc8:	20f4c893          	xori	x17,x9,527
    1fcc:	996b8893          	addi	x17,x23,-1642
    1fd0:	0119fe33          	and	x28,x19,x17
    1fd4:	5e87ed13          	ori	x26,x15,1512
    1fd8:	0139c7b3          	xor	x15,x19,x19
    1fdc:	8d21849b          	addiw	x9,x3,-1838
    1fe0:	bd064693          	xori	x13,x12,-1072
    1fe4:	00b6893b          	addw	x18,x13,x11
    1fe8:	1917f713          	andi	x14,x15,401
    1fec:	008cc033          	xor	x0,x25,x8
    1ff0:	5c6f7e13          	andi	x28,x30,1478
    1ff4:	38e44713          	xori	x14,x8,910
    1ff8:	414b0eb3          	sub	x29,x22,x20
    1ffc:	409b0a3b          	subw	x20,x22,x9
    2000:	012f71b3          	and	x3,x30,x18
    2004:	40328eb3          	sub	x29,x5,x3
    2008:	d13a8a13          	addi	x20,x21,-749
    200c:	57c4ea93          	ori	x21,x9,1404
    2010:	01ad40b3          	xor	x1,x26,x26
    2014:	415d0d33          	sub	x26,x26,x21
    2018:	01878233          	add	x4,x15,x24
    201c:	01248933          	add	x18,x9,x18
    2020:	7e9ec493          	xori	x9,x29,2025
    2024:	d4d50f1b          	addiw	x30,x10,-691
    2028:	51bcec93          	ori	x25,x25,1307
    202c:	614d8213          	addi	x4,x27,1556
    2030:	5dbe879b          	addiw	x15,x29,1499
    2034:	01ae7233          	and	x4,x28,x26
    2038:	40330bbb          	subw	x23,x6,x3
    203c:	401c0433          	sub	x8,x24,x1
    2040:	c80e021b          	addiw	x4,x28,-896
    2044:	011afa33          	and	x20,x21,x17
    2048:	40dd8fb3          	sub	x31,x27,x13
    204c:	a82fcd93          	xori	x27,x31,-1406
    2050:	00db8ebb          	addw	x29,x23,x13
    2054:	24b7e893          	ori	x17,x15,587
    2058:	14ff0493          	addi	x9,x30,335
    205c:	41ec83b3          	sub	x7,x25,x30
    2060:	018e4833          	xor	x16,x28,x24
    2064:	00146033          	or	x0,x8,x1
    2068:	40cf8ebb          	subw	x29,x31,x12
    206c:	417500b3          	sub	x1,x10,x23
    2070:	015e8cb3          	add	x25,x29,x21
    2074:	41d00b33          	neg	x22,x29
    2078:	41e7843b          	subw	x8,x15,x30
    207c:	011888b3          	add	x17,x17,x17
    2080:	5adb891b          	addiw	x18,x23,1453
    2084:	01280c3b          	addw	x24,x16,x18
    2088:	8e987013          	andi	x0,x16,-1815
    208c:	5187f493          	andi	x9,x15,1304
    2090:	016fc833          	xor	x16,x31,x22
    2094:	35ab0113          	addi	x2,x22,858
    2098:	01ffc133          	xor	x2,x31,x31
    209c:	01d4e0b3          	or	x1,x9,x29
    20a0:	01900a3b          	addw	x20,x0,x25
    20a4:	797f8c1b          	addiw	x24,x31,1943
    20a8:	40308933          	sub	x18,x1,x3
    20ac:	41eb83bb          	subw	x7,x23,x30
    20b0:	00c40cb3          	add	x25,x8,x12
    20b4:	41128e33          	sub	x28,x5,x17
    20b8:	01d085b3          	add	x11,x1,x29
    20bc:	b4c7e593          	ori	x11,x15,-1204
    20c0:	80a2e613          	ori	x12,x5,-2038
    20c4:	017bec33          	or	x24,x23,x23
    20c8:	004f80bb          	addw	x1,x31,x4
    20cc:	0bdb0e13          	addi	x28,x22,189
    20d0:	00c4e8b3          	or	x17,x9,x12
    20d4:	0080fb33          	and	x22,x1,x8
    20d8:	db4bfc93          	andi	x25,x23,-588
    20dc:	cf72fe13          	andi	x28,x5,-777
    20e0:	4ccc0493          	addi	x9,x24,1228
    20e4:	ea80f993          	andi	x19,x1,-344
    20e8:	78b9019b          	addiw	x3,x18,1931
    20ec:	404480b3          	sub	x1,x9,x4
    20f0:	00c60bb3          	add	x23,x12,x12
    20f4:	00c3063b          	addw	x12,x6,x12
    20f8:	01a50133          	add	x2,x10,x26
    20fc:	01007cb3          	and	x25,x0,x16
    2100:	cad97e93          	andi	x29,x18,-851
    2104:	a235fe13          	andi	x28,x11,-1501
    2108:	00887db3          	and	x27,x16,x8
    210c:	005903bb          	addw	x7,x18,x5
    2110:	40040c33          	sub	x24,x8,x0
    2114:	002802b3          	add	x5,x16,x2
    2118:	7f737093          	andi	x1,x6,2039
    211c:	01278fbb          	addw	x31,x15,x18
    2120:	dcf97393          	andi	x7,x18,-561
    2124:	40ee8933          	sub	x18,x29,x14
    2128:	ad12c413          	xori	x8,x5,-1327
    212c:	b792061b          	addiw	x12,x4,-1159 # fffffffffffffb79 <_binary_lab1_test_bin_end+0xfffffffffffefb71>
    2130:	01e87f33          	and	x30,x16,x30
    2134:	01eb6cb3          	or	x25,x22,x30
    2138:	1919e793          	ori	x15,x19,401
    213c:	4da5831b          	addiw	x6,x11,1242
    2140:	ab15ce93          	xori	x29,x11,-1359
    2144:	30f50013          	addi	x0,x10,783
    2148:	ef86e293          	ori	x5,x13,-264
    214c:	2ec28013          	addi	x0,x5,748
    2150:	3bcf0893          	addi	x17,x30,956
    2154:	00dcfab3          	and	x21,x25,x13
    2158:	c506e493          	ori	x9,x13,-944
    215c:	0135cb33          	xor	x22,x11,x19
    2160:	014d7233          	and	x4,x26,x20
    2164:	05f7871b          	addiw	x14,x15,95
    2168:	0179f6b3          	and	x13,x19,x23
    216c:	34878613          	addi	x12,x15,840
    2170:	1fc40693          	addi	x13,x8,508
    2174:	01cb4033          	xor	x0,x22,x28
    2178:	322e849b          	addiw	x9,x29,802
    217c:	a8a24a13          	xori	x20,x4,-1398
    2180:	1e304213          	xori	x4,x0,483
    2184:	f3a6ea93          	ori	x21,x13,-198
    2188:	c5300e93          	li	x29,-941
    218c:	586a6b13          	ori	x22,x20,1414
    2190:	67580193          	addi	x3,x16,1653
    2194:	3a574793          	xori	x15,x14,933
    2198:	41b60db3          	sub	x27,x12,x27
    219c:	76920013          	addi	x0,x4,1897 # 769 <_binary_lab1_test_bin_start+0x769>
    21a0:	f0868d1b          	addiw	x26,x13,-248
    21a4:	0151f333          	and	x6,x3,x21
    21a8:	93ad8d13          	addi	x26,x27,-1734
    21ac:	41a20abb          	subw	x21,x4,x26
    21b0:	00926133          	or	x2,x4,x9
    21b4:	ba197b93          	andi	x23,x18,-1119
    21b8:	01af6bb3          	or	x23,x30,x26
    21bc:	eb1ac013          	xori	x0,x21,-335
    21c0:	40be093b          	subw	x18,x28,x11
    21c4:	df8b4493          	xori	x9,x22,-520
    21c8:	9e0b4c13          	xori	x24,x22,-1568
    21cc:	01788c33          	add	x24,x17,x23
    21d0:	d1c2c413          	xori	x8,x5,-740
    21d4:	989a0b93          	addi	x23,x20,-1655
    21d8:	41b8853b          	subw	x10,x17,x27
    21dc:	90f7071b          	addiw	x14,x14,-1777
    21e0:	00df8c3b          	addw	x24,x31,x13
    21e4:	55da7193          	andi	x3,x20,1373
    21e8:	e725841b          	addiw	x8,x11,-398
    21ec:	006bc6b3          	xor	x13,x23,x6
    21f0:	24aa7713          	andi	x14,x20,586
    21f4:	e287fb13          	andi	x22,x15,-472
    21f8:	bf690913          	addi	x18,x18,-1034
    21fc:	e477c093          	xori	x1,x15,-441
    2200:	401f813b          	subw	x2,x31,x1
    2204:	d5724a93          	xori	x21,x4,-681
    2208:	01f6f533          	and	x10,x13,x31
    220c:	41d90633          	sub	x12,x18,x29
    2210:	209f0013          	addi	x0,x30,521
    2214:	c981091b          	addiw	x18,x2,-872
    2218:	0083f3b3          	and	x7,x7,x8
    221c:	0141f5b3          	and	x11,x3,x20
    2220:	41ce8e33          	sub	x28,x29,x28
    2224:	01f3cc33          	xor	x24,x7,x31
    2228:	40310a3b          	subw	x20,x2,x3
    222c:	af234493          	xori	x9,x6,-1294
    2230:	401b8733          	sub	x14,x23,x1
    2234:	008e6033          	or	x0,x28,x8
    2238:	40fb01b3          	sub	x3,x22,x15
    223c:	448d4113          	xori	x2,x26,1096
    2240:	0154cd33          	xor	x26,x9,x21
    2244:	0136f0b3          	and	x1,x13,x19
    2248:	01aee333          	or	x6,x29,x26
    224c:	005781b3          	add	x3,x15,x5
    2250:	00b86bb3          	or	x23,x16,x11
    2254:	5181c293          	xori	x5,x3,1304
    2258:	a510869b          	addiw	x13,x1,-1455
    225c:	001b0bbb          	addw	x23,x22,x1
    2260:	86e2e613          	ori	x12,x5,-1938
    2264:	08e04793          	xori	x15,x0,142
    2268:	40cc8bbb          	subw	x23,x25,x12
    226c:	01eae6b3          	or	x13,x21,x30
    2270:	00fbe8b3          	or	x17,x23,x15
    2274:	00ea7fb3          	and	x31,x20,x14
    2278:	408885bb          	subw	x11,x17,x8
    227c:	00d96333          	or	x6,x18,x13
    2280:	01ea8ab3          	add	x21,x21,x30
    2284:	0031c533          	xor	x10,x3,x3
    2288:	2d147813          	andi	x16,x8,721
    228c:	516a6693          	ori	x13,x20,1302
    2290:	01dbe733          	or	x14,x23,x29
    2294:	7b89c713          	xori	x14,x19,1976
    2298:	0115043b          	addw	x8,x10,x17
    229c:	1a26ef93          	ori	x31,x13,418
    22a0:	57ceeb13          	ori	x22,x29,1404
    22a4:	00468bbb          	addw	x23,x13,x4
    22a8:	debfc793          	xori	x15,x31,-533
    22ac:	01e7ec33          	or	x24,x15,x30
    22b0:	065d0d93          	addi	x27,x26,101
    22b4:	018e44b3          	xor	x9,x28,x24
    22b8:	00477db3          	and	x27,x14,x4
    22bc:	9c10fd13          	andi	x26,x1,-1599
    22c0:	401c0f33          	sub	x30,x24,x1
    22c4:	00528633          	add	x12,x5,x5
    22c8:	40590333          	sub	x6,x18,x5
    22cc:	b082c893          	xori	x17,x5,-1272
    22d0:	00db0433          	add	x8,x22,x13
    22d4:	4047813b          	subw	x2,x15,x4
    22d8:	406981b3          	sub	x3,x19,x6
    22dc:	85db4c13          	xori	x24,x22,-1955
    22e0:	01c67233          	and	x4,x12,x28
    22e4:	34f07013          	andi	x0,x0,847
    22e8:	010e0133          	add	x2,x28,x16
    22ec:	58bc0813          	addi	x16,x24,1419
    22f0:	407d813b          	subw	x2,x27,x7
    22f4:	004006bb          	addw	x13,x0,x4
    22f8:	40080533          	sub	x10,x16,x0
    22fc:	012e4db3          	xor	x27,x28,x18
    2300:	f639e993          	ori	x19,x19,-157
    2304:	95890f93          	addi	x31,x18,-1704
    2308:	13fb071b          	addiw	x14,x22,319
    230c:	00a97533          	and	x10,x18,x10
    2310:	40c18733          	sub	x14,x3,x12
    2314:	960d7313          	andi	x6,x26,-1696
    2318:	01d78cb3          	add	x25,x15,x29
    231c:	25bd8913          	addi	x18,x27,603
    2320:	41be8e3b          	subw	x28,x29,x27
    2324:	1307e513          	ori	x10,x15,304
    2328:	00234a33          	xor	x20,x6,x2
    232c:	013d73b3          	and	x7,x26,x19
    2330:	a6277f13          	andi	x30,x14,-1438
    2334:	00e8f8b3          	and	x17,x17,x14
    2338:	01a90033          	add	x0,x18,x26
    233c:	3594fc13          	andi	x24,x9,857
    2340:	40910233          	sub	x4,x2,x9
    2344:	00e105bb          	addw	x11,x2,x14
    2348:	1f89e513          	ori	x10,x19,504
    234c:	00f6f9b3          	and	x19,x13,x15
    2350:	00b0ea33          	or	x20,x1,x11
    2354:	01057433          	and	x8,x10,x16
    2358:	00908fb3          	add	x31,x1,x9
    235c:	00c0f033          	and	x0,x1,x12
    2360:	0844ef13          	ori	x30,x9,132
    2364:	00b6fcb3          	and	x25,x13,x11
    2368:	cb940e13          	addi	x28,x8,-839
    236c:	01a00e33          	add	x28,x0,x26
    2370:	21aaeb13          	ori	x22,x21,538
    2374:	403f0e33          	sub	x28,x30,x3
    2378:	02f76f13          	ori	x30,x14,47
    237c:	5354fe13          	andi	x28,x9,1333
    2380:	6e084c93          	xori	x25,x16,1760
    2384:	66e30a1b          	addiw	x20,x6,1646
    2388:	012cee33          	or	x28,x25,x18
    238c:	000c88b3          	add	x17,x25,x0
    2390:	bb576c13          	ori	x24,x14,-1099
    2394:	35ae8913          	addi	x18,x29,858
    2398:	00b148b3          	xor	x17,x2,x11
    239c:	0090f7b3          	and	x15,x1,x9
    23a0:	00e78bb3          	add	x23,x15,x14
    23a4:	36180c9b          	addiw	x25,x16,865
    23a8:	09c90413          	addi	x8,x18,156
    23ac:	00b54c33          	xor	x24,x10,x11
    23b0:	416c0f3b          	subw	x30,x24,x22
    23b4:	014c4b33          	xor	x22,x24,x20
    23b8:	026c4713          	xori	x14,x24,38
    23bc:	e5234993          	xori	x19,x6,-430
    23c0:	84b47e93          	andi	x29,x8,-1973
    23c4:	40bb8733          	sub	x14,x23,x11
    23c8:	4dd58c13          	addi	x24,x11,1245
    23cc:	00400f3b          	addw	x30,x0,x4
    23d0:	80f7891b          	addiw	x18,x15,-2033
    23d4:	015585b3          	add	x11,x11,x21
    23d8:	01e87233          	and	x4,x16,x30
    23dc:	98b8f713          	andi	x14,x17,-1653
    23e0:	e0d46713          	ori	x14,x8,-499
    23e4:	2dd8801b          	addiw	x0,x17,733
    23e8:	00f64f33          	xor	x30,x12,x15
    23ec:	051d4513          	xori	x10,x26,81
    23f0:	015f6a33          	or	x20,x30,x21
    23f4:	00d0e9b3          	or	x19,x1,x13
    23f8:	83f5c493          	xori	x9,x11,-1985
    23fc:	0022e8b3          	or	x17,x5,x2
    2400:	1e13fb13          	andi	x22,x7,481
    2404:	01b40eb3          	add	x29,x8,x27
    2408:	ecd77113          	andi	x2,x14,-307
    240c:	873e4613          	xori	x12,x28,-1933
    2410:	22a2cf13          	xori	x30,x5,554
    2414:	d6608193          	addi	x3,x1,-666
    2418:	99b84713          	xori	x14,x16,-1637
    241c:	4317e793          	ori	x15,x15,1073
    2420:	e326ec93          	ori	x25,x13,-462
    2424:	00c807bb          	addw	x15,x16,x12
    2428:	0067c033          	xor	x0,x15,x6
    242c:	00b5043b          	addw	x8,x10,x11
    2430:	7b1dc213          	xori	x4,x27,1969
    2434:	009b0533          	add	x10,x22,x9
    2438:	01c9e593          	ori	x11,x19,28
    243c:	404102b3          	sub	x5,x2,x4
    2440:	001f4eb3          	xor	x29,x30,x1
    2444:	019c0433          	add	x8,x24,x25
    2448:	40078533          	sub	x10,x15,x0
    244c:	ffa07413          	andi	x8,x0,-6
    2450:	015c063b          	addw	x12,x24,x21
    2454:	ab626713          	ori	x14,x4,-1354
    2458:	01a98bb3          	add	x23,x19,x26
    245c:	00c78bb3          	add	x23,x15,x12
    2460:	419c01b3          	sub	x3,x24,x25
    2464:	406b0fbb          	subw	x31,x22,x6
    2468:	0158f9b3          	and	x19,x17,x21
    246c:	01b0e333          	or	x6,x1,x27
    2470:	6ea4e713          	ori	x14,x9,1770
    2474:	00447d33          	and	x26,x8,x4
    2478:	f880cd13          	xori	x26,x1,-120
    247c:	01a17b33          	and	x22,x2,x26
    2480:	c5f7fe93          	andi	x29,x15,-929
    2484:	01570abb          	addw	x21,x14,x21
    2488:	81f50a93          	addi	x21,x10,-2017
    248c:	a2354193          	xori	x3,x10,-1501
    2490:	01a405b3          	add	x11,x8,x26
    2494:	d644049b          	addiw	x9,x8,-668
    2498:	40f38733          	sub	x14,x7,x15
    249c:	28e90e9b          	addiw	x29,x18,654
    24a0:	da1bcc93          	xori	x25,x23,-607
    24a4:	f86c7b13          	andi	x22,x24,-122
    24a8:	ffff0e1b          	addiw	x28,x30,-1
    24ac:	29694093          	xori	x1,x18,662
    24b0:	c422f513          	andi	x10,x5,-958
    24b4:	604a4093          	xori	x1,x20,1540
    24b8:	019a0f33          	add	x30,x20,x25
    24bc:	02bf8f93          	addi	x31,x31,43
    24c0:	c60bfe13          	andi	x28,x23,-928
    24c4:	00616eb3          	or	x29,x2,x6
    24c8:	0162c433          	xor	x8,x5,x22
    24cc:	00a1cb33          	xor	x22,x3,x10
    24d0:	01dd8cb3          	add	x25,x27,x29
    24d4:	a01d4d13          	xori	x26,x26,-1535
    24d8:	dacee193          	ori	x3,x29,-596
    24dc:	1b74cb93          	xori	x23,x9,439
    24e0:	01faebb3          	or	x23,x21,x31
    24e4:	00fd7533          	and	x10,x26,x15
    24e8:	24c54f93          	xori	x31,x10,588
    24ec:	d5970a9b          	addiw	x21,x14,-679
    24f0:	08968193          	addi	x3,x13,137
    24f4:	00ea81bb          	addw	x3,x21,x14
    24f8:	009ff933          	and	x18,x31,x9
    24fc:	52db8393          	addi	x7,x23,1325
    2500:	00bf06b3          	add	x13,x30,x11
    2504:	fc14899b          	addiw	x19,x9,-63
    2508:	419c0933          	sub	x18,x24,x25
    250c:	cd62059b          	addiw	x11,x4,-810 # fffffffffffffcd6 <_binary_lab1_test_bin_end+0xfffffffffffefcce>
    2510:	b8824393          	xori	x7,x4,-1144
    2514:	006a4133          	xor	x2,x20,x6
    2518:	01a8cb33          	xor	x22,x17,x26
    251c:	00d085bb          	addw	x11,x1,x13
    2520:	9a360213          	addi	x4,x12,-1629
    2524:	f05b0213          	addi	x4,x22,-251
    2528:	6e820693          	addi	x13,x4,1768 # 6e8 <_binary_lab1_test_bin_start+0x6e8>
    252c:	01e962b3          	or	x5,x18,x30
    2530:	01b98933          	add	x18,x19,x27
    2534:	02e9ce93          	xori	x29,x19,46
    2538:	01d64133          	xor	x2,x12,x29
    253c:	3462fe93          	andi	x29,x5,838
    2540:	40a50133          	sub	x2,x10,x10
    2544:	00ef7b33          	and	x22,x30,x14
    2548:	01168c3b          	addw	x24,x13,x17
    254c:	01b20c33          	add	x24,x4,x27
    2550:	41938133          	sub	x2,x7,x25
    2554:	01790ebb          	addw	x29,x18,x23
    2558:	016568b3          	or	x17,x10,x22
    255c:	0033e133          	or	x2,x7,x3
    2560:	010f8eb3          	add	x29,x31,x16
    2564:	01cf0f3b          	addw	x30,x30,x28
    2568:	006677b3          	and	x15,x12,x6
    256c:	3c4dfd93          	andi	x27,x27,964
    2570:	96d87c93          	andi	x25,x16,-1683
    2574:	007dccb3          	xor	x25,x27,x7
    2578:	44f3f613          	andi	x12,x7,1103
    257c:	017ce333          	or	x6,x25,x23
    2580:	012d83bb          	addw	x7,x27,x18
    2584:	6cc87893          	andi	x17,x16,1740
    2588:	012a003b          	addw	x0,x20,x18
    258c:	00c07ab3          	and	x21,x0,x12
    2590:	01baea33          	or	x20,x21,x27
    2594:	018369b3          	or	x19,x6,x24
    2598:	40288d3b          	subw	x26,x17,x2
    259c:	9868f413          	andi	x8,x17,-1658
    25a0:	019e033b          	addw	x6,x28,x25
    25a4:	01486633          	or	x12,x16,x20
    25a8:	01d00bbb          	addw	x23,x0,x29
    25ac:	41bf04bb          	subw	x9,x30,x27
    25b0:	41e402b3          	sub	x5,x8,x30
    25b4:	0f178b1b          	addiw	x22,x15,241
    25b8:	40668b3b          	subw	x22,x13,x6
    25bc:	0017f033          	and	x0,x15,x1
    25c0:	01d50833          	add	x16,x10,x29
    25c4:	8581871b          	addiw	x14,x3,-1960
    25c8:	d35b8993          	addi	x19,x23,-715
    25cc:	64a80613          	addi	x12,x16,1610
    25d0:	410f04b3          	sub	x9,x30,x16
    25d4:	000b6c33          	or	x24,x22,x0
    25d8:	6e1bec13          	ori	x24,x23,1761
    25dc:	40dd063b          	subw	x12,x26,x13
    25e0:	00257db3          	and	x27,x10,x2
    25e4:	016c88bb          	addw	x17,x25,x22
    25e8:	01388f3b          	addw	x30,x17,x19
    25ec:	73b94e93          	xori	x29,x18,1851
    25f0:	7ef74593          	xori	x11,x14,2031
    25f4:	400b0233          	sub	x4,x22,x0
    25f8:	0771079b          	addiw	x15,x2,119
    25fc:	01960433          	add	x8,x12,x25
    2600:	00caff33          	and	x30,x21,x12
    2604:	00b3cc33          	xor	x24,x7,x11
    2608:	896a8a9b          	addiw	x21,x21,-1898
    260c:	d9796593          	ori	x11,x18,-617
    2610:	01c27e33          	and	x28,x4,x28
    2614:	413a84bb          	subw	x9,x21,x19
    2618:	41900433          	neg	x8,x25
    261c:	40bc06bb          	subw	x13,x24,x11
    2620:	62066213          	ori	x4,x12,1568
    2624:	006043b3          	xor	x7,x0,x6
    2628:	93adcd13          	xori	x26,x27,-1734
    262c:	a4057513          	andi	x10,x10,-1472
    2630:	01c2fab3          	and	x21,x5,x28
    2634:	c9500b9b          	addiw	x23,x0,-875
    2638:	007b4ab3          	xor	x21,x22,x7
    263c:	00a54533          	xor	x10,x10,x10
    2640:	c65fca13          	xori	x20,x31,-923
    2644:	62b76713          	ori	x14,x14,1579
    2648:	402707b3          	sub	x15,x14,x2
    264c:	41a1853b          	subw	x10,x3,x26
    2650:	00e36b33          	or	x22,x6,x14
    2654:	41180c33          	sub	x24,x16,x17
    2658:	ee4a8d9b          	addiw	x27,x21,-284
    265c:	fe036493          	ori	x9,x6,-32
    2660:	000f03bb          	addw	x7,x30,x0
    2664:	d4ef7a13          	andi	x20,x30,-690
    2668:	01aa8333          	add	x6,x21,x26
    266c:	2172879b          	addiw	x15,x5,535
    2670:	012dc133          	xor	x2,x27,x18
    2674:	019cf2b3          	and	x5,x25,x25
    2678:	00f50eb3          	add	x29,x10,x15
    267c:	40df02bb          	subw	x5,x30,x13
    2680:	01600a3b          	addw	x20,x0,x22
    2684:	b1a97793          	andi	x15,x18,-1254
    2688:	2c670e1b          	addiw	x28,x14,710
    268c:	be77031b          	addiw	x6,x14,-1049
    2690:	41a88233          	sub	x4,x17,x26
    2694:	5208c513          	xori	x10,x17,1312
    2698:	05a6c213          	xori	x4,x13,90
    269c:	95fa8f1b          	addiw	x30,x21,-1697
    26a0:	f7a2f213          	andi	x4,x5,-134
    26a4:	01d24833          	xor	x16,x4,x29
    26a8:	404f833b          	subw	x6,x31,x4
    26ac:	0006e7b3          	or	x15,x13,x0
    26b0:	40e40a33          	sub	x20,x8,x14
    26b4:	007ce033          	or	x0,x25,x7
    26b8:	41438cb3          	sub	x25,x7,x20
    26bc:	00ba01b3          	add	x3,x20,x11
    26c0:	00aaf0b3          	and	x1,x21,x10
    26c4:	40958f33          	sub	x30,x11,x9
    26c8:	41188733          	sub	x14,x17,x17
    26cc:	40ba093b          	subw	x18,x20,x11
    26d0:	00e860b3          	or	x1,x16,x14
    26d4:	01f3feb3          	and	x29,x7,x31
    26d8:	befccf93          	xori	x31,x25,-1041
    26dc:	000003bb          	addw	x7,x0,x0
    26e0:	00fc08bb          	addw	x17,x24,x15
    26e4:	7a81889b          	addiw	x17,x3,1960
    26e8:	7fcb8513          	addi	x10,x23,2044
    26ec:	f4cb7413          	andi	x8,x22,-180
    26f0:	b1818713          	addi	x14,x3,-1256
    26f4:	00d245b3          	xor	x11,x4,x13
    26f8:	08f48f93          	addi	x31,x9,143
    26fc:	d66f4913          	xori	x18,x30,-666
    2700:	7454cd13          	xori	x26,x9,1861
    2704:	00440eb3          	add	x29,x8,x4
    2708:	2fa27593          	andi	x11,x4,762
    270c:	41c48933          	sub	x18,x9,x28
    2710:	4039063b          	subw	x12,x18,x3
    2714:	40bc8ab3          	sub	x21,x25,x11
    2718:	01e508bb          	addw	x17,x10,x30
    271c:	010589b3          	add	x19,x11,x16
    2720:	3f477e93          	andi	x29,x14,1012
    2724:	00e7049b          	addiw	x9,x14,14
    2728:	9a01089b          	addiw	x17,x2,-1632
    272c:	678a0e9b          	addiw	x29,x20,1656
    2730:	6b327a13          	andi	x20,x4,1715
    2734:	417f853b          	subw	x10,x31,x23
    2738:	012e0ebb          	addw	x29,x28,x18
    273c:	945f841b          	addiw	x8,x31,-1723
    2740:	cb30879b          	addiw	x15,x1,-845
    2744:	01eb8fbb          	addw	x31,x23,x30
    2748:	015bebb3          	or	x23,x23,x21
    274c:	4d0dc413          	xori	x8,x27,1232
    2750:	01920233          	add	x4,x4,x25
    2754:	2d978b13          	addi	x22,x15,729
    2758:	00e3863b          	addw	x12,x7,x14
    275c:	40ee80bb          	subw	x1,x29,x14
    2760:	018e4d33          	xor	x26,x28,x24
    2764:	3a19031b          	addiw	x6,x18,929
    2768:	c2bf4493          	xori	x9,x30,-981
    276c:	017787b3          	add	x15,x15,x23
    2770:	e5de4a93          	xori	x21,x28,-419
    2774:	00957d33          	and	x26,x10,x9
    2778:	40da03b3          	sub	x7,x20,x13
    277c:	404481b3          	sub	x3,x9,x4
    2780:	00e4863b          	addw	x12,x9,x14
    2784:	00a888bb          	addw	x17,x17,x10
    2788:	d9bcf513          	andi	x10,x25,-613
    278c:	61fc0313          	addi	x6,x24,1567
    2790:	018f8cb3          	add	x25,x31,x24
    2794:	09344093          	xori	x1,x8,147
    2798:	40080c33          	sub	x24,x16,x0
    279c:	00c7f0b3          	and	x1,x15,x12
    27a0:	3c78801b          	addiw	x0,x17,967
    27a4:	55ab4993          	xori	x19,x22,1370
    27a8:	96157413          	andi	x8,x10,-1695
    27ac:	005fed33          	or	x26,x31,x5
    27b0:	016165b3          	or	x11,x2,x22
    27b4:	a105e613          	ori	x12,x11,-1520
    27b8:	003b7d33          	and	x26,x22,x3
    27bc:	013cc433          	xor	x8,x25,x19
    27c0:	b33ef693          	andi	x13,x29,-1229
    27c4:	01fd8fbb          	addw	x31,x27,x31
    27c8:	40dd84b3          	sub	x9,x27,x13
    27cc:	00847db3          	and	x27,x8,x8
    27d0:	01a1e933          	or	x18,x3,x26
    27d4:	00d7f2b3          	and	x5,x15,x13
    27d8:	00c64433          	xor	x8,x12,x12
    27dc:	d748f113          	andi	x2,x17,-652
    27e0:	00607833          	and	x16,x0,x6
    27e4:	166e869b          	addiw	x13,x29,358
    27e8:	41a6871b          	addiw	x14,x13,1050
    27ec:	008b7c33          	and	x24,x22,x8
    27f0:	df94051b          	addiw	x10,x8,-519
    27f4:	01db013b          	addw	x2,x22,x29
    27f8:	40ae0c3b          	subw	x24,x28,x10
    27fc:	00606033          	or	x0,x0,x6
    2800:	28ed0c13          	addi	x24,x26,654
    2804:	dea3091b          	addiw	x18,x6,-534
    2808:	019f8d33          	add	x26,x31,x25
    280c:	01b8013b          	addw	x2,x16,x27
    2810:	765cf913          	andi	x18,x25,1893
    2814:	5413ca93          	xori	x21,x7,1345
    2818:	0116c5b3          	xor	x11,x13,x17
    281c:	408a833b          	subw	x6,x21,x8
    2820:	8b9c4593          	xori	x11,x24,-1863
    2824:	010ac833          	xor	x16,x21,x16
    2828:	0084fc33          	and	x24,x9,x8
    282c:	015e0933          	add	x18,x28,x21
    2830:	ad000793          	li	x15,-1328
    2834:	006d42b3          	xor	x5,x26,x6
    2838:	01806c33          	or	x24,x0,x24
    283c:	00f0edb3          	or	x27,x1,x15
    2840:	ad0fce13          	xori	x28,x31,-1328
    2844:	016a4bb3          	xor	x23,x20,x22
    2848:	76814993          	xori	x19,x2,1896
    284c:	00d004bb          	addw	x9,x0,x13
    2850:	01116d33          	or	x26,x2,x17
    2854:	005fe3b3          	or	x7,x31,x5
    2858:	a4280693          	addi	x13,x16,-1470
    285c:	41ee09bb          	subw	x19,x28,x30
    2860:	d1567d93          	andi	x27,x12,-747
    2864:	a6677993          	andi	x19,x14,-1434
    2868:	ec49021b          	addiw	x4,x18,-316
    286c:	01e386bb          	addw	x13,x7,x30
    2870:	408006b3          	neg	x13,x8
    2874:	0104c033          	xor	x0,x9,x16
    2878:	19ccf113          	andi	x2,x25,412
    287c:	0119013b          	addw	x2,x18,x17
    2880:	00f7e633          	or	x12,x15,x15
    2884:	014d0fbb          	addw	x31,x26,x20
    2888:	85f4c793          	xori	x15,x9,-1953
    288c:	4161043b          	subw	x8,x2,x22
    2890:	551ef913          	andi	x18,x29,1361
    2894:	40fe8e33          	sub	x28,x29,x15
    2898:	cc65f193          	andi	x3,x11,-826
    289c:	01617c33          	and	x24,x2,x22
    28a0:	01c4fab3          	and	x21,x9,x28
    28a4:	70074293          	xori	x5,x14,1792
    28a8:	406507bb          	subw	x15,x10,x6
    28ac:	01b58cbb          	addw	x25,x11,x27
    28b0:	01a570b3          	and	x1,x10,x26
    28b4:	0153803b          	addw	x0,x7,x21
    28b8:	019eeb33          	or	x22,x29,x25
    28bc:	5b260093          	addi	x1,x12,1458
    28c0:	017d48b3          	xor	x17,x26,x23
    28c4:	df6a7e93          	andi	x29,x20,-522
    28c8:	0154e533          	or	x10,x9,x21
    28cc:	40c700bb          	subw	x1,x14,x12
    28d0:	5b287b93          	andi	x23,x16,1458
    28d4:	84e40893          	addi	x17,x8,-1970
    28d8:	402c033b          	subw	x6,x24,x2
    28dc:	f37b8713          	addi	x14,x23,-201
    28e0:	68dbce93          	xori	x29,x23,1677
    28e4:	7f598a93          	addi	x21,x19,2037
    28e8:	402888bb          	subw	x17,x17,x2
    28ec:	3e62ce13          	xori	x28,x5,998
    28f0:	878b6813          	ori	x16,x22,-1928
    28f4:	005fe433          	or	x8,x31,x5
    28f8:	409700b3          	sub	x1,x14,x9
    28fc:	00c70fbb          	addw	x31,x14,x12
    2900:	00094fb3          	xor	x31,x18,x0
    2904:	41cd8b3b          	subw	x22,x27,x28
    2908:	00a98633          	add	x12,x19,x10
    290c:	6a280f93          	addi	x31,x16,1698
    2910:	c37b879b          	addiw	x15,x23,-969
    2914:	009403b3          	add	x7,x8,x9
    2918:	dc6e099b          	addiw	x19,x28,-570
    291c:	79606513          	ori	x10,x0,1942
    2920:	8268e113          	ori	x2,x17,-2010
    2924:	4b82e313          	ori	x6,x5,1208
    2928:	012d7e33          	and	x28,x26,x18
    292c:	4f9f839b          	addiw	x7,x31,1273
    2930:	01dd6433          	or	x8,x26,x29
    2934:	8cb37f93          	andi	x31,x6,-1845
    2938:	4e984993          	xori	x19,x16,1257
    293c:	0041c633          	xor	x12,x3,x4
    2940:	00b5e8b3          	or	x17,x11,x11
    2944:	41a60b33          	sub	x22,x12,x26
    2948:	00696533          	or	x10,x18,x6
    294c:	790eca13          	xori	x20,x29,1936
    2950:	281cea13          	ori	x20,x25,641
    2954:	40c003bb          	negw	x7,x12
    2958:	8c127693          	andi	x13,x4,-1855
    295c:	01bc7bb3          	and	x23,x24,x27
    2960:	00458133          	add	x2,x11,x4
    2964:	586e0693          	addi	x13,x28,1414
    2968:	e4c16913          	ori	x18,x2,-436
    296c:	a2508613          	addi	x12,x1,-1499
    2970:	0120003b          	addw	x0,x0,x18
    2974:	b091e113          	ori	x2,x3,-1271
    2978:	00ca4db3          	xor	x27,x20,x12
    297c:	40d80233          	sub	x4,x16,x13
    2980:	406203bb          	subw	x7,x4,x6
    2984:	016dfd33          	and	x26,x27,x22
    2988:	01f989b3          	add	x19,x19,x31
    298c:	6c578593          	addi	x11,x15,1733
    2990:	0015c033          	xor	x0,x11,x1
    2994:	3cd17213          	andi	x4,x2,973
    2998:	000bf8b3          	and	x17,x23,x0
    299c:	00db88bb          	addw	x17,x23,x13
    29a0:	77a88f13          	addi	x30,x17,1914
    29a4:	f10fe293          	ori	x5,x31,-240
    29a8:	2fd98793          	addi	x15,x19,765
    29ac:	007986b3          	add	x13,x19,x7
    29b0:	01a0c033          	xor	x0,x1,x26
    29b4:	41320833          	sub	x16,x4,x19
    29b8:	e7094993          	xori	x19,x18,-400
    29bc:	0195803b          	addw	x0,x11,x25
    29c0:	0086c0b3          	xor	x1,x13,x8
    29c4:	159dfd93          	andi	x27,x27,345
    29c8:	41dd06b3          	sub	x13,x26,x29
    29cc:	01814833          	xor	x16,x2,x24
    29d0:	01a3e7b3          	or	x15,x7,x26
    29d4:	00bbef33          	or	x30,x23,x11
    29d8:	b8a4e493          	ori	x9,x9,-1142
    29dc:	0032f433          	and	x8,x5,x3
    29e0:	23310e1b          	addiw	x28,x2,563
    29e4:	413881b3          	sub	x3,x17,x19
    29e8:	01597033          	and	x0,x18,x21
    29ec:	f7b4e493          	ori	x9,x9,-133
    29f0:	411584b3          	sub	x9,x11,x17
    29f4:	69eb7b13          	andi	x22,x22,1694
    29f8:	017e05b3          	add	x11,x28,x23
    29fc:	00ff4233          	xor	x4,x30,x15
    2a00:	174ee793          	ori	x15,x29,372
    2a04:	efda0113          	addi	x2,x20,-259
    2a08:	00150db3          	add	x27,x10,x1
    2a0c:	b37bc093          	xori	x1,x23,-1225
    2a10:	a658001b          	addiw	x0,x16,-1435
    2a14:	01aacf33          	xor	x30,x21,x26
    2a18:	0040e533          	or	x10,x1,x4
    2a1c:	014260b3          	or	x1,x4,x20
    2a20:	06330d9b          	addiw	x27,x6,99
    2a24:	00d96333          	or	x6,x18,x13
    2a28:	5ad3879b          	addiw	x15,x7,1453
    2a2c:	40110c3b          	subw	x24,x2,x1
    2a30:	b0094793          	xori	x15,x18,-1280
    2a34:	009c8c33          	add	x24,x25,x9
    2a38:	00170ab3          	add	x21,x14,x1
    2a3c:	2be9e093          	ori	x1,x19,702
    2a40:	00c0ec33          	or	x24,x1,x12
    2a44:	00896133          	or	x2,x18,x8
    2a48:	f46dec13          	ori	x24,x27,-186
    2a4c:	40ff83bb          	subw	x7,x31,x15
    2a50:	0140f1b3          	and	x3,x1,x20
    2a54:	458f4e93          	xori	x29,x30,1112
    2a58:	e598819b          	addiw	x3,x17,-423
    2a5c:	f40e6d13          	ori	x26,x28,-192
    2a60:	41b7803b          	subw	x0,x15,x27
    2a64:	b78d7893          	andi	x17,x26,-1160
    2a68:	ad237f93          	andi	x31,x6,-1326
    2a6c:	ba16e093          	ori	x1,x13,-1119
    2a70:	40cd8333          	sub	x6,x27,x12
    2a74:	fa830b93          	addi	x23,x6,-88
    2a78:	41fd83b3          	sub	x7,x27,x31
    2a7c:	33eb7f93          	andi	x31,x22,830
    2a80:	01d80033          	add	x0,x16,x29
    2a84:	419482b3          	sub	x5,x9,x25
    2a88:	85d40e93          	addi	x29,x8,-1955
    2a8c:	009e6e33          	or	x28,x28,x9
    2a90:	a00de493          	ori	x9,x27,-1536
    2a94:	4146083b          	subw	x16,x12,x20
    2a98:	405f0d33          	sub	x26,x30,x5
    2a9c:	41d50cb3          	sub	x25,x10,x29
    2aa0:	001c00b3          	add	x1,x24,x1
    2aa4:	014482b3          	add	x5,x9,x20
    2aa8:	01cfc533          	xor	x10,x31,x28
    2aac:	01a687bb          	addw	x15,x13,x26
    2ab0:	95b1c713          	xori	x14,x3,-1701
    2ab4:	01aefab3          	and	x21,x29,x26
    2ab8:	1752c193          	xori	x3,x5,373
    2abc:	0043f233          	and	x4,x7,x4
    2ac0:	00fc86bb          	addw	x13,x25,x15
    2ac4:	40f40b33          	sub	x22,x8,x15
    2ac8:	d8e5ff13          	andi	x30,x11,-626
    2acc:	00d9c5b3          	xor	x11,x19,x13
    2ad0:	223dec93          	ori	x25,x27,547
    2ad4:	007e42b3          	xor	x5,x28,x7
    2ad8:	d0fa7b13          	andi	x22,x20,-753
    2adc:	41af0bb3          	sub	x23,x30,x26
    2ae0:	01a00633          	add	x12,x0,x26
    2ae4:	00fccbb3          	xor	x23,x25,x15
    2ae8:	4bb58a9b          	addiw	x21,x11,1211
    2aec:	9ca34793          	xori	x15,x6,-1590
    2af0:	01e2e833          	or	x16,x5,x30
    2af4:	9eca7b13          	andi	x22,x20,-1556
    2af8:	0029f733          	and	x14,x19,x2
    2afc:	4108873b          	subw	x14,x17,x16
    2b00:	21daf713          	andi	x14,x21,541
    2b04:	83006513          	ori	x10,x0,-2000
    2b08:	01c80cbb          	addw	x25,x16,x28
    2b0c:	911b6813          	ori	x16,x22,-1775
    2b10:	00cc68b3          	or	x17,x24,x12
    2b14:	454b6013          	ori	x0,x22,1108
    2b18:	00e10ab3          	add	x21,x2,x14
    2b1c:	01b57733          	and	x14,x10,x27
    2b20:	00ea82b3          	add	x5,x21,x14
    2b24:	003206b3          	add	x13,x4,x3
    2b28:	d8248693          	addi	x13,x9,-638
    2b2c:	57b8f413          	andi	x8,x17,1403
    2b30:	019d4c33          	xor	x24,x26,x25
    2b34:	0181ea33          	or	x20,x3,x24
    2b38:	005b70b3          	and	x1,x22,x5
    2b3c:	40058ab3          	sub	x21,x11,x0
    2b40:	018284bb          	addw	x9,x5,x24
    2b44:	204d4d13          	xori	x26,x26,516
    2b48:	00f17433          	and	x8,x2,x15
    2b4c:	400800b3          	sub	x1,x16,x0
    2b50:	5fb37e93          	andi	x29,x6,1531
    2b54:	40cc0fbb          	subw	x31,x24,x12
    2b58:	00e1e2b3          	or	x5,x3,x14
    2b5c:	41a80233          	sub	x4,x16,x26
    2b60:	409a09bb          	subw	x19,x20,x9
    2b64:	41ef013b          	subw	x2,x30,x30
    2b68:	7051059b          	addiw	x11,x2,1797
    2b6c:	00607a33          	and	x20,x0,x6
    2b70:	004c4c33          	xor	x24,x24,x4
    2b74:	00af0233          	add	x4,x30,x10
    2b78:	df53c213          	xori	x4,x7,-523
    2b7c:	00af80bb          	addw	x1,x31,x10
    2b80:	e3cd6913          	ori	x18,x26,-452
    2b84:	e2676b13          	ori	x22,x14,-474
    2b88:	01704fb3          	xor	x31,x0,x23
    2b8c:	004f7a33          	and	x20,x30,x4
    2b90:	7e2e6613          	ori	x12,x28,2018
    2b94:	01d389b3          	add	x19,x7,x29
    2b98:	400402bb          	subw	x5,x8,x0
    2b9c:	00a7ef33          	or	x30,x15,x10
    2ba0:	00d4cf33          	xor	x30,x9,x13
    2ba4:	40840ebb          	subw	x29,x8,x8
    2ba8:	008964b3          	or	x9,x18,x8
    2bac:	00a7c833          	xor	x16,x15,x10
    2bb0:	006b7b33          	and	x22,x22,x6
    2bb4:	005c08b3          	add	x17,x24,x5
    2bb8:	00de6a33          	or	x20,x28,x13
    2bbc:	01b17db3          	and	x27,x2,x27
    2bc0:	5c3c8893          	addi	x17,x25,1475
    2bc4:	376f8a9b          	addiw	x21,x31,886
    2bc8:	41988f33          	sub	x30,x17,x25
    2bcc:	0093823b          	addw	x4,x7,x9
    2bd0:	00898f3b          	addw	x30,x19,x8
    2bd4:	a683c313          	xori	x6,x7,-1432
    2bd8:	411d06bb          	subw	x13,x26,x17
    2bdc:	01507cb3          	and	x25,x0,x21
    2be0:	01957233          	and	x4,x10,x25
    2be4:	004306bb          	addw	x13,x6,x4
    2be8:	0051f7b3          	and	x15,x3,x5
    2bec:	4132803b          	subw	x0,x5,x19
    2bf0:	404c8dbb          	subw	x27,x25,x4
    2bf4:	00e3f0b3          	and	x1,x7,x14
    2bf8:	7d4a6193          	ori	x3,x20,2004
    2bfc:	007f71b3          	and	x3,x30,x7
    2c00:	01bdf233          	and	x4,x27,x27
    2c04:	40340933          	sub	x18,x8,x3
    2c08:	012cc5b3          	xor	x11,x25,x18
    2c0c:	418aee13          	ori	x28,x21,1048
    2c10:	01cf4b33          	xor	x22,x30,x28
    2c14:	406609b3          	sub	x19,x12,x6
    2c18:	b7906f93          	ori	x31,x0,-1159
    2c1c:	01256ab3          	or	x21,x10,x18
    2c20:	829f4e93          	xori	x29,x30,-2007
    2c24:	37b8831b          	addiw	x6,x17,891
    2c28:	6001871b          	addiw	x14,x3,1536
    2c2c:	ff6de193          	ori	x3,x27,-10
    2c30:	41808533          	sub	x10,x1,x24
    2c34:	405d8c3b          	subw	x24,x27,x5
    2c38:	015606bb          	addw	x13,x12,x21
    2c3c:	630e871b          	addiw	x14,x29,1584
    2c40:	40c90fb3          	sub	x31,x18,x12
    2c44:	001e80bb          	addw	x1,x29,x1
    2c48:	410bf313          	andi	x6,x23,1040
    2c4c:	00668133          	add	x2,x13,x6
    2c50:	e3387a93          	andi	x21,x16,-461
    2c54:	005ecfb3          	xor	x31,x29,x5
    2c58:	00fa003b          	addw	x0,x20,x15
    2c5c:	40ad01bb          	subw	x3,x26,x10
    2c60:	610c081b          	addiw	x16,x24,1552
    2c64:	12fd8d1b          	addiw	x26,x27,303
    2c68:	f83a069b          	addiw	x13,x20,-125
    2c6c:	0028f5b3          	and	x11,x17,x2
    2c70:	5925c613          	xori	x12,x11,1426
    2c74:	001e88bb          	addw	x17,x29,x1
    2c78:	40038ebb          	subw	x29,x7,x0
    2c7c:	017d7cb3          	and	x25,x26,x23
    2c80:	6db48d9b          	addiw	x27,x9,1755
    2c84:	01e4833b          	addw	x6,x9,x30
    2c88:	5d107413          	andi	x8,x0,1489
    2c8c:	011ce833          	or	x16,x25,x17
    2c90:	01136cb3          	or	x25,x6,x17
    2c94:	5e946a93          	ori	x21,x8,1513
    2c98:	2c258813          	addi	x16,x11,706
    2c9c:	85806093          	ori	x1,x0,-1960
    2ca0:	01d4c533          	xor	x10,x9,x29
    2ca4:	e99d6b93          	ori	x23,x26,-359
    2ca8:	ceddcb93          	xori	x23,x27,-787
    2cac:	d6ce4093          	xori	x1,x28,-660
    2cb0:	404c06bb          	subw	x13,x24,x4
    2cb4:	010607b3          	add	x15,x12,x16
    2cb8:	d6b9069b          	addiw	x13,x18,-661
    2cbc:	cd98ef13          	ori	x30,x17,-807
    2cc0:	0050e3b3          	or	x7,x1,x5
    2cc4:	1d8d871b          	addiw	x14,x27,472
    2cc8:	abe7e493          	ori	x9,x15,-1346
    2ccc:	603d0f93          	addi	x31,x26,1539
    2cd0:	01e48133          	add	x2,x9,x30
    2cd4:	cfae819b          	addiw	x3,x29,-774
    2cd8:	00aae6b3          	or	x13,x21,x10
    2cdc:	002e82bb          	addw	x5,x29,x2
    2ce0:	0aab4d93          	xori	x27,x22,170
    2ce4:	a0418b13          	addi	x22,x3,-1532
    2ce8:	d9064c93          	xori	x25,x12,-624
    2cec:	0ef96e13          	ori	x28,x18,239
    2cf0:	0097c8b3          	xor	x17,x15,x9
    2cf4:	410405b3          	sub	x11,x8,x16
    2cf8:	666f869b          	addiw	x13,x31,1638
    2cfc:	00820e33          	add	x28,x4,x8
    2d00:	00a7c033          	xor	x0,x15,x10
    2d04:	ea34fd13          	andi	x26,x9,-349
    2d08:	db144e93          	xori	x29,x8,-591
    2d0c:	00098f3b          	addw	x30,x19,x0
    2d10:	009a8eb3          	add	x29,x21,x9
    2d14:	008707bb          	addw	x15,x14,x8
    2d18:	849de093          	ori	x1,x27,-1975
    2d1c:	009e02bb          	addw	x5,x28,x9
    2d20:	40a70dbb          	subw	x27,x14,x10
    2d24:	0189f9b3          	and	x19,x19,x24
    2d28:	a64bf793          	andi	x15,x23,-1436
    2d2c:	01dd83bb          	addw	x7,x27,x29
    2d30:	00057f33          	and	x30,x10,x0
    2d34:	417b0f3b          	subw	x30,x22,x23
    2d38:	406704b3          	sub	x9,x14,x6
    2d3c:	0196e333          	or	x6,x13,x25
    2d40:	00178d3b          	addw	x26,x15,x1
    2d44:	00c16633          	or	x12,x2,x12
    2d48:	3fdcc193          	xori	x3,x25,1021
    2d4c:	ad417b93          	andi	x23,x2,-1324
    2d50:	d150fa13          	andi	x20,x1,-747
    2d54:	fb127c93          	andi	x25,x4,-79
    2d58:	016c72b3          	and	x5,x24,x22
    2d5c:	0039c8b3          	xor	x17,x19,x3
    2d60:	af016893          	ori	x17,x2,-1296
    2d64:	403b8abb          	subw	x21,x23,x3
    2d68:	93104f93          	xori	x31,x0,-1743
    2d6c:	69fb041b          	addiw	x8,x22,1695
    2d70:	0075053b          	addw	x10,x10,x7
    2d74:	004a8bb3          	add	x23,x21,x4
    2d78:	004379b3          	and	x19,x6,x4
    2d7c:	00ab7b33          	and	x22,x22,x10
    2d80:	5bccc593          	xori	x11,x25,1468
    2d84:	41208e33          	sub	x28,x1,x18
    2d88:	4ac48d13          	addi	x26,x9,1196
    2d8c:	00fa83bb          	addw	x7,x21,x15
    2d90:	27dc8413          	addi	x8,x25,637
    2d94:	009283b3          	add	x7,x5,x9
    2d98:	01ec6f33          	or	x30,x24,x30
    2d9c:	e4cc8913          	addi	x18,x25,-436
    2da0:	007be833          	or	x16,x23,x7
    2da4:	400b0ab3          	sub	x21,x22,x0
    2da8:	7d10c913          	xori	x18,x1,2001
    2dac:	01fcebb3          	or	x23,x25,x31
    2db0:	40be86bb          	subw	x13,x29,x11
    2db4:	6c998213          	addi	x4,x19,1737
    2db8:	01bf0abb          	addw	x21,x30,x27
    2dbc:	00c5ffb3          	and	x31,x11,x12
    2dc0:	50af0993          	addi	x19,x30,1290
    2dc4:	0527ee13          	ori	x28,x15,82
    2dc8:	40d40ab3          	sub	x21,x8,x13
    2dcc:	014d4933          	xor	x18,x26,x20
    2dd0:	f5198b13          	addi	x22,x19,-175
    2dd4:	01f66033          	or	x0,x12,x31
    2dd8:	38ce4f13          	xori	x30,x28,908
    2ddc:	54d57a13          	andi	x20,x10,1357
    2de0:	408c8a33          	sub	x20,x25,x8
    2de4:	531c0513          	addi	x10,x24,1329
    2de8:	459c8713          	addi	x14,x25,1113
    2dec:	41b40f3b          	subw	x30,x8,x27
    2df0:	00d3f333          	and	x6,x7,x13
    2df4:	d4c36393          	ori	x7,x6,-692
    2df8:	1b2d8893          	addi	x17,x27,434
    2dfc:	48d28013          	addi	x0,x5,1165
    2e00:	0149063b          	addw	x12,x18,x20
    2e04:	0135ec33          	or	x24,x11,x19
    2e08:	01e445b3          	xor	x11,x8,x30
    2e0c:	0027c4b3          	xor	x9,x15,x2
    2e10:	aa23889b          	addiw	x17,x7,-1374
    2e14:	410a00bb          	subw	x1,x20,x16
    2e18:	0136e0b3          	or	x1,x13,x19
    2e1c:	002cebb3          	or	x23,x25,x2
    2e20:	01fdf8b3          	and	x17,x27,x31
    2e24:	41b4073b          	subw	x14,x8,x27
    2e28:	fd140a9b          	addiw	x21,x8,-47
    2e2c:	01870cb3          	add	x25,x14,x24
    2e30:	a43a0b13          	addi	x22,x20,-1469
    2e34:	cc550c1b          	addiw	x24,x10,-827
    2e38:	0179ca33          	xor	x20,x19,x23
    2e3c:	614a7e13          	andi	x28,x20,1556
    2e40:	005682b3          	add	x5,x13,x5
    2e44:	a0bd7d93          	andi	x27,x26,-1525
    2e48:	405e01bb          	subw	x3,x28,x5
    2e4c:	93230613          	addi	x12,x6,-1742
    2e50:	40c288bb          	subw	x17,x5,x12
    2e54:	004065b3          	or	x11,x0,x4
    2e58:	00b76f33          	or	x30,x14,x11
    2e5c:	01efe833          	or	x16,x31,x30
    2e60:	00c763b3          	or	x7,x14,x12
    2e64:	1d2e4893          	xori	x17,x28,466
    2e68:	00e48b3b          	addw	x22,x9,x14
    2e6c:	406287bb          	subw	x15,x5,x6
    2e70:	ff19c513          	xori	x10,x19,-15
    2e74:	00eb893b          	addw	x18,x23,x14
    2e78:	0187fab3          	and	x21,x15,x24
    2e7c:	405403bb          	subw	x7,x8,x5
    2e80:	346b7413          	andi	x8,x22,838
    2e84:	41cd87b3          	sub	x15,x27,x28
    2e88:	00ce4433          	xor	x8,x28,x12
    2e8c:	0065c733          	xor	x14,x11,x6
    2e90:	01270ebb          	addw	x29,x14,x18
    2e94:	c3c8fd93          	andi	x27,x17,-964
    2e98:	510ccb93          	xori	x23,x25,1296
    2e9c:	41780e3b          	subw	x28,x16,x23
    2ea0:	7a154713          	xori	x14,x10,1953
    2ea4:	41cd87b3          	sub	x15,x27,x28
    2ea8:	ffa54c93          	xori	x25,x10,-6
    2eac:	01f6c633          	xor	x12,x13,x31
    2eb0:	eeab0b1b          	addiw	x22,x22,-278
    2eb4:	41a183b3          	sub	x7,x3,x26
    2eb8:	01f16eb3          	or	x29,x2,x31
    2ebc:	5f6d8f9b          	addiw	x31,x27,1526
    2ec0:	c91ef813          	andi	x16,x29,-879
    2ec4:	4111843b          	subw	x8,x3,x17
    2ec8:	00058bb3          	add	x23,x11,x0
    2ecc:	03256e13          	ori	x28,x10,50
    2ed0:	964ecf13          	xori	x30,x29,-1692
    2ed4:	058f4713          	xori	x14,x30,88
    2ed8:	6ec50d13          	addi	x26,x10,1772
    2edc:	008df8b3          	and	x17,x27,x8
    2ee0:	412f0233          	sub	x4,x30,x18
    2ee4:	414e0733          	sub	x14,x28,x20
    2ee8:	89950313          	addi	x6,x10,-1895
    2eec:	004f80b3          	add	x1,x31,x4
    2ef0:	40430bbb          	subw	x23,x6,x4
    2ef4:	41d7063b          	subw	x12,x14,x29
    2ef8:	58d27793          	andi	x15,x4,1421
    2efc:	906b7e13          	andi	x28,x22,-1786
    2f00:	01967fb3          	and	x31,x12,x25
    2f04:	417c0e3b          	subw	x28,x24,x23
    2f08:	dab1f693          	andi	x13,x3,-597
    2f0c:	1d23f493          	andi	x9,x7,466
    2f10:	01070933          	add	x18,x14,x16
    2f14:	00d87633          	and	x12,x16,x13
    2f18:	bccef313          	andi	x6,x29,-1076
    2f1c:	01f406b3          	add	x13,x8,x31
    2f20:	217f0d13          	addi	x26,x30,535
    2f24:	34754593          	xori	x11,x10,839
    2f28:	00ba8833          	add	x16,x21,x11
    2f2c:	41db863b          	subw	x12,x23,x29
    2f30:	011d86bb          	addw	x13,x27,x17
    2f34:	68566613          	ori	x12,x12,1669
    2f38:	40698eb3          	sub	x29,x19,x6
    2f3c:	003f88b3          	add	x17,x31,x3
    2f40:	881eed13          	ori	x26,x29,-1919
    2f44:	002464b3          	or	x9,x8,x2
    2f48:	01e265b3          	or	x11,x4,x30
    2f4c:	015f0c3b          	addw	x24,x30,x21
    2f50:	bea68e13          	addi	x28,x13,-1046
    2f54:	1fa7031b          	addiw	x6,x14,506
    2f58:	1e136413          	ori	x8,x6,481
    2f5c:	00420c3b          	addw	x24,x4,x4
    2f60:	01aa8fb3          	add	x31,x21,x26
    2f64:	01f67c33          	and	x24,x12,x31
    2f68:	62e7f293          	andi	x5,x15,1582
    2f6c:	f2b9059b          	addiw	x11,x18,-213
    2f70:	415b8833          	sub	x16,x23,x21
    2f74:	51de0e9b          	addiw	x29,x28,1309
    2f78:	52854393          	xori	x7,x10,1320
    2f7c:	cf5d6313          	ori	x6,x26,-779
    2f80:	6bb06613          	ori	x12,x0,1723
    2f84:	69c50d1b          	addiw	x26,x10,1692
    2f88:	006262b3          	or	x5,x4,x6
    2f8c:	41f900b3          	sub	x1,x18,x31
    2f90:	aac3089b          	addiw	x17,x6,-1364
    2f94:	41af0cbb          	subw	x25,x30,x26
    2f98:	136b7993          	andi	x19,x22,310
    2f9c:	942cf413          	andi	x8,x25,-1726
    2fa0:	cba3f113          	andi	x2,x7,-838
    2fa4:	0043043b          	addw	x8,x6,x4
    2fa8:	40ed00b3          	sub	x1,x26,x14
    2fac:	01a50333          	add	x6,x10,x26
    2fb0:	01f80833          	add	x16,x16,x31
    2fb4:	004701bb          	addw	x3,x14,x4
    2fb8:	017e0333          	add	x6,x28,x23
    2fbc:	012404b3          	add	x9,x8,x18
    2fc0:	019f0133          	add	x2,x30,x25
    2fc4:	57b1079b          	addiw	x15,x2,1403
    2fc8:	40100433          	neg	x8,x1
    2fcc:	01d648b3          	xor	x17,x12,x29
    2fd0:	018f6e93          	ori	x29,x30,24
    2fd4:	41fa89bb          	subw	x19,x21,x31
    2fd8:	27d5e913          	ori	x18,x11,637
    2fdc:	40050b3b          	subw	x22,x10,x0
    2fe0:	413404bb          	subw	x9,x8,x19
    2fe4:	00c7ca33          	xor	x20,x15,x12
    2fe8:	0b148a1b          	addiw	x20,x9,177
    2fec:	f7c37e13          	andi	x28,x6,-132
    2ff0:	1c9c6113          	ori	x2,x24,457
    2ff4:	8cb96793          	ori	x15,x18,-1845
    2ff8:	00350b33          	add	x22,x10,x3
    2ffc:	00877433          	and	x8,x14,x8
    3000:	3f02eb93          	ori	x23,x5,1008
    3004:	40bf8d33          	sub	x26,x31,x11
    3008:	5b77e093          	ori	x1,x15,1463
    300c:	b92f8013          	addi	x0,x31,-1134
    3010:	002b85bb          	addw	x11,x23,x2
    3014:	01f88fbb          	addw	x31,x17,x31
    3018:	0072ce33          	xor	x28,x5,x7
    301c:	57940e93          	addi	x29,x8,1401
    3020:	419d0d33          	sub	x26,x26,x25
    3024:	41b880bb          	subw	x1,x17,x27
    3028:	96fd4e93          	xori	x29,x26,-1681
    302c:	009dfe33          	and	x28,x27,x9
    3030:	41748733          	sub	x14,x9,x23
    3034:	0077ccb3          	xor	x25,x15,x7
    3038:	01538fb3          	add	x31,x7,x21
    303c:	00eee9b3          	or	x19,x29,x14
    3040:	0199fe33          	and	x28,x19,x25
    3044:	efc77f13          	andi	x30,x14,-260
    3048:	1569e993          	ori	x19,x19,342
    304c:	01df6d33          	or	x26,x30,x29
    3050:	ab607813          	andi	x16,x0,-1354
    3054:	0069fab3          	and	x21,x19,x6
    3058:	00be7cb3          	and	x25,x28,x11
    305c:	00984533          	xor	x10,x16,x9
    3060:	a4ec7213          	andi	x4,x24,-1458
    3064:	010f8eb3          	add	x29,x31,x16
    3068:	35df0613          	addi	x12,x30,861
    306c:	32c5069b          	addiw	x13,x10,812
    3070:	0194ed33          	or	x26,x9,x25
    3074:	63570c9b          	addiw	x25,x14,1589
    3078:	02384713          	xori	x14,x16,35
    307c:	01e444b3          	xor	x9,x8,x30
    3080:	01de6a33          	or	x20,x28,x29
    3084:	6c14081b          	addiw	x16,x8,1729
    3088:	01f463b3          	or	x7,x8,x31
    308c:	00200ebb          	addw	x29,x0,x2
    3090:	00664433          	xor	x8,x12,x6
    3094:	01334eb3          	xor	x29,x6,x19
    3098:	01acc2b3          	xor	x5,x25,x26
    309c:	01a884b3          	add	x9,x17,x26
    30a0:	aa97029b          	addiw	x5,x14,-1367
    30a4:	4295001b          	addiw	x0,x10,1065
    30a8:	7d63051b          	addiw	x10,x6,2006
    30ac:	40060b33          	sub	x22,x12,x0
    30b0:	29a78d93          	addi	x27,x15,666
    30b4:	007a01bb          	addw	x3,x20,x7
    30b8:	00027db3          	and	x27,x4,x0
    30bc:	32f0f413          	andi	x8,x1,815
    30c0:	5512ce93          	xori	x29,x5,1361
    30c4:	41f80d3b          	subw	x26,x16,x31
    30c8:	00ebee33          	or	x28,x23,x14
    30cc:	01a06d33          	or	x26,x0,x26
    30d0:	f5656613          	ori	x12,x10,-170
    30d4:	75b0829b          	addiw	x5,x1,1883
    30d8:	d951f093          	andi	x1,x3,-619
    30dc:	f11b0d93          	addi	x27,x22,-239
    30e0:	00244433          	xor	x8,x8,x2
    30e4:	01a2cb33          	xor	x22,x5,x26
    30e8:	00e87eb3          	and	x29,x16,x14
    30ec:	0127edb3          	or	x27,x15,x18
    30f0:	40608733          	sub	x14,x1,x6
    30f4:	417c7a13          	andi	x20,x24,1047
    30f8:	01ebe533          	or	x10,x23,x30
    30fc:	54ad079b          	addiw	x15,x26,1354
    3100:	01956f33          	or	x30,x10,x25
    3104:	f7b44513          	xori	x10,x8,-133
    3108:	40fb82b3          	sub	x5,x23,x15
    310c:	acdec193          	xori	x3,x29,-1331
    3110:	00628abb          	addw	x21,x5,x6
    3114:	e1330613          	addi	x12,x6,-493
    3118:	00728ab3          	add	x21,x5,x7
    311c:	00c3c4b3          	xor	x9,x7,x12
    3120:	0157ccb3          	xor	x25,x15,x21
    3124:	00d846b3          	xor	x13,x16,x13
    3128:	cf01881b          	addiw	x16,x3,-784
    312c:	e0f20f93          	addi	x31,x4,-497 # fffffffffffffe0f <_binary_lab1_test_bin_end+0xfffffffffffefe07>
    3130:	626ac113          	xori	x2,x21,1574
    3134:	82140613          	addi	x12,x8,-2015
    3138:	006386bb          	addw	x13,x7,x6
    313c:	01790d3b          	addw	x26,x18,x23
    3140:	009762b3          	or	x5,x14,x9
    3144:	00164cb3          	xor	x25,x12,x1
    3148:	01978a3b          	addw	x20,x15,x25
    314c:	414e073b          	subw	x14,x28,x20
    3150:	6ea1061b          	addiw	x12,x2,1770
    3154:	39817a13          	andi	x20,x2,920
    3158:	010d72b3          	and	x5,x26,x16
    315c:	bd697513          	andi	x10,x18,-1066
    3160:	3dde051b          	addiw	x10,x28,989
    3164:	01940abb          	addw	x21,x8,x25
    3168:	013d0833          	add	x16,x26,x19
    316c:	5cf5c993          	xori	x19,x11,1487
    3170:	008a0333          	add	x6,x20,x8
    3174:	01a647b3          	xor	x15,x12,x26
    3178:	01010933          	add	x18,x2,x16
    317c:	01a94333          	xor	x6,x18,x26
    3180:	92e78e13          	addi	x28,x15,-1746
    3184:	7f2a0893          	addi	x17,x20,2034
    3188:	3cc68613          	addi	x12,x13,972
    318c:	401a89bb          	subw	x19,x21,x1
    3190:	00638fb3          	add	x31,x7,x6
    3194:	005bef33          	or	x30,x23,x5
    3198:	adbd8493          	addi	x9,x27,-1317
    319c:	016908bb          	addw	x17,x18,x22
    31a0:	409e88b3          	sub	x17,x29,x9
    31a4:	01accb33          	xor	x22,x25,x26
    31a8:	d4be6113          	ori	x2,x28,-693
    31ac:	00674eb3          	xor	x29,x14,x6
    31b0:	01634033          	xor	x0,x6,x22
    31b4:	20488e1b          	addiw	x28,x17,516
    31b8:	076dfd93          	andi	x27,x27,118
    31bc:	014b01b3          	add	x3,x22,x20
    31c0:	00dffab3          	and	x21,x31,x13
    31c4:	e041f613          	andi	x12,x3,-508
    31c8:	8e174913          	xori	x18,x14,-1823
    31cc:	009a0b3b          	addw	x22,x20,x9
    31d0:	01e7fab3          	and	x21,x15,x30
    31d4:	00a87133          	and	x2,x16,x10
    31d8:	00bc06b3          	add	x13,x24,x11
    31dc:	0146edb3          	or	x27,x13,x20
    31e0:	40220db3          	sub	x27,x4,x2
    31e4:	40698d3b          	subw	x26,x19,x6
    31e8:	01730bb3          	add	x23,x6,x23
    31ec:	018cedb3          	or	x27,x25,x24
    31f0:	015a8f3b          	addw	x30,x21,x21
    31f4:	3a5c8793          	addi	x15,x25,933
    31f8:	59330a13          	addi	x20,x6,1427
    31fc:	3068009b          	addiw	x1,x16,774
    3200:	01688db3          	add	x27,x17,x22
    3204:	00dde7b3          	or	x15,x27,x13
    3208:	4121053b          	subw	x10,x2,x18
    320c:	411d89bb          	subw	x19,x27,x17
    3210:	005f7d33          	and	x26,x30,x5
    3214:	b3cf6293          	ori	x5,x30,-1220
    3218:	00a7083b          	addw	x16,x14,x10
    321c:	a5e66c93          	ori	x25,x12,-1442
    3220:	00db01b3          	add	x3,x22,x13
    3224:	000b073b          	addw	x14,x22,x0
    3228:	41788793          	addi	x15,x17,1047
    322c:	009a6533          	or	x10,x20,x9
    3230:	414c8c33          	sub	x24,x25,x20
    3234:	411a043b          	subw	x8,x20,x17
    3238:	003e4433          	xor	x8,x28,x3
    323c:	75fe8f13          	addi	x30,x29,1887
    3240:	00d107b3          	add	x15,x2,x13
    3244:	7f8c6a13          	ori	x20,x24,2040
    3248:	52450a93          	addi	x21,x10,1316
    324c:	40478033          	sub	x0,x15,x4
    3250:	01e4e733          	or	x14,x9,x30
    3254:	411d0cb3          	sub	x25,x26,x17
    3258:	014b4d33          	xor	x26,x22,x20
    325c:	012184b3          	add	x9,x3,x18
    3260:	01b68a33          	add	x20,x13,x27
    3264:	40910b3b          	subw	x22,x2,x9
    3268:	741d8413          	addi	x8,x27,1857
    326c:	40978d3b          	subw	x26,x15,x9
    3270:	56bd049b          	addiw	x9,x26,1387
    3274:	66c9cf13          	xori	x30,x19,1644
    3278:	01fecf33          	xor	x30,x29,x31
    327c:	016fc1b3          	xor	x3,x31,x22
    3280:	41f80b33          	sub	x22,x16,x31
    3284:	017eedb3          	or	x27,x29,x23
    3288:	0090cfb3          	xor	x31,x1,x9
    328c:	00a3cab3          	xor	x21,x7,x10
    3290:	402e0f3b          	subw	x30,x28,x2
    3294:	009789b3          	add	x19,x15,x9
    3298:	40608633          	sub	x12,x1,x6
    329c:	030c4d13          	xori	x26,x24,48
    32a0:	407085b3          	sub	x11,x1,x7
    32a4:	00b30c3b          	addw	x24,x6,x11
    32a8:	008be633          	or	x12,x23,x8
    32ac:	003a0e33          	add	x28,x20,x3
    32b0:	1ff2e193          	ori	x3,x5,511
    32b4:	01396033          	or	x0,x18,x19
    32b8:	8af94393          	xori	x7,x18,-1873
    32bc:	ef8af993          	andi	x19,x21,-264
    32c0:	181d4d93          	xori	x27,x26,385
    32c4:	41db063b          	subw	x12,x22,x29
    32c8:	095afc93          	andi	x25,x21,149
    32cc:	56954493          	xori	x9,x10,1385
    32d0:	56e36813          	ori	x16,x6,1390
    32d4:	01d68cbb          	addw	x25,x13,x29
    32d8:	00b1edb3          	or	x27,x3,x11
    32dc:	05390c93          	addi	x25,x18,83
    32e0:	41540e33          	sub	x28,x8,x21
    32e4:	401c0533          	sub	x10,x24,x1
    32e8:	d2eee613          	ori	x12,x29,-722
    32ec:	6d428f9b          	addiw	x31,x5,1748
    32f0:	015843b3          	xor	x7,x16,x21
    32f4:	49154793          	xori	x15,x10,1169
    32f8:	419406b3          	sub	x13,x8,x25
    32fc:	01fb4433          	xor	x8,x22,x31
    3300:	e7624a93          	xori	x21,x4,-394
    3304:	003683b3          	add	x7,x13,x3
    3308:	403986b3          	sub	x13,x19,x3
    330c:	49b8011b          	addiw	x2,x16,1179
    3310:	482fe813          	ori	x16,x31,1154
    3314:	1893ed13          	ori	x26,x7,393
    3318:	a3f98093          	addi	x1,x19,-1473
    331c:	001f4433          	xor	x8,x30,x1
    3320:	408c0e3b          	subw	x28,x24,x8
    3324:	dbdf8c93          	addi	x25,x31,-579
    3328:	41cc08bb          	subw	x17,x24,x28
    332c:	00896433          	or	x8,x18,x8
    3330:	f180039b          	addiw	x7,x0,-232
    3334:	0b0e7d93          	andi	x27,x28,176
    3338:	0175fe33          	and	x28,x11,x23
    333c:	019b03b3          	add	x7,x22,x25
    3340:	4129043b          	subw	x8,x18,x18
    3344:	fa04c793          	xori	x15,x9,-96
    3348:	00ef0ebb          	addw	x29,x30,x14
    334c:	a15cf293          	andi	x5,x25,-1515
    3350:	d8666b93          	ori	x23,x12,-634
    3354:	e93c881b          	addiw	x16,x25,-365
    3358:	db7d7c13          	andi	x24,x26,-585
    335c:	030f0313          	addi	x6,x30,48
    3360:	ae6f011b          	addiw	x2,x30,-1306
    3364:	007eef33          	or	x30,x29,x7
    3368:	2f8ae693          	ori	x13,x21,760
    336c:	1825089b          	addiw	x17,x10,386
    3370:	8dc7cd93          	xori	x27,x15,-1828
    3374:	30e70493          	addi	x9,x14,782
    3378:	01236533          	or	x10,x6,x18
    337c:	40ea8233          	sub	x4,x21,x14
    3380:	6b284993          	xori	x19,x16,1714
    3384:	77608013          	addi	x0,x1,1910
    3388:	005e8f33          	add	x30,x29,x5
    338c:	009773b3          	and	x7,x14,x9
    3390:	40938133          	sub	x2,x7,x9
    3394:	5f126893          	ori	x17,x4,1521
    3398:	00000d3b          	addw	x26,x0,x0
    339c:	01ea02b3          	add	x5,x20,x30
    33a0:	ea7fe793          	ori	x15,x31,-345
    33a4:	418a0733          	sub	x14,x20,x24
    33a8:	406b06b3          	sub	x13,x22,x6
    33ac:	d9177093          	andi	x1,x14,-623
    33b0:	f94ae693          	ori	x13,x21,-108
    33b4:	922d4d13          	xori	x26,x26,-1758
    33b8:	0139873b          	addw	x14,x19,x19
    33bc:	335e4613          	xori	x12,x28,821
    33c0:	009d8bbb          	addw	x23,x27,x9
    33c4:	40388a33          	sub	x20,x17,x3
    33c8:	df394a93          	xori	x21,x18,-525
    33cc:	01e1c333          	xor	x6,x3,x30
    33d0:	2a8c0693          	addi	x13,x24,680
    33d4:	00996c33          	or	x24,x18,x9
    33d8:	41e58b33          	sub	x22,x11,x30
    33dc:	0061efb3          	or	x31,x3,x6
    33e0:	01eb873b          	addw	x14,x23,x30
    33e4:	01a6cf33          	xor	x30,x13,x26
    33e8:	0133c8b3          	xor	x17,x7,x19
    33ec:	012a0e3b          	addw	x28,x20,x18
    33f0:	6a1a801b          	addiw	x0,x21,1697
    33f4:	003e65b3          	or	x11,x28,x3
    33f8:	004082bb          	addw	x5,x1,x4
    33fc:	7ef3c113          	xori	x2,x7,2031
    3400:	79d76893          	ori	x17,x14,1949
    3404:	01ace3b3          	or	x7,x25,x26
    3408:	21770f13          	addi	x30,x14,535
    340c:	37d50c1b          	addiw	x24,x10,893
    3410:	01af81b3          	add	x3,x31,x26
    3414:	00608d3b          	addw	x26,x1,x6
    3418:	46b57513          	andi	x10,x10,1131
    341c:	67e1ee93          	ori	x29,x3,1662
    3420:	a926079b          	addiw	x15,x12,-1390
    3424:	40c600bb          	subw	x1,x12,x12
    3428:	01affb33          	and	x22,x31,x26
    342c:	01b5863b          	addw	x12,x11,x27
    3430:	01a86833          	or	x16,x16,x26
    3434:	00fa6333          	or	x6,x20,x15
    3438:	64ae7513          	andi	x10,x28,1610
    343c:	5a85891b          	addiw	x18,x11,1448
    3440:	8931f893          	andi	x17,x3,-1901
    3444:	6cf70393          	addi	x7,x14,1743
    3448:	00b3f3b3          	and	x7,x7,x11
    344c:	7df74713          	xori	x14,x14,2015
    3450:	0045efb3          	or	x31,x11,x4
    3454:	415f03b3          	sub	x7,x30,x21
    3458:	01dce2b3          	or	x5,x25,x29
    345c:	00910733          	add	x14,x2,x9
    3460:	000e81bb          	addw	x3,x29,x0
    3464:	01b77ab3          	and	x21,x14,x27
    3468:	017ce3b3          	or	x7,x25,x23
    346c:	1569f813          	andi	x16,x19,342
    3470:	0137ffb3          	and	x31,x15,x19
    3474:	0f6a4993          	xori	x19,x20,246
    3478:	00e58dbb          	addw	x27,x11,x14
    347c:	00344ab3          	xor	x21,x8,x3
    3480:	01e17c33          	and	x24,x2,x30
    3484:	01266eb3          	or	x29,x12,x18
    3488:	dd2a8313          	addi	x6,x21,-558
    348c:	2a460b13          	addi	x22,x12,676
    3490:	44fc8193          	addi	x3,x25,1103
    3494:	41048cbb          	subw	x25,x9,x16
    3498:	0044ea33          	or	x20,x9,x4
    349c:	2c5d8693          	addi	x13,x27,709
    34a0:	8a197b13          	andi	x22,x18,-1887
    34a4:	9d4b8393          	addi	x7,x23,-1580
    34a8:	00f64e33          	xor	x28,x12,x15
    34ac:	22878d1b          	addiw	x26,x15,552
    34b0:	00bfe333          	or	x6,x31,x11
    34b4:	86a0f713          	andi	x14,x1,-1942
    34b8:	9257fb93          	andi	x23,x15,-1755
    34bc:	982bcb93          	xori	x23,x23,-1662
    34c0:	00d0063b          	addw	x12,x0,x13
    34c4:	414c8333          	sub	x6,x25,x20
    34c8:	635d4013          	xori	x0,x26,1589
    34cc:	00637db3          	and	x27,x6,x6
    34d0:	007602b3          	add	x5,x12,x7
    34d4:	001583b3          	add	x7,x11,x1
    34d8:	00d8f233          	and	x4,x17,x13
    34dc:	00ac6133          	or	x2,x24,x10
    34e0:	74d0cf13          	xori	x30,x1,1869
    34e4:	b34b0893          	addi	x17,x22,-1228
    34e8:	0153c7b3          	xor	x15,x7,x21
    34ec:	001c8cbb          	addw	x25,x25,x1
    34f0:	415c0333          	sub	x6,x24,x21
    34f4:	016bed33          	or	x26,x23,x22
    34f8:	cfed7c93          	andi	x25,x26,-770
    34fc:	8f3d8b93          	addi	x23,x27,-1805
    3500:	b3956f93          	ori	x31,x10,-1223
    3504:	01c37d33          	and	x26,x6,x28
    3508:	89b66a93          	ori	x21,x12,-1893
    350c:	40a40abb          	subw	x21,x8,x10
    3510:	0080cb33          	xor	x22,x1,x8
    3514:	007cec33          	or	x24,x25,x7
    3518:	40380ebb          	subw	x29,x16,x3
    351c:	41e58533          	sub	x10,x11,x30
    3520:	1aba6613          	ori	x12,x20,427
    3524:	01b78733          	add	x14,x15,x27
    3528:	4f844813          	xori	x16,x8,1272
    352c:	d76d6393          	ori	x7,x26,-650
    3530:	004d6233          	or	x4,x26,x4
    3534:	2f3fe093          	ori	x1,x31,755
    3538:	54ce8d9b          	addiw	x27,x29,1356
    353c:	322a4613          	xori	x12,x20,802
    3540:	33e28a9b          	addiw	x21,x5,830
    3544:	07fc7f93          	andi	x31,x24,127
    3548:	402e00b3          	sub	x1,x28,x2
    354c:	00116333          	or	x6,x2,x1
    3550:	f758e593          	ori	x11,x17,-139
    3554:	010f7f33          	and	x30,x30,x16
    3558:	49e98d9b          	addiw	x27,x19,1182
    355c:	00adcf33          	xor	x30,x27,x10
    3560:	40ee0f33          	sub	x30,x28,x14
    3564:	f2296713          	ori	x14,x18,-222
    3568:	012a4733          	xor	x14,x20,x18
    356c:	015b6533          	or	x10,x22,x21
    3570:	bb776e13          	ori	x28,x14,-1097
    3574:	0982001b          	addiw	x0,x4,152 # 98 <_binary_lab1_test_bin_start+0x98>
    3578:	54e30d1b          	addiw	x26,x6,1358
    357c:	015d8a33          	add	x20,x27,x21
    3580:	0127043b          	addw	x8,x14,x18
    3584:	419c01bb          	subw	x3,x24,x25
    3588:	43b34e93          	xori	x29,x6,1083
    358c:	e8cd029b          	addiw	x5,x26,-372
    3590:	5000001b          	addiw	x0,x0,1280
    3594:	405409bb          	subw	x19,x8,x5
    3598:	0049c333          	xor	x6,x19,x4
    359c:	013b05bb          	addw	x11,x22,x19
    35a0:	00a70fb3          	add	x31,x14,x10
    35a4:	00624fb3          	xor	x31,x4,x6
    35a8:	8b597213          	andi	x4,x18,-1867
    35ac:	002eea33          	or	x20,x29,x2
    35b0:	416e8333          	sub	x6,x29,x22
    35b4:	0ec64113          	xori	x2,x12,236
    35b8:	412b8733          	sub	x14,x23,x18
    35bc:	40418db3          	sub	x27,x3,x4
    35c0:	00830cbb          	addw	x25,x6,x8
    35c4:	4028853b          	subw	x10,x17,x2
    35c8:	00bdfbb3          	and	x23,x27,x11
    35cc:	405e8f33          	sub	x30,x29,x5
    35d0:	01ec4d33          	xor	x26,x24,x30
    35d4:	91014a93          	xori	x21,x2,-1776
    35d8:	017a8cb3          	add	x25,x21,x23
    35dc:	ea567413          	andi	x8,x12,-347
    35e0:	0077c933          	xor	x18,x15,x7
    35e4:	00a280b3          	add	x1,x5,x10
    35e8:	e5910513          	addi	x10,x2,-423
    35ec:	01c2c2b3          	xor	x5,x5,x28
    35f0:	95cc091b          	addiw	x18,x24,-1700
    35f4:	2f5bca93          	xori	x21,x23,757
    35f8:	40ca0ebb          	subw	x29,x20,x12
    35fc:	40848833          	sub	x16,x9,x8
    3600:	b075e793          	ori	x15,x11,-1273
    3604:	677c6513          	ori	x10,x24,1655
    3608:	8d108a93          	addi	x21,x1,-1839
    360c:	92a8e093          	ori	x1,x17,-1750
    3610:	40b40fbb          	subw	x31,x8,x11
    3614:	407601bb          	subw	x3,x12,x7
    3618:	016208b3          	add	x17,x4,x22
    361c:	7cc18a9b          	addiw	x21,x3,1996
    3620:	0077e1b3          	or	x3,x15,x7
    3624:	012367b3          	or	x15,x6,x18
    3628:	012f6833          	or	x16,x30,x18
    362c:	004c4a33          	xor	x20,x24,x4
    3630:	2ca30593          	addi	x11,x6,714
    3634:	b9af7513          	andi	x10,x30,-1126
    3638:	ef384e13          	xori	x28,x16,-269
    363c:	012d0cb3          	add	x25,x26,x18
    3640:	017fea33          	or	x20,x31,x23
    3644:	00237233          	and	x4,x6,x2
    3648:	0085f633          	and	x12,x11,x8
    364c:	e0f48113          	addi	x2,x9,-497
    3650:	002c7a33          	and	x20,x24,x2
    3654:	fce90713          	addi	x14,x18,-50
    3658:	41f20433          	sub	x8,x4,x31
    365c:	00e4e5b3          	or	x11,x9,x14
    3660:	41df06b3          	sub	x13,x30,x29
    3664:	4064803b          	subw	x0,x9,x6
    3668:	6a638693          	addi	x13,x7,1702
    366c:	00384b33          	xor	x22,x16,x3
    3670:	cccd0c9b          	addiw	x25,x26,-820
    3674:	012d80bb          	addw	x1,x27,x18
    3678:	0095843b          	addw	x8,x11,x9
    367c:	015f64b3          	or	x9,x30,x21
    3680:	72898a9b          	addiw	x21,x19,1832
    3684:	00418cb3          	add	x25,x3,x4
    3688:	05e6ca13          	xori	x20,x13,94
    368c:	01cfcdb3          	xor	x27,x31,x28
    3690:	01507433          	and	x8,x0,x21
    3694:	00ebf433          	and	x8,x23,x14
    3698:	05394a13          	xori	x20,x18,83
    369c:	bc500b9b          	addiw	x23,x0,-1083
    36a0:	1b640e1b          	addiw	x28,x8,438
    36a4:	21a3089b          	addiw	x17,x6,538
    36a8:	180a6193          	ori	x3,x20,384
    36ac:	67630f93          	addi	x31,x6,1654
    36b0:	537c069b          	addiw	x13,x24,1335
    36b4:	b1c90a93          	addi	x21,x18,-1252
    36b8:	00d6c533          	xor	x10,x13,x13
    36bc:	8aa8c893          	xori	x17,x17,-1878
    36c0:	0179cdb3          	xor	x27,x19,x23
    36c4:	41eb0ebb          	subw	x29,x22,x30
    36c8:	0079c5b3          	xor	x11,x19,x7
    36cc:	0194c233          	xor	x4,x9,x25
    36d0:	436d8a1b          	addiw	x20,x27,1078
    36d4:	41f904b3          	sub	x9,x18,x31
    36d8:	01aa0d33          	add	x26,x20,x26
    36dc:	017f7e33          	and	x28,x30,x23
    36e0:	f6ee8493          	addi	x9,x29,-146
    36e4:	014cf9b3          	and	x19,x25,x20
    36e8:	f5097993          	andi	x19,x18,-176
    36ec:	62710793          	addi	x15,x2,1575
    36f0:	cbb4059b          	addiw	x11,x8,-837
    36f4:	001e43b3          	xor	x7,x28,x1
    36f8:	d0ea4513          	xori	x10,x20,-754
    36fc:	004764b3          	or	x9,x14,x4
    3700:	41678733          	sub	x14,x15,x22
    3704:	4049853b          	subw	x10,x19,x4
    3708:	403d07bb          	subw	x15,x26,x3
    370c:	008af033          	and	x0,x21,x8
    3710:	41eb86bb          	subw	x13,x23,x30
    3714:	519b0813          	addi	x16,x22,1305
    3718:	2477e593          	ori	x11,x15,583
    371c:	68ecce13          	xori	x28,x25,1678
    3720:	410f0b33          	sub	x22,x30,x16
    3724:	00b86b33          	or	x22,x16,x11
    3728:	5ea16393          	ori	x7,x2,1514
    372c:	85114093          	xori	x1,x2,-1967
    3730:	01cb033b          	addw	x6,x22,x28
    3734:	01717eb3          	and	x29,x2,x23
    3738:	670cf793          	andi	x15,x25,1648
    373c:	ef867713          	andi	x14,x12,-264
    3740:	7a4de493          	ori	x9,x27,1956
    3744:	00396ab3          	or	x21,x18,x3
    3748:	01294fb3          	xor	x31,x18,x18
    374c:	f3497513          	andi	x10,x18,-204
    3750:	fdc8f513          	andi	x10,x17,-36
    3754:	46180c93          	addi	x25,x16,1121
    3758:	e825cd93          	xori	x27,x11,-382
    375c:	404f0a3b          	subw	x20,x30,x4
    3760:	00130c33          	add	x24,x6,x1
    3764:	01ed49b3          	xor	x19,x26,x30
    3768:	0f9e8a1b          	addiw	x20,x29,249
    376c:	01297f33          	and	x30,x18,x18
    3770:	044dc913          	xori	x18,x27,68
    3774:	00aae333          	or	x6,x21,x10
    3778:	4c588c1b          	addiw	x24,x17,1221
    377c:	cc967893          	andi	x17,x12,-823
    3780:	00a57eb3          	and	x29,x10,x10
    3784:	093ac613          	xori	x12,x21,147
    3788:	00527133          	and	x2,x4,x5
    378c:	3cab7b93          	andi	x23,x22,970
    3790:	f7eb0813          	addi	x16,x22,-130
    3794:	01ac4eb3          	xor	x29,x24,x26
    3798:	174c6c93          	ori	x25,x24,372
    379c:	01c584bb          	addw	x9,x11,x28
    37a0:	40dd8633          	sub	x12,x27,x13
    37a4:	56c6c513          	xori	x10,x13,1388
    37a8:	00c1e433          	or	x8,x3,x12
    37ac:	00b7823b          	addw	x4,x15,x11
    37b0:	667c7f93          	andi	x31,x24,1639
    37b4:	017a0933          	add	x18,x20,x23
    37b8:	408b8ebb          	subw	x29,x23,x8
    37bc:	273f4093          	xori	x1,x30,627
    37c0:	ac12f993          	andi	x19,x5,-1343
    37c4:	6154099b          	addiw	x19,x8,1557
    37c8:	3a02f613          	andi	x12,x5,928
    37cc:	01ddc6b3          	xor	x13,x27,x29
    37d0:	5a37e413          	ori	x8,x15,1443
    37d4:	009cf2b3          	and	x5,x25,x9
    37d8:	29d4c613          	xori	x12,x9,669
    37dc:	f0078e1b          	addiw	x28,x15,-256
    37e0:	4168883b          	subw	x16,x17,x22
    37e4:	01f20333          	add	x6,x4,x31
    37e8:	801cc593          	xori	x11,x25,-2047
    37ec:	82fa009b          	addiw	x1,x20,-2001
    37f0:	41660c3b          	subw	x24,x12,x22
    37f4:	ab70f713          	andi	x14,x1,-1353
    37f8:	406108bb          	subw	x17,x2,x6
    37fc:	01a06f33          	or	x30,x0,x26
    3800:	0086e133          	or	x2,x13,x8
    3804:	01250bb3          	add	x23,x10,x18
    3808:	edc58293          	addi	x5,x11,-292
    380c:	0f1e819b          	addiw	x3,x29,241
    3810:	d7d38f1b          	addiw	x30,x7,-643
    3814:	42436613          	ori	x12,x6,1060
    3818:	004b0733          	add	x14,x22,x4
    381c:	000f81b3          	add	x3,x31,x0
    3820:	446c8013          	addi	x0,x25,1094
    3824:	01328a33          	add	x20,x5,x19
    3828:	0bd66b93          	ori	x23,x12,189
    382c:	41b10f33          	sub	x30,x2,x27
    3830:	ab138f93          	addi	x31,x7,-1359
    3834:	1a9c4113          	xori	x2,x24,425
    3838:	002e70b3          	and	x1,x28,x2
    383c:	014eefb3          	or	x31,x29,x20
    3840:	01dc0ab3          	add	x21,x24,x29
    3844:	01578d3b          	addw	x26,x15,x21
    3848:	40c60b33          	sub	x22,x12,x12
    384c:	01a24e33          	xor	x28,x4,x26
    3850:	418a833b          	subw	x6,x21,x24
    3854:	00988b3b          	addw	x22,x17,x9
    3858:	015d8cbb          	addw	x25,x27,x21
    385c:	00b1fe33          	and	x28,x3,x11
    3860:	00897433          	and	x8,x18,x8
    3864:	d7d20a1b          	addiw	x20,x4,-643 # fffffffffffffd7d <_binary_lab1_test_bin_end+0xfffffffffffefd75>
    3868:	861b6e13          	ori	x28,x22,-1951
    386c:	01404cb3          	xor	x25,x0,x20
    3870:	98d6e893          	ori	x17,x13,-1651
    3874:	405d0e33          	sub	x28,x26,x5
    3878:	3080c793          	xori	x15,x1,776
    387c:	177f8193          	addi	x3,x31,375
    3880:	01678cbb          	addw	x25,x15,x22
    3884:	00a804b3          	add	x9,x16,x10
    3888:	002b0933          	add	x18,x22,x2
    388c:	407ef213          	andi	x4,x29,1031
    3890:	00200a33          	add	x20,x0,x2
    3894:	8f457c13          	andi	x24,x10,-1804
    3898:	00d7e233          	or	x4,x15,x13
    389c:	36130993          	addi	x19,x6,865
    38a0:	01dd8e33          	add	x28,x27,x29
    38a4:	7a32f093          	andi	x1,x5,1955
    38a8:	00e97233          	and	x4,x18,x14
    38ac:	01970e33          	add	x28,x14,x25
    38b0:	0086ef33          	or	x30,x13,x8
    38b4:	b3a44213          	xori	x4,x8,-1222
    38b8:	004dfe33          	and	x28,x27,x4
    38bc:	41e10c3b          	subw	x24,x2,x30
    38c0:	df6e8f13          	addi	x30,x29,-522
    38c4:	001a80b3          	add	x1,x21,x1
    38c8:	1e2c8f13          	addi	x30,x25,482
    38cc:	0090053b          	addw	x10,x0,x9
    38d0:	00d77933          	and	x18,x14,x13
    38d4:	0e0cee13          	ori	x28,x25,224
    38d8:	405701bb          	subw	x3,x14,x5
    38dc:	e8666d93          	ori	x27,x12,-378
    38e0:	000c61b3          	or	x3,x24,x0
    38e4:	41040ebb          	subw	x29,x8,x16
    38e8:	017845b3          	xor	x11,x16,x23
    38ec:	695cc213          	xori	x4,x25,1685
    38f0:	0153f8b3          	and	x17,x7,x21
    38f4:	005907b3          	add	x15,x18,x5
    38f8:	de5a4213          	xori	x4,x20,-539
    38fc:	0079833b          	addw	x6,x19,x7
    3900:	412d80bb          	subw	x1,x27,x18
    3904:	00e87eb3          	and	x29,x16,x14
    3908:	dea57e93          	andi	x29,x10,-534
    390c:	013e0a3b          	addw	x20,x28,x19
    3910:	005c8d33          	add	x26,x25,x5
    3914:	2ced6c13          	ori	x24,x26,718
    3918:	a9070d93          	addi	x27,x14,-1392
    391c:	00d8f433          	and	x8,x17,x13
    3920:	01ba83bb          	addw	x7,x21,x27
    3924:	dbc74793          	xori	x15,x14,-580
    3928:	3e67c293          	xori	x5,x15,998
    392c:	01ba8ab3          	add	x21,x21,x27
    3930:	9f1ec493          	xori	x9,x29,-1551
    3934:	8b2df513          	andi	x10,x27,-1870
    3938:	01cb70b3          	and	x1,x22,x28
    393c:	359fe293          	ori	x5,x31,857
    3940:	185bf313          	andi	x6,x23,389
    3944:	00c403b3          	add	x7,x8,x12
    3948:	0016033b          	addw	x6,x12,x1
    394c:	00b400b3          	add	x1,x8,x11
    3950:	95d7e893          	ori	x17,x15,-1699
    3954:	01768733          	add	x14,x13,x23
    3958:	523d6093          	ori	x1,x26,1315
    395c:	40f2033b          	subw	x6,x4,x15
    3960:	e2dd0f93          	addi	x31,x26,-467
    3964:	00fe8833          	add	x16,x29,x15
    3968:	0c278913          	addi	x18,x15,194
    396c:	013e8833          	add	x16,x29,x19
    3970:	40ee0c33          	sub	x24,x28,x14
    3974:	9243069b          	addiw	x13,x6,-1756
    3978:	c4fdc893          	xori	x17,x27,-945
    397c:	01f6cbb3          	xor	x23,x13,x31
    3980:	407481bb          	subw	x3,x9,x7
    3984:	2621081b          	addiw	x16,x2,610
    3988:	0360c313          	xori	x6,x1,54
    398c:	003b61b3          	or	x3,x22,x3
    3990:	84360093          	addi	x1,x12,-1981
    3994:	06700213          	li	x4,103
    3998:	74a8e893          	ori	x17,x17,1866
    399c:	005d8893          	addi	x17,x27,5
    39a0:	001003bb          	addw	x7,x0,x1
    39a4:	63e28713          	addi	x14,x5,1598
    39a8:	00774c33          	xor	x24,x14,x7
    39ac:	b9d6099b          	addiw	x19,x12,-1123
    39b0:	00d0e433          	or	x8,x1,x13
    39b4:	00770d33          	add	x26,x14,x7
    39b8:	1eb2ce13          	xori	x28,x5,491
    39bc:	d8070813          	addi	x16,x14,-640
    39c0:	418080b3          	sub	x1,x1,x24
    39c4:	007b023b          	addw	x4,x22,x7
    39c8:	00607e33          	and	x28,x0,x6
    39cc:	40e409b3          	sub	x19,x8,x14
    39d0:	290c899b          	addiw	x19,x25,656
    39d4:	cb188513          	addi	x10,x17,-847
    39d8:	410b85bb          	subw	x11,x23,x16
    39dc:	00566f33          	or	x30,x12,x5
    39e0:	010887b3          	add	x15,x17,x16
    39e4:	40d78e33          	sub	x28,x15,x13
    39e8:	01f9ffb3          	and	x31,x19,x31
    39ec:	efdff213          	andi	x4,x31,-259
    39f0:	009548b3          	xor	x17,x10,x9
    39f4:	0193fd33          	and	x26,x7,x25
    39f8:	0178803b          	addw	x0,x17,x23
    39fc:	003c8ab3          	add	x21,x25,x3
    3a00:	0178fbb3          	and	x23,x17,x23
    3a04:	203dc193          	xori	x3,x27,515
    3a08:	41228233          	sub	x4,x5,x18
    3a0c:	e1644f93          	xori	x31,x8,-490
    3a10:	00c34733          	xor	x14,x6,x12
    3a14:	41620ab3          	sub	x21,x4,x22
    3a18:	aeb9cc13          	xori	x24,x19,-1301
    3a1c:	00117f33          	and	x30,x2,x1
    3a20:	41de873b          	subw	x14,x29,x29
    3a24:	40298233          	sub	x4,x19,x2
    3a28:	41400d33          	neg	x26,x20
    3a2c:	cf83c493          	xori	x9,x7,-776
    3a30:	83ca8a1b          	addiw	x20,x21,-1988
    3a34:	404d09bb          	subw	x19,x26,x4
    3a38:	5b3b8893          	addi	x17,x23,1459
    3a3c:	01e46333          	or	x6,x8,x30
    3a40:	00bafeb3          	and	x29,x21,x11
    3a44:	1a7ee413          	ori	x8,x29,423
    3a48:	84128d13          	addi	x26,x5,-1983
    3a4c:	413383bb          	subw	x7,x7,x19
    3a50:	dd540513          	addi	x10,x8,-555
    3a54:	c3dd0c1b          	addiw	x24,x26,-963
    3a58:	eb55099b          	addiw	x19,x10,-331
    3a5c:	007efb33          	and	x22,x29,x7
    3a60:	9c67019b          	addiw	x3,x14,-1594
    3a64:	b17b7993          	andi	x19,x22,-1257
    3a68:	b30be913          	ori	x18,x23,-1232
    3a6c:	24d5ec13          	ori	x24,x11,589
    3a70:	40980dbb          	subw	x27,x16,x9
    3a74:	018f8cb3          	add	x25,x31,x24
    3a78:	29d58c13          	addi	x24,x11,669
    3a7c:	032c6993          	ori	x19,x24,50
    3a80:	85f8e613          	ori	x12,x17,-1953
    3a84:	00590abb          	addw	x21,x18,x5
    3a88:	14bf7313          	andi	x6,x30,331
    3a8c:	0002e033          	or	x0,x5,x0
    3a90:	739c6093          	ori	x1,x24,1849
    3a94:	46e58093          	addi	x1,x11,1134
    3a98:	e9c94c93          	xori	x25,x18,-356
    3a9c:	00f2893b          	addw	x18,x5,x15
    3aa0:	403e89b3          	sub	x19,x29,x3
    3aa4:	41070233          	sub	x4,x14,x16
    3aa8:	38f0e993          	ori	x19,x1,911
    3aac:	bb9dfb13          	andi	x22,x27,-1095
    3ab0:	400284bb          	subw	x9,x5,x0
    3ab4:	64f38c93          	addi	x25,x7,1615
    3ab8:	001a0dbb          	addw	x27,x20,x1
    3abc:	0d306793          	ori	x15,x0,211
    3ac0:	8d8d001b          	addiw	x0,x26,-1832
    3ac4:	0062f1b3          	and	x3,x5,x6
    3ac8:	0142f8b3          	and	x17,x5,x20
    3acc:	8a35ff93          	andi	x31,x11,-1885
    3ad0:	cf32ee13          	ori	x28,x5,-781
    3ad4:	402d0f3b          	subw	x30,x26,x2
    3ad8:	413b053b          	subw	x10,x22,x19
    3adc:	01e1ec33          	or	x24,x3,x30
    3ae0:	013b8bb3          	add	x23,x23,x19
    3ae4:	289dc013          	xori	x0,x27,649
    3ae8:	01b185b3          	add	x11,x3,x27
    3aec:	07f90493          	addi	x9,x18,127
    3af0:	a8f98b13          	addi	x22,x19,-1393
    3af4:	411e8c33          	sub	x24,x29,x17
    3af8:	41e8813b          	subw	x2,x17,x30
    3afc:	490e019b          	addiw	x3,x28,1168
    3b00:	013b6133          	or	x2,x22,x19
    3b04:	22888413          	addi	x8,x17,552
    3b08:	49dc8f1b          	addiw	x30,x25,1181
    3b0c:	0039eeb3          	or	x29,x19,x3
    3b10:	016cf3b3          	and	x7,x25,x22
    3b14:	44aa0313          	addi	x6,x20,1098
    3b18:	9dda8913          	addi	x18,x21,-1571
    3b1c:	ef3e6593          	ori	x11,x28,-269
    3b20:	001fcbb3          	xor	x23,x31,x1
    3b24:	3f42859b          	addiw	x11,x5,1012
    3b28:	0e19fb93          	andi	x23,x19,225
    3b2c:	ab1ee893          	ori	x17,x29,-1359
    3b30:	01d40a3b          	addw	x20,x8,x29
    3b34:	41006a93          	ori	x21,x0,1040
    3b38:	01f9eb33          	or	x22,x19,x31
    3b3c:	41a68c33          	sub	x24,x13,x26
    3b40:	5cfc0d9b          	addiw	x27,x24,1487
    3b44:	01406033          	or	x0,x0,x20
    3b48:	003485bb          	addw	x11,x9,x3
    3b4c:	15a1c713          	xori	x14,x3,346
    3b50:	0064003b          	addw	x0,x8,x6
    3b54:	d816e813          	ori	x16,x13,-639
    3b58:	405e81b3          	sub	x3,x29,x5
    3b5c:	4ba87993          	andi	x19,x16,1210
    3b60:	40d208bb          	subw	x17,x4,x13
    3b64:	41830f33          	sub	x30,x6,x24
    3b68:	e90d7c93          	andi	x25,x26,-368
    3b6c:	83778193          	addi	x3,x15,-1993
    3b70:	41d80cbb          	subw	x25,x16,x29
    3b74:	e2550c1b          	addiw	x24,x10,-475
    3b78:	018e41b3          	xor	x3,x28,x24
    3b7c:	00ccf2b3          	and	x5,x25,x12
    3b80:	01dc4633          	xor	x12,x24,x29
    3b84:	11050c93          	addi	x25,x10,272
    3b88:	e6ba7c13          	andi	x24,x20,-405
    3b8c:	003a64b3          	or	x9,x20,x3
    3b90:	410a0433          	sub	x8,x20,x16
    3b94:	00d28733          	add	x14,x5,x13
    3b98:	00768db3          	add	x27,x13,x7
    3b9c:	40f70a33          	sub	x20,x14,x15
    3ba0:	01bd89b3          	add	x19,x27,x27
    3ba4:	5ae87393          	andi	x7,x16,1454
    3ba8:	585a8e93          	addi	x29,x21,1413
    3bac:	40d303b3          	sub	x7,x6,x13
    3bb0:	018176b3          	and	x13,x2,x24
    3bb4:	01af02b3          	add	x5,x30,x26
    3bb8:	1a02ed93          	ori	x27,x5,416
    3bbc:	c4d28313          	addi	x6,x5,-947
    3bc0:	41368833          	sub	x16,x13,x19
    3bc4:	01bef033          	and	x0,x29,x27
    3bc8:	41a807bb          	subw	x15,x16,x26
    3bcc:	0edb0e1b          	addiw	x28,x22,237
    3bd0:	54fb6513          	ori	x10,x22,1359
    3bd4:	00da0633          	add	x12,x20,x13
    3bd8:	1044831b          	addiw	x6,x9,260
    3bdc:	c033fd13          	andi	x26,x7,-1021
    3be0:	40ec81b3          	sub	x3,x25,x14
    3be4:	019dee33          	or	x28,x27,x25
    3be8:	900e4793          	xori	x15,x28,-1792
    3bec:	c820e613          	ori	x12,x1,-894
    3bf0:	004106b3          	add	x13,x2,x4
    3bf4:	013e8a33          	add	x20,x29,x19
    3bf8:	011d8433          	add	x8,x27,x17
    3bfc:	40800633          	neg	x12,x8
    3c00:	00158e3b          	addw	x28,x11,x1
    3c04:	402b853b          	subw	x10,x23,x2
    3c08:	e63e6e13          	ori	x28,x28,-413
    3c0c:	8ac30a1b          	addiw	x20,x6,-1876
    3c10:	41eb8133          	sub	x2,x23,x30
    3c14:	f8ce4913          	xori	x18,x28,-116
    3c18:	6bb56613          	ori	x12,x10,1723
    3c1c:	08fce793          	ori	x15,x25,143
    3c20:	140d8513          	addi	x10,x27,320
    3c24:	56936113          	ori	x2,x6,1385
    3c28:	d7b70c13          	addi	x24,x14,-645
    3c2c:	009b0eb3          	add	x29,x22,x9
    3c30:	ca1b7893          	andi	x17,x22,-863
    3c34:	012a0233          	add	x4,x20,x18
    3c38:	00558133          	add	x2,x11,x5
    3c3c:	408b8333          	sub	x6,x23,x8
    3c40:	5aabe213          	ori	x4,x23,1450
    3c44:	001a8fbb          	addw	x31,x21,x1
    3c48:	7c61ce93          	xori	x29,x3,1990
    3c4c:	019e7033          	and	x0,x28,x25
    3c50:	410385b3          	sub	x11,x7,x16
    3c54:	99d77b13          	andi	x22,x14,-1635
    3c58:	41b90db3          	sub	x27,x18,x27
    3c5c:	02a34093          	xori	x1,x6,42
    3c60:	1abc7113          	andi	x2,x24,427
    3c64:	41c48c3b          	subw	x24,x9,x28
    3c68:	2f458c93          	addi	x25,x11,756
    3c6c:	c26ee613          	ori	x12,x29,-986
    3c70:	145c7713          	andi	x14,x24,325
    3c74:	006ffc33          	and	x24,x31,x6
    3c78:	00e260b3          	or	x1,x4,x14
    3c7c:	0161cab3          	xor	x21,x3,x22
    3c80:	01f50eb3          	add	x29,x10,x31
    3c84:	00960833          	add	x16,x12,x9
    3c88:	016d8c3b          	addw	x24,x27,x22
    3c8c:	00e20abb          	addw	x21,x4,x14
    3c90:	019a68b3          	or	x17,x20,x25
    3c94:	cfe3c513          	xori	x10,x7,-770
    3c98:	fe05e793          	ori	x15,x11,-32
    3c9c:	40158a33          	sub	x20,x11,x1
    3ca0:	40bc8333          	sub	x6,x25,x11
    3ca4:	1e8c0c9b          	addiw	x25,x24,488
    3ca8:	00c88eb3          	add	x29,x17,x12
    3cac:	00ace333          	or	x6,x25,x10
    3cb0:	01f34633          	xor	x12,x6,x31
    3cb4:	cfdb4b93          	xori	x23,x22,-771
    3cb8:	016d7fb3          	and	x31,x26,x22
    3cbc:	6c10089b          	addiw	x17,x0,1729
    3cc0:	409809bb          	subw	x19,x16,x9
    3cc4:	c34aeb13          	ori	x22,x21,-972
    3cc8:	820c4393          	xori	x7,x24,-2016
    3ccc:	0aa50713          	addi	x14,x10,170
    3cd0:	010749b3          	xor	x19,x14,x16
    3cd4:	4002823b          	subw	x4,x5,x0
    3cd8:	0164fbb3          	and	x23,x9,x22
    3cdc:	358e8913          	addi	x18,x29,856
    3ce0:	7f62851b          	addiw	x10,x5,2038
    3ce4:	413902bb          	subw	x5,x18,x19
    3ce8:	847b4393          	xori	x7,x22,-1977
    3cec:	00166433          	or	x8,x12,x1
    3cf0:	41c386bb          	subw	x13,x7,x28
    3cf4:	53a16193          	ori	x3,x2,1338
    3cf8:	7b51ff93          	andi	x31,x3,1973
    3cfc:	00616ab3          	or	x21,x2,x6
    3d00:	0199013b          	addw	x2,x18,x25
    3d04:	019f6ab3          	or	x21,x30,x25
    3d08:	40dc8133          	sub	x2,x25,x13
    3d0c:	00bcc933          	xor	x18,x25,x11
    3d10:	009d7133          	and	x2,x26,x9
    3d14:	41a10fb3          	sub	x31,x2,x26
    3d18:	00996e33          	or	x28,x18,x9
    3d1c:	17d5f213          	andi	x4,x11,381
    3d20:	88870a93          	addi	x21,x14,-1912
    3d24:	006267b3          	or	x15,x4,x6
    3d28:	49d4ec93          	ori	x25,x9,1181
    3d2c:	b7578a93          	addi	x21,x15,-1163
    3d30:	016747b3          	xor	x15,x14,x22
    3d34:	0011f733          	and	x14,x3,x1
    3d38:	401407b3          	sub	x15,x8,x1
    3d3c:	bb71e093          	ori	x1,x3,-1097
    3d40:	41ba8c33          	sub	x24,x21,x27
    3d44:	00528733          	add	x14,x5,x5
    3d48:	00fe8d33          	add	x26,x29,x15
    3d4c:	00b8c933          	xor	x18,x17,x11
    3d50:	0091cd33          	xor	x26,x3,x9
    3d54:	017885b3          	add	x11,x17,x23
    3d58:	41940833          	sub	x16,x8,x25
    3d5c:	9500c413          	xori	x8,x1,-1712
    3d60:	007d4833          	xor	x16,x26,x7
    3d64:	a5727a13          	andi	x20,x4,-1449
    3d68:	002e6f33          	or	x30,x28,x2
    3d6c:	0013063b          	addw	x12,x6,x1
    3d70:	000c043b          	addw	x8,x24,x0
    3d74:	01b6fb33          	and	x22,x13,x27
    3d78:	00e105bb          	addw	x11,x2,x14
    3d7c:	dd127b13          	andi	x22,x4,-559
    3d80:	00cd61b3          	or	x3,x26,x12
    3d84:	415a8d33          	sub	x26,x21,x21
    3d88:	010a6d33          	or	x26,x20,x16
    3d8c:	015bc033          	xor	x0,x23,x21
    3d90:	01c57ab3          	and	x21,x10,x28
    3d94:	01b608bb          	addw	x17,x12,x27
    3d98:	438a0f1b          	addiw	x30,x20,1080
    3d9c:	0163ee33          	or	x28,x7,x22
    3da0:	0029e5b3          	or	x11,x19,x2
    3da4:	8cd0859b          	addiw	x11,x1,-1843
    3da8:	405a0db3          	sub	x27,x20,x5
    3dac:	00610133          	add	x2,x2,x6
    3db0:	01dc88bb          	addw	x17,x25,x29
    3db4:	4954f113          	andi	x2,x9,1173
    3db8:	016a043b          	addw	x8,x20,x22
    3dbc:	40ec833b          	subw	x6,x25,x14
    3dc0:	01518e33          	add	x28,x3,x21
    3dc4:	0090003b          	addw	x0,x0,x9
    3dc8:	016401b3          	add	x3,x8,x22
    3dcc:	006366b3          	or	x13,x6,x6
    3dd0:	01a94133          	xor	x2,x18,x26
    3dd4:	d3ee4013          	xori	x0,x28,-706
    3dd8:	713fe313          	ori	x6,x31,1811
    3ddc:	90d4e493          	ori	x9,x9,-1779
    3de0:	1d546793          	ori	x15,x8,469
    3de4:	00936f33          	or	x30,x6,x9
    3de8:	40918733          	sub	x14,x3,x9
    3dec:	001c0cbb          	addw	x25,x24,x1
    3df0:	002b8b3b          	addw	x22,x23,x2
    3df4:	00bfebb3          	or	x23,x31,x11
    3df8:	0c0b7513          	andi	x10,x22,192
    3dfc:	00c568b3          	or	x17,x10,x12
    3e00:	41c180b3          	sub	x1,x3,x28
    3e04:	1b31841b          	addiw	x8,x3,435
    3e08:	01a0c3b3          	xor	x7,x1,x26
    3e0c:	003cf533          	and	x10,x25,x3
    3e10:	00fbf2b3          	and	x5,x23,x15
    3e14:	01610533          	add	x10,x2,x22
    3e18:	2a0e4313          	xori	x6,x28,672
    3e1c:	c95d4513          	xori	x10,x26,-875
    3e20:	278afb13          	andi	x22,x21,632
    3e24:	410a86b3          	sub	x13,x21,x16
    3e28:	415b89b3          	sub	x19,x23,x21
    3e2c:	01098db3          	add	x27,x19,x16
    3e30:	bbc36893          	ori	x17,x6,-1092
    3e34:	bb5d8c13          	addi	x24,x27,-1099
    3e38:	01c78bbb          	addw	x23,x15,x28
    3e3c:	40d20bbb          	subw	x23,x4,x13
    3e40:	41780133          	sub	x2,x16,x23
    3e44:	412989b3          	sub	x19,x19,x18
    3e48:	15366793          	ori	x15,x12,339
    3e4c:	f248889b          	addiw	x17,x17,-220
    3e50:	00896eb3          	or	x29,x18,x8
    3e54:	41da01b3          	sub	x3,x20,x29
    3e58:	00648fb3          	add	x31,x9,x6
    3e5c:	853d7e13          	andi	x28,x26,-1965
    3e60:	01d80dbb          	addw	x27,x16,x29
    3e64:	00a307b3          	add	x15,x6,x10
    3e68:	01c90c33          	add	x24,x18,x28
    3e6c:	f1c1829b          	addiw	x5,x3,-228
    3e70:	01f36233          	or	x4,x6,x31
    3e74:	70c44813          	xori	x16,x8,1804
    3e78:	0115c633          	xor	x12,x11,x17
    3e7c:	01378933          	add	x18,x15,x19
    3e80:	01a9c133          	xor	x2,x19,x26
    3e84:	97aa6c93          	ori	x25,x20,-1670
    3e88:	ef3ac913          	xori	x18,x21,-269
    3e8c:	0082f7b3          	and	x15,x5,x8
    3e90:	2b41e393          	ori	x7,x3,692
    3e94:	01a208b3          	add	x17,x4,x26
    3e98:	6884c013          	xori	x0,x9,1672
    3e9c:	01004133          	xor	x2,x0,x16
    3ea0:	40b288b3          	sub	x17,x5,x11
    3ea4:	5606ee13          	ori	x28,x13,1376
    3ea8:	01da8f33          	add	x30,x21,x29
    3eac:	01414cb3          	xor	x25,x2,x20
    3eb0:	40928433          	sub	x8,x5,x9
    3eb4:	00d370b3          	and	x1,x6,x13
    3eb8:	40ce03b3          	sub	x7,x28,x12
    3ebc:	007b6333          	or	x6,x22,x7
    3ec0:	00b90c3b          	addw	x24,x18,x11
    3ec4:	c1674213          	xori	x4,x14,-1002
    3ec8:	409689b3          	sub	x19,x13,x9
    3ecc:	e2b6e013          	ori	x0,x13,-469
    3ed0:	01df85b3          	add	x11,x31,x29
    3ed4:	1f9e0d93          	addi	x27,x28,505
    3ed8:	00c66933          	or	x18,x12,x12
    3edc:	26a2e913          	ori	x18,x5,618
    3ee0:	01034033          	xor	x0,x6,x16
    3ee4:	016c7b33          	and	x22,x24,x22
    3ee8:	3c488d9b          	addiw	x27,x17,964
    3eec:	3ef9cf13          	xori	x30,x19,1007
    3ef0:	400406bb          	subw	x13,x8,x0
    3ef4:	d7718093          	addi	x1,x3,-649
    3ef8:	4022093b          	subw	x18,x4,x2
    3efc:	38a6e893          	ori	x17,x13,906
    3f00:	01cbf233          	and	x4,x23,x28
    3f04:	00ab843b          	addw	x8,x23,x10
    3f08:	00d50a1b          	addiw	x20,x10,13
    3f0c:	01bc07b3          	add	x15,x24,x27
    3f10:	4d49c813          	xori	x16,x19,1236
    3f14:	c0b14913          	xori	x18,x2,-1013
    3f18:	01c80e33          	add	x28,x16,x28
    3f1c:	b5610293          	addi	x5,x2,-1194
    3f20:	01dce8b3          	or	x17,x25,x29
    3f24:	011a43b3          	xor	x7,x20,x17
    3f28:	f00e031b          	addiw	x6,x28,-256
    3f2c:	01e6f8b3          	and	x17,x13,x30
    3f30:	09d64f93          	xori	x31,x12,157
    3f34:	00d18b3b          	addw	x22,x3,x13
    3f38:	414d0cb3          	sub	x25,x26,x20
    3f3c:	009882b3          	add	x5,x17,x9
    3f40:	b952ed93          	ori	x27,x5,-1131
    3f44:	f3a6889b          	addiw	x17,x13,-198
    3f48:	004887b3          	add	x15,x17,x4
    3f4c:	1c468e9b          	addiw	x29,x13,452
    3f50:	01b18e33          	add	x28,x3,x27
    3f54:	40920eb3          	sub	x29,x4,x9
    3f58:	40fa8933          	sub	x18,x21,x15
    3f5c:	5fc30113          	addi	x2,x6,1532
    3f60:	22d76693          	ori	x13,x14,557
    3f64:	6aac4793          	xori	x15,x24,1706
    3f68:	01078933          	add	x18,x15,x16
    3f6c:	ca668193          	addi	x3,x13,-858
    3f70:	40598bb3          	sub	x23,x19,x5
    3f74:	ca88e213          	ori	x4,x17,-856
    3f78:	844df813          	andi	x16,x27,-1980
    3f7c:	41e407bb          	subw	x15,x8,x30
    3f80:	15030113          	addi	x2,x6,336
    3f84:	0ac78f9b          	addiw	x31,x15,172
    3f88:	01ed87b3          	add	x15,x27,x30
    3f8c:	31cf7f13          	andi	x30,x30,796
    3f90:	40978fbb          	subw	x31,x15,x9
    3f94:	41878133          	sub	x2,x15,x24
    3f98:	99127a93          	andi	x21,x4,-1647
    3f9c:	4529eb93          	ori	x23,x19,1106
    3fa0:	00f86933          	or	x18,x16,x15
    3fa4:	1f6e6b93          	ori	x23,x28,502
    3fa8:	00a2073b          	addw	x14,x4,x10
    3fac:	01930733          	add	x14,x6,x25
    3fb0:	013f0cbb          	addw	x25,x30,x19
    3fb4:	00ecc333          	xor	x6,x25,x14
    3fb8:	a16d7113          	andi	x2,x26,-1514
    3fbc:	7aa0f693          	andi	x13,x1,1962
    3fc0:	417784bb          	subw	x9,x15,x23
    3fc4:	e0397593          	andi	x11,x18,-509
    3fc8:	01df08b3          	add	x17,x30,x29
    3fcc:	0008093b          	addw	x18,x16,x0
    3fd0:	400602b3          	sub	x5,x12,x0
    3fd4:	004b0533          	add	x10,x22,x4
    3fd8:	00d2fd33          	and	x26,x5,x13
    3fdc:	7306079b          	addiw	x15,x12,1840
    3fe0:	40d882bb          	subw	x5,x17,x13
    3fe4:	00894633          	xor	x12,x18,x8
    3fe8:	3ea18b93          	addi	x23,x3,1002
    3fec:	88c76b93          	ori	x23,x14,-1908
    3ff0:	40c200b3          	sub	x1,x4,x12
    3ff4:	00998ab3          	add	x21,x19,x9
    3ff8:	2ef5fb93          	andi	x23,x11,751
    3ffc:	295df693          	andi	x13,x27,661
    4000:	0002eab3          	or	x21,x5,x0
    4004:	018d7f33          	and	x30,x26,x24
    4008:	409b0f3b          	subw	x30,x22,x9
    400c:	004d4533          	xor	x10,x26,x4
    4010:	01b94733          	xor	x14,x18,x27
    4014:	113f7413          	andi	x8,x30,275
    4018:	41508fbb          	subw	x31,x1,x21
    401c:	016bcab3          	xor	x21,x23,x22
    4020:	40d4823b          	subw	x4,x9,x13
    4024:	01d2c4b3          	xor	x9,x5,x29
    4028:	01036f33          	or	x30,x6,x16
    402c:	0124e913          	ori	x18,x9,18
    4030:	45700e1b          	addiw	x28,x0,1111
    4034:	00d487bb          	addw	x15,x9,x13
    4038:	12dbc413          	xori	x8,x23,301
    403c:	48f9ec93          	ori	x25,x19,1167
    4040:	4919e213          	ori	x4,x19,1169
    4044:	7e8c0693          	addi	x13,x24,2024
    4048:	01a50ab3          	add	x21,x10,x26
    404c:	01a5c6b3          	xor	x13,x11,x26
    4050:	005b78b3          	and	x17,x22,x5
    4054:	a4e9fc13          	andi	x24,x19,-1458
    4058:	415280b3          	sub	x1,x5,x21
    405c:	00477233          	and	x4,x14,x4
    4060:	00a5f433          	and	x8,x11,x10
    4064:	41b58fb3          	sub	x31,x11,x27
    4068:	00a4cbb3          	xor	x23,x9,x10
    406c:	01378e3b          	addw	x28,x15,x19
    4070:	fb93011b          	addiw	x2,x6,-71
    4074:	93926093          	ori	x1,x4,-1735
    4078:	4107083b          	subw	x16,x14,x16
    407c:	04a9819b          	addiw	x3,x19,74
    4080:	01d04433          	xor	x8,x0,x29
    4084:	bc376813          	ori	x16,x14,-1085
    4088:	8b8f7613          	andi	x12,x30,-1864
    408c:	a6f9c693          	xori	x13,x19,-1425
    4090:	d82a4493          	xori	x9,x20,-638
    4094:	0130ebb3          	or	x23,x1,x19
    4098:	40df0933          	sub	x18,x30,x13
    409c:	c8bc821b          	addiw	x4,x25,-885
    40a0:	1c5f8613          	addi	x12,x31,453
    40a4:	0097c133          	xor	x2,x15,x9
    40a8:	016049b3          	xor	x19,x0,x22
    40ac:	47756493          	ori	x9,x10,1143
    40b0:	410b8d33          	sub	x26,x23,x16
    40b4:	834a0f9b          	addiw	x31,x20,-1996
    40b8:	01748ebb          	addw	x29,x9,x23
    40bc:	c2bd7f93          	andi	x31,x26,-981
    40c0:	416983b3          	sub	x7,x19,x22
    40c4:	401d06b3          	sub	x13,x26,x1
    40c8:	eed64213          	xori	x4,x12,-275
    40cc:	d354e113          	ori	x2,x9,-715
    40d0:	165e7293          	andi	x5,x28,357
    40d4:	cf0c0493          	addi	x9,x24,-784
    40d8:	65f40793          	addi	x15,x8,1631
    40dc:	01b5e3b3          	or	x7,x11,x27
    40e0:	41810e33          	sub	x28,x2,x24
    40e4:	a10c0993          	addi	x19,x24,-1520
    40e8:	00b481bb          	addw	x3,x9,x11
    40ec:	67590f93          	addi	x31,x18,1653
    40f0:	41e70733          	sub	x14,x14,x30
    40f4:	009685b3          	add	x11,x13,x9
    40f8:	001d6db3          	or	x27,x26,x1
    40fc:	0110f733          	and	x14,x1,x17
    4100:	01e844b3          	xor	x9,x16,x30
    4104:	29138d93          	addi	x27,x7,657
    4108:	e036809b          	addiw	x1,x13,-509
    410c:	01607433          	and	x8,x0,x22
    4110:	414988bb          	subw	x17,x19,x20
    4114:	e91e0a1b          	addiw	x20,x28,-367
    4118:	9c127393          	andi	x7,x4,-1599
    411c:	79cc8713          	addi	x14,x25,1948
    4120:	e66f859b          	addiw	x11,x31,-410
    4124:	00027933          	and	x18,x4,x0
    4128:	64d38b13          	addi	x22,x7,1613
    412c:	011e7433          	and	x8,x28,x17
    4130:	41ab0ab3          	sub	x21,x22,x26
    4134:	e6248013          	addi	x0,x9,-414
    4138:	9260ec13          	ori	x24,x1,-1754
    413c:	8bccc413          	xori	x8,x25,-1860
    4140:	00b875b3          	and	x11,x16,x11
    4144:	f4d76413          	ori	x8,x14,-179
    4148:	14fdc993          	xori	x19,x27,335
    414c:	00f70e3b          	addw	x28,x14,x15
    4150:	401700bb          	subw	x1,x14,x1
    4154:	262c4e13          	xori	x28,x24,610
    4158:	40288033          	sub	x0,x17,x2
    415c:	418f0e33          	sub	x28,x30,x24
    4160:	003884bb          	addw	x9,x17,x3
    4164:	0159e933          	or	x18,x19,x21
    4168:	00edcab3          	xor	x21,x27,x14
    416c:	0037cb33          	xor	x22,x15,x3
    4170:	0125c0b3          	xor	x1,x11,x18
    4174:	411b003b          	subw	x0,x22,x17
    4178:	78610d1b          	addiw	x26,x2,1926
    417c:	3fc80693          	addi	x13,x16,1020
    4180:	009565b3          	or	x11,x10,x9
    4184:	003b70b3          	and	x1,x22,x3
    4188:	003a4fb3          	xor	x31,x20,x3
    418c:	f5126193          	ori	x3,x4,-175
    4190:	016049b3          	xor	x19,x0,x22
    4194:	00974133          	xor	x2,x14,x9
    4198:	01568cbb          	addw	x25,x13,x21
    419c:	01f28e3b          	addw	x28,x5,x31
    41a0:	ea6ef713          	andi	x14,x29,-346
    41a4:	6fd6fc93          	andi	x25,x13,1789
    41a8:	0a2f051b          	addiw	x10,x30,162
    41ac:	40360133          	sub	x2,x12,x3
    41b0:	411181b3          	sub	x3,x3,x17
    41b4:	73504513          	xori	x10,x0,1845
    41b8:	00998fb3          	add	x31,x19,x9
    41bc:	19108213          	addi	x4,x1,401
    41c0:	40408abb          	subw	x21,x1,x4
    41c4:	00b68eb3          	add	x29,x13,x11
    41c8:	d5054293          	xori	x5,x10,-688
    41cc:	a81c6493          	ori	x9,x24,-1407
    41d0:	014744b3          	xor	x9,x14,x20
    41d4:	01f6893b          	addw	x18,x13,x31
    41d8:	012fc833          	xor	x16,x31,x18
    41dc:	01bb04b3          	add	x9,x22,x27
    41e0:	d7ab049b          	addiw	x9,x22,-646
    41e4:	0006ce33          	xor	x28,x13,x0
    41e8:	649e7f13          	andi	x30,x28,1609
    41ec:	012441b3          	xor	x3,x8,x18
    41f0:	00daf0b3          	and	x1,x21,x13
    41f4:	50940513          	addi	x10,x8,1289
    41f8:	01c284bb          	addw	x9,x5,x28
    41fc:	0061833b          	addw	x6,x3,x6
    4200:	01610f3b          	addw	x30,x2,x22
    4204:	0ede8d1b          	addiw	x26,x29,237
    4208:	41f2893b          	subw	x18,x5,x31
    420c:	a31df513          	andi	x10,x27,-1487
    4210:	004efab3          	and	x21,x29,x4
    4214:	010aecb3          	or	x25,x21,x16
    4218:	0130fa33          	and	x20,x1,x19
    421c:	2f186913          	ori	x18,x16,753
    4220:	33bd4313          	xori	x6,x26,827
    4224:	01148333          	add	x6,x9,x17
    4228:	7fd2e493          	ori	x9,x5,2045
    422c:	1a917c93          	andi	x25,x2,425
    4230:	00f08abb          	addw	x21,x1,x15
    4234:	e5e40a9b          	addiw	x21,x8,-418
    4238:	65f56b13          	ori	x22,x10,1631
    423c:	019b0db3          	add	x27,x22,x25
    4240:	5e078993          	addi	x19,x15,1504
    4244:	405d81b3          	sub	x3,x27,x5
    4248:	405b09bb          	subw	x19,x22,x5
    424c:	16c84013          	xori	x0,x16,364
    4250:	017de933          	or	x18,x27,x23
    4254:	00e4853b          	addw	x10,x9,x14
    4258:	01597533          	and	x10,x18,x21
    425c:	0139e433          	or	x8,x19,x19
    4260:	ac9ffe13          	andi	x28,x31,-1335
    4264:	01597833          	and	x16,x18,x21
    4268:	02264a93          	xori	x21,x12,34
    426c:	400806bb          	subw	x13,x16,x0
    4270:	4064853b          	subw	x10,x9,x6
    4274:	2d7b8b93          	addi	x23,x23,727
    4278:	41b285bb          	subw	x11,x5,x27
    427c:	4079803b          	subw	x0,x19,x7
    4280:	0196eb33          	or	x22,x13,x25
    4284:	017e8cb3          	add	x25,x29,x23
    4288:	001bfb33          	and	x22,x23,x1
    428c:	6c6d8493          	addi	x9,x27,1734
    4290:	00e6fb33          	and	x22,x13,x14
    4294:	8c01041b          	addiw	x8,x2,-1856
    4298:	00b0c9b3          	xor	x19,x1,x11
    429c:	008c6533          	or	x10,x24,x8
    42a0:	43f4ed93          	ori	x27,x9,1087
    42a4:	6c608893          	addi	x17,x1,1734
    42a8:	00104c33          	xor	x24,x0,x1
    42ac:	58bf6c93          	ori	x25,x30,1419
    42b0:	00a1e033          	or	x0,x3,x10
    42b4:	016cef33          	or	x30,x25,x22
    42b8:	01274733          	xor	x14,x14,x18
    42bc:	c68e051b          	addiw	x10,x28,-920
    42c0:	55977513          	andi	x10,x14,1369
    42c4:	26f47093          	andi	x1,x8,623
    42c8:	00f9c333          	xor	x6,x19,x15
    42cc:	41668cb3          	sub	x25,x13,x22
    42d0:	50338093          	addi	x1,x7,1283
    42d4:	1422049b          	addiw	x9,x4,322 # 142 <_binary_lab1_test_bin_start+0x142>
    42d8:	4966091b          	addiw	x18,x12,1174
    42dc:	00a80bb3          	add	x23,x16,x10
    42e0:	2c9bee13          	ori	x28,x23,713
    42e4:	005764b3          	or	x9,x14,x5
    42e8:	003cf433          	and	x8,x25,x3
    42ec:	38054393          	xori	x7,x10,896
    42f0:	00657633          	and	x12,x10,x6
    42f4:	410f05bb          	subw	x11,x30,x16
    42f8:	3b860313          	addi	x6,x12,952
    42fc:	01380033          	add	x0,x16,x19
    4300:	41b00abb          	negw	x21,x27
    4304:	00c3073b          	addw	x14,x6,x12
    4308:	41498833          	sub	x16,x19,x20
    430c:	119f011b          	addiw	x2,x30,281
    4310:	009703b3          	add	x7,x14,x9
    4314:	0076f3b3          	and	x7,x13,x7
    4318:	de49f513          	andi	x10,x19,-540
    431c:	33e6f713          	andi	x14,x13,830
    4320:	b2c7c113          	xori	x2,x15,-1236
    4324:	00944193          	xori	x3,x8,9
    4328:	1b8b4b13          	xori	x22,x22,440
    432c:	dd930a13          	addi	x20,x6,-551
    4330:	539c0993          	addi	x19,x24,1337
    4334:	77d8fe13          	andi	x28,x17,1917
    4338:	002ac933          	xor	x18,x21,x2
    433c:	dc75fe93          	andi	x29,x11,-569
    4340:	01930a3b          	addw	x20,x6,x25
    4344:	01744eb3          	xor	x29,x8,x23
    4348:	56cff193          	andi	x3,x31,1388
    434c:	017861b3          	or	x3,x16,x23
    4350:	c0e58e13          	addi	x28,x11,-1010
    4354:	0165cdb3          	xor	x27,x11,x22
    4358:	3c0c0793          	addi	x15,x24,960
    435c:	4036023b          	subw	x4,x12,x3
    4360:	0163f1b3          	and	x3,x7,x22
    4364:	002af133          	and	x2,x21,x2
    4368:	012369b3          	or	x19,x6,x18
    436c:	64fbf313          	andi	x6,x23,1615
    4370:	28856d93          	ori	x27,x10,648
    4374:	01d5fc33          	and	x24,x11,x29
    4378:	402784b3          	sub	x9,x15,x2
    437c:	013fcdb3          	xor	x27,x31,x19
    4380:	1bca6613          	ori	x12,x20,444
    4384:	00cf4633          	xor	x12,x30,x12
    4388:	a4b5e813          	ori	x16,x11,-1461
    438c:	412b87b3          	sub	x15,x23,x18
    4390:	011c893b          	addw	x18,x25,x17
    4394:	f7970193          	addi	x3,x14,-135
    4398:	01ba6233          	or	x4,x20,x27
    439c:	3ece4f93          	xori	x31,x28,1004
    43a0:	0126803b          	addw	x0,x13,x18
    43a4:	048eec93          	ori	x25,x29,72
    43a8:	40cb8db3          	sub	x27,x23,x12
    43ac:	79bdfd13          	andi	x26,x27,1947
    43b0:	01d76eb3          	or	x29,x14,x29
    43b4:	a6ec4d13          	xori	x26,x24,-1426
    43b8:	0115e533          	or	x10,x11,x17
    43bc:	ab95051b          	addiw	x10,x10,-1351
    43c0:	41418633          	sub	x12,x3,x20
    43c4:	016d83bb          	addw	x7,x27,x22
    43c8:	01370cbb          	addw	x25,x14,x19
    43cc:	24a4ea93          	ori	x21,x9,586
    43d0:	4c3e0b1b          	addiw	x22,x28,1219
    43d4:	597f4013          	xori	x0,x30,1431
    43d8:	405006b3          	neg	x13,x5
    43dc:	5e9f899b          	addiw	x19,x31,1513
    43e0:	8243e593          	ori	x11,x7,-2012
    43e4:	a85dc913          	xori	x18,x27,-1403
    43e8:	01b587b3          	add	x15,x11,x27
    43ec:	01560733          	add	x14,x12,x21
    43f0:	41c80dbb          	subw	x27,x16,x28
    43f4:	c8936313          	ori	x6,x6,-887
    43f8:	25d8c813          	xori	x16,x17,605
    43fc:	40bd8db3          	sub	x27,x27,x11
    4400:	41888bb3          	sub	x23,x17,x24
    4404:	017a4433          	xor	x8,x20,x23
    4408:	03b46b13          	ori	x22,x8,59
    440c:	0049e2b3          	or	x5,x19,x4
    4410:	ec378a9b          	addiw	x21,x15,-317
    4414:	01f408b3          	add	x17,x8,x31
    4418:	003fec33          	or	x24,x31,x3
    441c:	41d30f3b          	subw	x30,x6,x29
    4420:	9d120513          	addi	x10,x4,-1583 # fffffffffffff9d1 <_binary_lab1_test_bin_end+0xfffffffffffef9c9>
    4424:	017668b3          	or	x17,x12,x23
    4428:	015568b3          	or	x17,x10,x21
    442c:	01588cbb          	addw	x25,x17,x21
    4430:	0bd5eb13          	ori	x22,x11,189
    4434:	41d408bb          	subw	x17,x8,x29
    4438:	0183f7b3          	and	x15,x7,x24
    443c:	74ed7913          	andi	x18,x26,1870
    4440:	404b8abb          	subw	x21,x23,x4
    4444:	40918e3b          	subw	x28,x3,x9
    4448:	50230613          	addi	x12,x6,1282
    444c:	40a1863b          	subw	x12,x3,x10
    4450:	f20a8193          	addi	x3,x21,-224
    4454:	013feeb3          	or	x29,x31,x19
    4458:	b4834993          	xori	x19,x6,-1208
    445c:	083d7193          	andi	x3,x26,131
    4460:	41c28c33          	sub	x24,x5,x28
    4464:	015e01bb          	addw	x3,x28,x21
    4468:	21197613          	andi	x12,x18,529
    446c:	93caf393          	andi	x7,x21,-1732
    4470:	00c9fb33          	and	x22,x19,x12
    4474:	01117a33          	and	x20,x2,x17
    4478:	b264ca93          	xori	x21,x9,-1242
    447c:	403b833b          	subw	x6,x23,x3
    4480:	413c04bb          	subw	x9,x24,x19
    4484:	00db8533          	add	x10,x23,x13
    4488:	00bc7bb3          	and	x23,x24,x11
    448c:	b80d7513          	andi	x10,x26,-1152
    4490:	c35f0493          	addi	x9,x30,-971
    4494:	0170f833          	and	x16,x1,x23
    4498:	008444b3          	xor	x9,x8,x8
    449c:	769b0093          	addi	x1,x22,1897
    44a0:	005b0d3b          	addw	x26,x22,x5
    44a4:	2f6e829b          	addiw	x5,x29,758
    44a8:	413d0a3b          	subw	x20,x26,x19
    44ac:	fc0c7693          	andi	x13,x24,-64
    44b0:	400f0e33          	sub	x28,x30,x0
    44b4:	00ec06bb          	addw	x13,x24,x14
    44b8:	418000b3          	neg	x1,x24
    44bc:	41a3013b          	subw	x2,x6,x26
    44c0:	00c0003b          	addw	x0,x0,x12
    44c4:	77c97193          	andi	x3,x18,1916
    44c8:	005c6233          	or	x4,x24,x5
    44cc:	407c8f33          	sub	x30,x25,x7
    44d0:	0065ce33          	xor	x28,x11,x6
    44d4:	01eb79b3          	and	x19,x22,x30
    44d8:	01b08a33          	add	x20,x1,x27
    44dc:	0169003b          	addw	x0,x18,x22
    44e0:	0158f133          	and	x2,x17,x21
    44e4:	c989c513          	xori	x10,x19,-872
    44e8:	001a07bb          	addw	x15,x20,x1
    44ec:	016e6a33          	or	x20,x28,x22
    44f0:	01bce0b3          	or	x1,x25,x27
    44f4:	01d20ab3          	add	x21,x4,x29
    44f8:	01878933          	add	x18,x15,x24
    44fc:	01230033          	add	x0,x6,x18
    4500:	0016073b          	addw	x14,x12,x1
    4504:	01f87a33          	and	x20,x16,x31
    4508:	0809f013          	andi	x0,x19,128
    450c:	01ae85bb          	addw	x11,x29,x26
    4510:	00befd33          	and	x26,x29,x11
    4514:	00a2f833          	and	x16,x5,x10
    4518:	866a6d13          	ori	x26,x20,-1946
    451c:	0159033b          	addw	x6,x18,x21
    4520:	479c8193          	addi	x3,x25,1145
    4524:	419483bb          	subw	x7,x9,x25
    4528:	bd00e413          	ori	x8,x1,-1072
    452c:	41eb0333          	sub	x6,x22,x30
    4530:	41ac043b          	subw	x8,x24,x26
    4534:	01ad67b3          	or	x15,x26,x26
    4538:	416a02bb          	subw	x5,x20,x22
    453c:	468d8213          	addi	x4,x27,1128
    4540:	40c400b3          	sub	x1,x8,x12
    4544:	00326ab3          	or	x21,x4,x3
    4548:	00a8fdb3          	and	x27,x17,x10
    454c:	412307b3          	sub	x15,x6,x18
    4550:	018bffb3          	and	x31,x23,x24
    4554:	41878fbb          	subw	x31,x15,x24
    4558:	01e2f533          	and	x10,x5,x30
    455c:	004c4933          	xor	x18,x24,x4
    4560:	00d2e3b3          	or	x7,x5,x13
    4564:	405e0a3b          	subw	x20,x28,x5
    4568:	1489e013          	ori	x0,x19,328
    456c:	4c88069b          	addiw	x13,x16,1224
    4570:	d3d98393          	addi	x7,x19,-707
    4574:	01444a33          	xor	x20,x8,x20
    4578:	00594833          	xor	x16,x18,x5
    457c:	b5d97113          	andi	x2,x18,-1187
    4580:	ec8a821b          	addiw	x4,x21,-312
    4584:	b304e993          	ori	x19,x9,-1232
    4588:	e64f091b          	addiw	x18,x30,-412
    458c:	71297e93          	andi	x29,x18,1810
    4590:	2c450f1b          	addiw	x30,x10,708
    4594:	e0694793          	xori	x15,x18,-506
    4598:	01f74733          	xor	x14,x14,x31
    459c:	fd397b93          	andi	x23,x18,-45
    45a0:	40c98e3b          	subw	x28,x19,x12
    45a4:	00a58f3b          	addw	x30,x11,x10
    45a8:	00c1893b          	addw	x18,x3,x12
    45ac:	48cf4113          	xori	x2,x30,1164
    45b0:	001b0cb3          	add	x25,x22,x1
    45b4:	346bc013          	xori	x0,x23,838
    45b8:	41090eb3          	sub	x29,x18,x16
    45bc:	406d0e3b          	subw	x28,x26,x6
    45c0:	00c47ab3          	and	x21,x8,x12
    45c4:	0d6ce093          	ori	x1,x25,214
    45c8:	b24c4b93          	xori	x23,x24,-1244
    45cc:	00536633          	or	x12,x6,x5
    45d0:	00dc01b3          	add	x3,x24,x13
    45d4:	012674b3          	and	x9,x12,x18
    45d8:	0068823b          	addw	x4,x17,x6
    45dc:	01ae8933          	add	x18,x29,x26
    45e0:	01f10933          	add	x18,x2,x31
    45e4:	cf4a839b          	addiw	x7,x21,-780
    45e8:	ce27cc13          	xori	x24,x15,-798
    45ec:	08b44093          	xori	x1,x8,139
    45f0:	53c9e513          	ori	x10,x19,1340
    45f4:	135a7a93          	andi	x21,x20,309
    45f8:	006ff933          	and	x18,x31,x6
    45fc:	3aed8e13          	addi	x28,x27,942
    4600:	b4e04113          	xori	x2,x0,-1202
    4604:	4ce17d93          	andi	x27,x2,1230
    4608:	00ce80bb          	addw	x1,x29,x12
    460c:	79d9f713          	andi	x14,x19,1949
    4610:	010ae2b3          	or	x5,x21,x16
    4614:	01c9eab3          	or	x21,x19,x28
    4618:	002afa33          	and	x20,x21,x2
    461c:	11158213          	addi	x4,x11,273
    4620:	01a58ebb          	addw	x29,x11,x26
    4624:	01a77533          	and	x10,x14,x26
    4628:	18f97113          	andi	x2,x18,399
    462c:	00aae833          	or	x16,x21,x10
    4630:	40870cbb          	subw	x25,x14,x8
    4634:	2f676213          	ori	x4,x14,758
    4638:	38658793          	addi	x15,x11,902
    463c:	40a9803b          	subw	x0,x19,x10
    4640:	00336733          	or	x14,x6,x3
    4644:	0212ca93          	xori	x21,x5,33
    4648:	31547f93          	andi	x31,x8,789
    464c:	009acc33          	xor	x24,x21,x9
    4650:	54280293          	addi	x5,x16,1346
    4654:	000a08bb          	addw	x17,x20,x0
    4658:	00186a33          	or	x20,x16,x1
    465c:	78590993          	addi	x19,x18,1925
    4660:	fcf38d93          	addi	x27,x7,-49
    4664:	40848b33          	sub	x22,x9,x8
    4668:	01c803b3          	add	x7,x16,x28
    466c:	409409bb          	subw	x19,x8,x9
    4670:	00d30ab3          	add	x21,x6,x13
    4674:	40a5083b          	subw	x16,x10,x10
    4678:	0035873b          	addw	x14,x11,x3
    467c:	0123ed33          	or	x26,x7,x18
    4680:	416002b3          	neg	x5,x22
    4684:	004e71b3          	and	x3,x28,x4
    4688:	41db0b93          	addi	x23,x22,1053
    468c:	004e7233          	and	x4,x28,x4
    4690:	3d960413          	addi	x8,x12,985
    4694:	01e64333          	xor	x6,x12,x30
    4698:	984c6913          	ori	x18,x24,-1660
    469c:	019867b3          	or	x15,x16,x25
    46a0:	41c0833b          	subw	x6,x1,x28
    46a4:	2d83e693          	ori	x13,x7,728
    46a8:	cd4dff93          	andi	x31,x27,-812
    46ac:	1341fe13          	andi	x28,x3,308
    46b0:	9b094993          	xori	x19,x18,-1616
    46b4:	000301b3          	add	x3,x6,x0
    46b8:	6c704b93          	xori	x23,x0,1735
    46bc:	0126edb3          	or	x27,x13,x18
    46c0:	1ce20193          	addi	x3,x4,462 # 1ce <_binary_lab1_test_bin_start+0x1ce>
    46c4:	208e8e9b          	addiw	x29,x29,520
    46c8:	043d059b          	addiw	x11,x26,67
    46cc:	00a88b3b          	addw	x22,x17,x10
    46d0:	7557889b          	addiw	x17,x15,1877
    46d4:	00adfbb3          	and	x23,x27,x10
    46d8:	b7ba871b          	addiw	x14,x21,-1157
    46dc:	85bdeb93          	ori	x23,x27,-1957
    46e0:	0072e9b3          	or	x19,x5,x7
    46e4:	ef097e13          	andi	x28,x18,-272
    46e8:	00356a33          	or	x20,x10,x3
    46ec:	01c5f033          	and	x0,x11,x28
    46f0:	01fccd13          	xori	x26,x25,31
    46f4:	01a204b3          	add	x9,x4,x26
    46f8:	40ed8133          	sub	x2,x27,x14
    46fc:	41f40ab3          	sub	x21,x8,x31
    4700:	01f704b3          	add	x9,x14,x31
    4704:	407d82b3          	sub	x5,x27,x7
    4708:	43560f93          	addi	x31,x12,1077
    470c:	cbd97293          	andi	x5,x18,-835
    4710:	018b89bb          	addw	x19,x23,x24
    4714:	406203b3          	sub	x7,x4,x6
    4718:	008d6433          	or	x8,x26,x8
    471c:	00d18233          	add	x4,x3,x13
    4720:	a6a46913          	ori	x18,x8,-1430
    4724:	da2d889b          	addiw	x17,x27,-606
    4728:	00ddfdb3          	and	x27,x27,x13
    472c:	01ed79b3          	and	x19,x26,x30
    4730:	c85ec713          	xori	x14,x29,-891
    4734:	41ea0c3b          	subw	x24,x20,x30
    4738:	00b6cab3          	xor	x21,x13,x11
    473c:	40c80c3b          	subw	x24,x16,x12
    4740:	40650633          	sub	x12,x10,x6
    4744:	00d2c8b3          	xor	x17,x5,x13
    4748:	6c2ff813          	andi	x16,x31,1730
    474c:	40d30333          	sub	x6,x6,x13
    4750:	17f9f093          	andi	x1,x19,383
    4754:	01d284bb          	addw	x9,x5,x29
    4758:	41cb81bb          	subw	x3,x23,x28
    475c:	63066513          	ori	x10,x12,1584
    4760:	4dc90d13          	addi	x26,x18,1244
    4764:	41a70bbb          	subw	x23,x14,x26
    4768:	5fe7c493          	xori	x9,x15,1534
    476c:	a62a0113          	addi	x2,x20,-1438
    4770:	f481019b          	addiw	x3,x2,-184
    4774:	6b616313          	ori	x6,x2,1718
    4778:	015b0933          	add	x18,x22,x21
    477c:	00b90f33          	add	x30,x18,x11
    4780:	01228dbb          	addw	x27,x5,x18
    4784:	c162c113          	xori	x2,x5,-1002
    4788:	216c0b1b          	addiw	x22,x24,534
    478c:	409384b3          	sub	x9,x7,x9
    4790:	e796ec13          	ori	x24,x13,-391
    4794:	01c34033          	xor	x0,x6,x28
    4798:	00086593          	ori	x11,x16,0
    479c:	3f1d809b          	addiw	x1,x27,1009
    47a0:	e2298393          	addi	x7,x19,-478
    47a4:	fd778593          	addi	x11,x15,-41
    47a8:	0098eb33          	or	x22,x17,x9
    47ac:	ba22809b          	addiw	x1,x5,-1118
    47b0:	9900821b          	addiw	x4,x1,-1648
    47b4:	41c58733          	sub	x14,x11,x28
    47b8:	ce5e4593          	xori	x11,x28,-795
    47bc:	40d889bb          	subw	x19,x17,x13
    47c0:	be27859b          	addiw	x11,x15,-1054
    47c4:	9731fc93          	andi	x25,x3,-1677
    47c8:	6c738b13          	addi	x22,x7,1735
    47cc:	000e03b3          	add	x7,x28,x0
    47d0:	001b0fb3          	add	x31,x22,x1
    47d4:	015709b3          	add	x19,x14,x21
    47d8:	40f18abb          	subw	x21,x3,x15
    47dc:	00f6c6b3          	xor	x13,x13,x15
    47e0:	91fd0e9b          	addiw	x29,x26,-1761
    47e4:	4120043b          	negw	x8,x18
    47e8:	c6b6c193          	xori	x3,x13,-917
    47ec:	ecca039b          	addiw	x7,x20,-308
    47f0:	c6fd0c9b          	addiw	x25,x26,-913
    47f4:	371cca93          	xori	x21,x25,881
    47f8:	25708213          	addi	x4,x1,599
    47fc:	84ab8693          	addi	x13,x23,-1974
    4800:	83a4ef93          	ori	x31,x9,-1990
    4804:	01814eb3          	xor	x29,x2,x24
    4808:	2f980f13          	addi	x30,x16,761
    480c:	409080b3          	sub	x1,x1,x9
    4810:	67f28c93          	addi	x25,x5,1663
    4814:	00f84db3          	xor	x27,x16,x15
    4818:	36c6f713          	andi	x14,x13,876
    481c:	f6ea4393          	xori	x7,x20,-146
    4820:	f2230a93          	addi	x21,x6,-222
    4824:	ecb36513          	ori	x10,x6,-309
    4828:	90c90413          	addi	x8,x18,-1780
    482c:	403808b3          	sub	x17,x16,x3
    4830:	018c83b3          	add	x7,x25,x24
    4834:	0101ef33          	or	x30,x3,x16
    4838:	1ad5f293          	andi	x5,x11,429
    483c:	0090f8b3          	and	x17,x1,x9
    4840:	005c093b          	addw	x18,x24,x5
    4844:	e9a3811b          	addiw	x2,x7,-358
    4848:	0036883b          	addw	x16,x13,x3
    484c:	00ad8033          	add	x0,x27,x10
    4850:	86420093          	addi	x1,x4,-1948 # fffffffffffff864 <_binary_lab1_test_bin_end+0xfffffffffffef85c>
    4854:	41c70b33          	sub	x22,x14,x28
    4858:	0150c033          	xor	x0,x1,x21
    485c:	01ce0cb3          	add	x25,x28,x28
    4860:	0172c6b3          	xor	x13,x5,x23
    4864:	00abe5b3          	or	x11,x23,x10
    4868:	00a06433          	or	x8,x0,x10
    486c:	004d68b3          	or	x17,x26,x4
    4870:	01bf8c3b          	addw	x24,x31,x27
    4874:	134d0f9b          	addiw	x31,x26,308
    4878:	10f30993          	addi	x19,x6,271
    487c:	0165fc33          	and	x24,x11,x22
    4880:	00d788b3          	add	x17,x15,x13
    4884:	00a2eab3          	or	x21,x5,x10
    4888:	41e307bb          	subw	x15,x6,x30
    488c:	03b3f413          	andi	x8,x7,59
    4890:	40878ebb          	subw	x29,x15,x8
    4894:	415782b3          	sub	x5,x15,x21
    4898:	01ee6833          	or	x16,x28,x30
    489c:	e2387c93          	andi	x25,x16,-477
    48a0:	0066c9b3          	xor	x19,x13,x6
    48a4:	707d7013          	andi	x0,x26,1799
    48a8:	1ba58893          	addi	x17,x11,442
    48ac:	0075cfb3          	xor	x31,x11,x7
    48b0:	01a8feb3          	and	x29,x17,x26
    48b4:	41b6003b          	subw	x0,x12,x27
    48b8:	00b08f33          	add	x30,x1,x11
    48bc:	01c189b3          	add	x19,x3,x28
    48c0:	ce3ae113          	ori	x2,x21,-797
    48c4:	002c0bb3          	add	x23,x24,x2
    48c8:	1991c613          	xori	x12,x3,409
    48cc:	00aa013b          	addw	x2,x20,x10
    48d0:	2621fc93          	andi	x25,x3,610
    48d4:	006cc533          	xor	x10,x25,x6
    48d8:	00be80bb          	addw	x1,x29,x11
    48dc:	005181b3          	add	x3,x3,x5
    48e0:	ad2bcf13          	xori	x30,x23,-1326
    48e4:	89d1ee93          	ori	x29,x3,-1891
    48e8:	7731099b          	addiw	x19,x2,1907
    48ec:	407486bb          	subw	x13,x9,x7
    48f0:	01e8fb33          	and	x22,x17,x30
    48f4:	011981b3          	add	x3,x19,x17
    48f8:	000685bb          	addw	x11,x13,x0
    48fc:	9a72f613          	andi	x12,x5,-1625
    4900:	00737233          	and	x4,x6,x7
    4904:	00b50fbb          	addw	x31,x10,x11
    4908:	01378b33          	add	x22,x15,x19
    490c:	1bed6913          	ori	x18,x26,446
    4910:	01570333          	add	x6,x14,x21
    4914:	4174863b          	subw	x12,x9,x23
    4918:	0120e0b3          	or	x1,x1,x18
    491c:	010672b3          	and	x5,x12,x16
    4920:	412a8fb3          	sub	x31,x21,x18
    4924:	01b17433          	and	x8,x2,x27
    4928:	778e7893          	andi	x17,x28,1912
    492c:	4109833b          	subw	x6,x19,x16
    4930:	dc1a7b13          	andi	x22,x20,-575
    4934:	017be933          	or	x18,x23,x23
    4938:	01cae0b3          	or	x1,x21,x28
    493c:	c3e87113          	andi	x2,x16,-962
    4940:	003483bb          	addw	x7,x9,x3
    4944:	00488fbb          	addw	x31,x17,x4
    4948:	00b5813b          	addw	x2,x11,x11
    494c:	71556693          	ori	x13,x10,1813
    4950:	d7b86893          	ori	x17,x16,-645
    4954:	c4756f93          	ori	x31,x10,-953
    4958:	64874813          	xori	x16,x14,1608
    495c:	00dffeb3          	and	x29,x31,x13
    4960:	c2036393          	ori	x7,x6,-992
    4964:	010a00b3          	add	x1,x20,x16
    4968:	01c90413          	addi	x8,x18,28
    496c:	2f13c893          	xori	x17,x7,753
    4970:	0c8ef413          	andi	x8,x29,200
    4974:	b7ed6293          	ori	x5,x26,-1154
    4978:	01b3053b          	addw	x10,x6,x27
    497c:	9deb7f93          	andi	x31,x22,-1570
    4980:	3724069b          	addiw	x13,x8,882
    4984:	11a3c113          	xori	x2,x7,282
    4988:	00f386bb          	addw	x13,x7,x15
    498c:	3ed8f413          	andi	x8,x17,1005
    4990:	00f4e433          	or	x8,x9,x15
    4994:	003064b3          	or	x9,x0,x3
    4998:	40a2ec13          	ori	x24,x5,1034
    499c:	f9780713          	addi	x14,x16,-105
    49a0:	000ac2b3          	xor	x5,x21,x0
    49a4:	52237b93          	andi	x23,x6,1314
    49a8:	40fa03bb          	subw	x7,x20,x15
    49ac:	e6b8c993          	xori	x19,x17,-405
    49b0:	010de033          	or	x0,x27,x16
    49b4:	488a4b13          	xori	x22,x20,1160
    49b8:	0164e1b3          	or	x3,x9,x22
    49bc:	405684bb          	subw	x9,x13,x5
    49c0:	b76f021b          	addiw	x4,x30,-1162
    49c4:	cc0e899b          	addiw	x19,x29,-832
    49c8:	406a80b3          	sub	x1,x21,x6
    49cc:	40b50e33          	sub	x28,x10,x11
    49d0:	cdc68f93          	addi	x31,x13,-804
    49d4:	00be65b3          	or	x11,x28,x11
    49d8:	41160b33          	sub	x22,x12,x17
    49dc:	01cbeb33          	or	x22,x23,x28
    49e0:	00316833          	or	x16,x2,x3
    49e4:	f50f8013          	addi	x0,x31,-176
    49e8:	00bd0ab3          	add	x21,x26,x11
    49ec:	6a2efd13          	andi	x26,x29,1698
    49f0:	0e620393          	addi	x7,x4,230 # e6 <_binary_lab1_test_bin_start+0xe6>
    49f4:	ae99869b          	addiw	x13,x19,-1303
    49f8:	406c8d33          	sub	x26,x25,x6
    49fc:	ed47039b          	addiw	x7,x14,-300
    4a00:	01d96d33          	or	x26,x18,x29
    4a04:	00e8c4b3          	xor	x9,x17,x14
    4a08:	014d6033          	or	x0,x26,x20
    4a0c:	016e7eb3          	and	x29,x28,x22
    4a10:	00268cb3          	add	x25,x13,x2
    4a14:	99cc4893          	xori	x17,x24,-1636
    4a18:	b8e06013          	ori	x0,x0,-1138
    4a1c:	01d189b3          	add	x19,x3,x29
    4a20:	407780bb          	subw	x1,x15,x7
    4a24:	74bcc613          	xori	x12,x25,1867
    4a28:	41668ab3          	sub	x21,x13,x22
    4a2c:	013361b3          	or	x3,x6,x19
    4a30:	00650cbb          	addw	x25,x10,x6
    4a34:	41f508b3          	sub	x17,x10,x31
    4a38:	96317513          	andi	x10,x2,-1693
    4a3c:	003ecc33          	xor	x24,x29,x3
    4a40:	40058ebb          	subw	x29,x11,x0
    4a44:	1e53cc93          	xori	x25,x7,485
    4a48:	c290f293          	andi	x5,x1,-983
    4a4c:	41b50bbb          	subw	x23,x10,x27
    4a50:	00bf4233          	xor	x4,x30,x11
    4a54:	f462061b          	addiw	x12,x4,-186 # ffffffffffffff46 <_binary_lab1_test_bin_end+0xfffffffffffeff3e>
    4a58:	002600bb          	addw	x1,x12,x2
    4a5c:	19d16093          	ori	x1,x2,413
    4a60:	03358a13          	addi	x20,x11,51
    4a64:	001460b3          	or	x1,x8,x1
    4a68:	003442b3          	xor	x5,x8,x3
    4a6c:	002f0e33          	add	x28,x30,x2
    4a70:	401e02bb          	subw	x5,x28,x1
    4a74:	001d88b3          	add	x17,x27,x1
    4a78:	40a38ebb          	subw	x29,x7,x10
    4a7c:	0dc7001b          	addiw	x0,x14,220
    4a80:	94c47c93          	andi	x25,x8,-1716
    4a84:	2572cd13          	xori	x26,x5,599
    4a88:	013cc433          	xor	x8,x25,x19
    4a8c:	01330abb          	addw	x21,x6,x19
    4a90:	22688f93          	addi	x31,x17,550
    4a94:	41938f3b          	subw	x30,x7,x25
    4a98:	0006e4b3          	or	x9,x13,x0
    4a9c:	1c897793          	andi	x15,x18,456
    4aa0:	614d089b          	addiw	x17,x26,1556
    4aa4:	556b4913          	xori	x18,x22,1366
    4aa8:	013f4833          	xor	x16,x30,x19
    4aac:	39ecf593          	andi	x11,x25,926
    4ab0:	66454113          	xori	x2,x10,1636
    4ab4:	9a9ff193          	andi	x3,x31,-1623
    4ab8:	00b0823b          	addw	x4,x1,x11
    4abc:	418f093b          	subw	x18,x30,x24
    4ac0:	00456933          	or	x18,x10,x4
    4ac4:	41a70233          	sub	x4,x14,x26
    4ac8:	67fac713          	xori	x14,x21,1663
    4acc:	408c05b3          	sub	x11,x24,x8
    4ad0:	011b8ebb          	addw	x29,x23,x17
    4ad4:	00086533          	or	x10,x16,x0
    4ad8:	015404bb          	addw	x9,x8,x21
    4adc:	40900b3b          	negw	x22,x9
    4ae0:	018578b3          	and	x17,x10,x24
    4ae4:	4057843b          	subw	x8,x15,x5
    4ae8:	df998f13          	addi	x30,x19,-519
    4aec:	29ab0213          	addi	x4,x22,666
    4af0:	01866c33          	or	x24,x12,x24
    4af4:	000a6fb3          	or	x31,x20,x0
    4af8:	019861b3          	or	x3,x16,x25
    4afc:	01d402b3          	add	x5,x8,x29
    4b00:	013fe333          	or	x6,x31,x19
    4b04:	00e47833          	and	x16,x8,x14
    4b08:	4124893b          	subw	x18,x9,x18
    4b0c:	016ef3b3          	and	x7,x29,x22
    4b10:	001cfab3          	and	x21,x25,x1
    4b14:	67c97893          	andi	x17,x18,1660
    4b18:	9d14ca13          	xori	x20,x9,-1583
    4b1c:	4686099b          	addiw	x19,x12,1128
    4b20:	7d896193          	ori	x3,x18,2008
    4b24:	01b6883b          	addw	x16,x13,x27
    4b28:	e9fb7a13          	andi	x20,x22,-353
    4b2c:	97a98e1b          	addiw	x28,x19,-1670
    4b30:	9b686493          	ori	x9,x16,-1610
    4b34:	806c8c13          	addi	x24,x25,-2042
    4b38:	5ea84213          	xori	x4,x16,1514
    4b3c:	00be09bb          	addw	x19,x28,x11
    4b40:	6e5e6393          	ori	x7,x28,1765
    4b44:	01feee33          	or	x28,x29,x31
    4b48:	016008b3          	add	x17,x0,x22
    4b4c:	8cb2c813          	xori	x16,x5,-1845
    4b50:	9f7bc813          	xori	x16,x23,-1545
    4b54:	002fea33          	or	x20,x31,x2
    4b58:	fd904113          	xori	x2,x0,-39
    4b5c:	72370c13          	addi	x24,x14,1827
    4b60:	cf5dc713          	xori	x14,x27,-779
    4b64:	01086f33          	or	x30,x16,x16
    4b68:	1e53831b          	addiw	x6,x7,485
    4b6c:	014481b3          	add	x3,x9,x20
    4b70:	41c189b3          	sub	x19,x3,x28
    4b74:	017d01b3          	add	x3,x26,x23
    4b78:	01166633          	or	x12,x12,x17
    4b7c:	5beef093          	andi	x1,x29,1470
    4b80:	00458fbb          	addw	x31,x11,x4
    4b84:	00fe0bb3          	add	x23,x28,x15
    4b88:	9de57393          	andi	x7,x10,-1570
    4b8c:	00f162b3          	or	x5,x2,x15
    4b90:	404a0733          	sub	x14,x20,x4
    4b94:	01b7853b          	addw	x10,x15,x27
    4b98:	b1d58c93          	addi	x25,x11,-1251
    4b9c:	01fc7db3          	and	x27,x24,x31
    4ba0:	00980dbb          	addw	x27,x16,x9
    4ba4:	f2794693          	xori	x13,x18,-217
    4ba8:	d7c06b93          	ori	x23,x0,-644
    4bac:	4170813b          	subw	x2,x1,x23
    4bb0:	c20b0e93          	addi	x29,x22,-992
    4bb4:	410d8dbb          	subw	x27,x27,x16
    4bb8:	0144ceb3          	xor	x29,x9,x20
    4bbc:	09926893          	ori	x17,x4,153
    4bc0:	0122883b          	addw	x16,x5,x18
    4bc4:	0104883b          	addw	x16,x9,x16
    4bc8:	c4790313          	addi	x6,x18,-953
    4bcc:	00f482bb          	addw	x5,x9,x15
    4bd0:	e294059b          	addiw	x11,x8,-471
    4bd4:	01ab853b          	addw	x10,x23,x26
    4bd8:	01cb04bb          	addw	x9,x22,x28
    4bdc:	5242801b          	addiw	x0,x5,1316
    4be0:	01d48eb3          	add	x29,x9,x29
    4be4:	015e45b3          	xor	x11,x28,x21
    4be8:	40800a33          	neg	x20,x8
    4bec:	d8734f93          	xori	x31,x6,-633
    4bf0:	07a98f93          	addi	x31,x19,122
    4bf4:	001c0ab3          	add	x21,x24,x1
    4bf8:	012a023b          	addw	x4,x20,x18
    4bfc:	40808c33          	sub	x24,x1,x8
    4c00:	50d7c213          	xori	x4,x15,1293
    4c04:	f6a6c393          	xori	x7,x13,-150
    4c08:	010583bb          	addw	x7,x11,x16
    4c0c:	0068c0b3          	xor	x1,x17,x6
    4c10:	014f0933          	add	x18,x30,x20
    4c14:	0052ef33          	or	x30,x5,x5
    4c18:	40de85b3          	sub	x11,x29,x13
    4c1c:	0189813b          	addw	x2,x19,x24
    4c20:	0128e233          	or	x4,x17,x18
    4c24:	0b1aec13          	ori	x24,x21,177
    4c28:	65cc7d13          	andi	x26,x24,1628
    4c2c:	00db4833          	xor	x16,x22,x13
    4c30:	00beebb3          	or	x23,x29,x11
    4c34:	2a2ce293          	ori	x5,x25,674
    4c38:	163a7513          	andi	x10,x20,355
    4c3c:	6f2b6693          	ori	x13,x22,1778
    4c40:	0179fd33          	and	x26,x19,x23
    4c44:	019d6c33          	or	x24,x26,x25
    4c48:	017e053b          	addw	x10,x28,x23
    4c4c:	d4708a1b          	addiw	x20,x1,-697
    4c50:	0196ecb3          	or	x25,x13,x25
    4c54:	0061e2b3          	or	x5,x3,x6
    4c58:	00cbf4b3          	and	x9,x23,x12
    4c5c:	013e8fb3          	add	x31,x29,x19
    4c60:	d1fe4593          	xori	x11,x28,-737
    4c64:	36ea6613          	ori	x12,x20,878
    4c68:	b8a9eb93          	ori	x23,x19,-1142
    4c6c:	b9074513          	xori	x10,x14,-1136
    4c70:	011aff33          	and	x30,x21,x17
    4c74:	01798fb3          	add	x31,x19,x23
    4c78:	63e00e9b          	addiw	x29,x0,1598
    4c7c:	ad268013          	addi	x0,x13,-1326
    4c80:	00cb7fb3          	and	x31,x22,x12
    4c84:	ed94cc13          	xori	x24,x9,-295
    4c88:	4099003b          	subw	x0,x18,x9
    4c8c:	71f7871b          	addiw	x14,x15,1823
    4c90:	04356b93          	ori	x23,x10,67
    4c94:	b42b091b          	addiw	x18,x22,-1214
    4c98:	0050fd33          	and	x26,x1,x5
    4c9c:	4a5c6f13          	ori	x30,x24,1189
    4ca0:	01600d3b          	addw	x26,x0,x22
    4ca4:	41e1803b          	subw	x0,x3,x30
    4ca8:	3797fd93          	andi	x27,x15,889
    4cac:	6d86e613          	ori	x12,x13,1752
    4cb0:	c7894b93          	xori	x23,x18,-904
    4cb4:	d0eaf813          	andi	x16,x21,-754
    4cb8:	41df0833          	sub	x16,x30,x29
    4cbc:	40088db3          	sub	x27,x17,x0
    4cc0:	00d6e893          	ori	x17,x13,13
    4cc4:	27b4829b          	addiw	x5,x9,635
    4cc8:	bfef8e93          	addi	x29,x31,-1026
    4ccc:	00cd033b          	addw	x6,x26,x12
    4cd0:	01944bb3          	xor	x23,x8,x25
    4cd4:	01906d33          	or	x26,x0,x25
    4cd8:	4109f313          	andi	x6,x19,1040
    4cdc:	b054ec13          	ori	x24,x9,-1275
    4ce0:	41160bbb          	subw	x23,x12,x17
    4ce4:	01d180bb          	addw	x1,x3,x29
    4ce8:	002fe3b3          	or	x7,x31,x2
    4cec:	3c1f829b          	addiw	x5,x31,961
    4cf0:	008d4b33          	xor	x22,x26,x8
    4cf4:	00284bb3          	xor	x23,x16,x2
    4cf8:	70016e93          	ori	x29,x2,1792
    4cfc:	0080e1b3          	or	x3,x1,x8
    4d00:	00c10dbb          	addw	x27,x2,x12
    4d04:	749f829b          	addiw	x5,x31,1865
    4d08:	406b0eb3          	sub	x29,x22,x6
    4d0c:	40520dbb          	subw	x27,x4,x5
    4d10:	403204b3          	sub	x9,x4,x3
    4d14:	2a767413          	andi	x8,x12,679
    4d18:	ab7ef293          	andi	x5,x29,-1353
    4d1c:	01d90d3b          	addw	x26,x18,x29
    4d20:	7caa7513          	andi	x10,x20,1994
    4d24:	017886b3          	add	x13,x17,x23
    4d28:	40ab8133          	sub	x2,x23,x10
    4d2c:	417587b3          	sub	x15,x11,x23
    4d30:	00a6e833          	or	x16,x13,x10
    4d34:	401588b3          	sub	x17,x11,x1
    4d38:	0ae38a93          	addi	x21,x7,174
    4d3c:	007742b3          	xor	x5,x14,x7
    4d40:	00ac47b3          	xor	x15,x24,x10
    4d44:	41118b3b          	subw	x22,x3,x17
    4d48:	00c2cd33          	xor	x26,x5,x12
    4d4c:	ac11fe93          	andi	x29,x3,-1343
    4d50:	0da28f9b          	addiw	x31,x5,218
    4d54:	cde34693          	xori	x13,x6,-802
    4d58:	411b8c93          	addi	x25,x23,1041
    4d5c:	01c6f9b3          	and	x19,x13,x28
    4d60:	8cd70d1b          	addiw	x26,x14,-1843
    4d64:	adb2e893          	ori	x17,x5,-1317
    4d68:	b45fe713          	ori	x14,x31,-1211
    4d6c:	992f7e13          	andi	x28,x30,-1646
    4d70:	01728733          	add	x14,x5,x23
    4d74:	4b5af013          	andi	x0,x21,1205
    4d78:	8dbb4593          	xori	x11,x22,-1829
    4d7c:	004180b3          	add	x1,x3,x4
    4d80:	ff4dc593          	xori	x11,x27,-12
    4d84:	007a0cb3          	add	x25,x20,x7
    4d88:	00500e3b          	addw	x28,x0,x5
    4d8c:	011b833b          	addw	x6,x23,x17
    4d90:	f8c47593          	andi	x11,x8,-116
    4d94:	408c0abb          	subw	x21,x24,x8
    4d98:	41318d33          	sub	x26,x3,x19
    4d9c:	017879b3          	and	x19,x16,x23
    4da0:	d5884193          	xori	x3,x16,-680
    4da4:	a8a26f13          	ori	x30,x4,-1398
    4da8:	00e48bb3          	add	x23,x9,x14
    4dac:	01550533          	add	x10,x10,x21
    4db0:	c5c5879b          	addiw	x15,x11,-932
    4db4:	014e093b          	addw	x18,x28,x20
    4db8:	40d206b3          	sub	x13,x4,x13
    4dbc:	415d81b3          	sub	x3,x27,x21
    4dc0:	01a46b33          	or	x22,x8,x26
    4dc4:	403c81bb          	subw	x3,x25,x3
    4dc8:	5a6e0b1b          	addiw	x22,x28,1446
    4dcc:	62c87693          	andi	x13,x16,1580
    4dd0:	00080b3b          	addw	x22,x16,x0
    4dd4:	00e6fcb3          	and	x25,x13,x14
    4dd8:	0a0d8e9b          	addiw	x29,x27,160
    4ddc:	d1488b9b          	addiw	x23,x17,-748
    4de0:	007b853b          	addw	x10,x23,x7
    4de4:	e2934413          	xori	x8,x6,-471
    4de8:	2bb44a13          	xori	x20,x8,699
    4dec:	418187b3          	sub	x15,x3,x24
    4df0:	01fc0fb3          	add	x31,x24,x31
    4df4:	008e7db3          	and	x27,x28,x8
    4df8:	01bd8c33          	add	x24,x27,x27
    4dfc:	40a486bb          	subw	x13,x9,x10
    4e00:	00cd6e33          	or	x28,x26,x12
    4e04:	41028c33          	sub	x24,x5,x16
    4e08:	0112e433          	or	x8,x5,x17
    4e0c:	01ac07b3          	add	x15,x24,x26
    4e10:	400e80b3          	sub	x1,x29,x0
    4e14:	0146feb3          	and	x29,x13,x20
    4e18:	00c7093b          	addw	x18,x14,x12
    4e1c:	01a7c8b3          	xor	x17,x15,x26
    4e20:	01014a33          	xor	x20,x2,x16
    4e24:	40d50033          	sub	x0,x10,x13
    4e28:	962bc913          	xori	x18,x23,-1694
    4e2c:	f3790493          	addi	x9,x18,-201
    4e30:	0029eab3          	or	x21,x19,x2
    4e34:	01a20bbb          	addw	x23,x4,x26
    4e38:	001308b3          	add	x17,x6,x1
    4e3c:	016a0533          	add	x10,x20,x22
    4e40:	016eca33          	xor	x20,x29,x22
    4e44:	0068873b          	addw	x14,x17,x6
    4e48:	00de6233          	or	x4,x28,x13
    4e4c:	01877fb3          	and	x31,x14,x24
    4e50:	ff93cc93          	xori	x25,x7,-7
    4e54:	40f08133          	sub	x2,x1,x15
    4e58:	41f88433          	sub	x8,x17,x31
    4e5c:	410f8333          	sub	x6,x31,x16
    4e60:	8ea40b13          	addi	x22,x8,-1814
    4e64:	01a28ab3          	add	x21,x5,x26
    4e68:	4146e993          	ori	x19,x13,1044
    4e6c:	417c0fbb          	subw	x31,x24,x23
    4e70:	2b52f113          	andi	x2,x5,693
    4e74:	25466093          	ori	x1,x12,596
    4e78:	00818dbb          	addw	x27,x3,x8
    4e7c:	00f9ec33          	or	x24,x19,x15
    4e80:	04f00893          	li	x17,79
    4e84:	f4f06193          	ori	x3,x0,-177
    4e88:	07e1859b          	addiw	x11,x3,126
    4e8c:	00966533          	or	x10,x12,x9
    4e90:	406489b3          	sub	x19,x9,x6
    4e94:	40728533          	sub	x10,x5,x7
    4e98:	0189e633          	or	x12,x19,x24
    4e9c:	f4c88c1b          	addiw	x24,x17,-180
    4ea0:	77706c13          	ori	x24,x0,1911
    4ea4:	8e3ffb13          	andi	x22,x31,-1821
    4ea8:	41f304b3          	sub	x9,x6,x31
    4eac:	4194843b          	subw	x8,x9,x25
    4eb0:	007647b3          	xor	x15,x12,x7
    4eb4:	40200733          	neg	x14,x2
    4eb8:	23fa8e1b          	addiw	x28,x21,575
    4ebc:	fa1f4693          	xori	x13,x30,-95
    4ec0:	012570b3          	and	x1,x10,x18
    4ec4:	3b95e613          	ori	x12,x11,953
    4ec8:	01938fbb          	addw	x31,x7,x25
    4ecc:	0152f833          	and	x16,x5,x21
    4ed0:	41f60e33          	sub	x28,x12,x31
    4ed4:	018a4733          	xor	x14,x20,x24
    4ed8:	c1210393          	addi	x7,x2,-1006
    4edc:	479b6413          	ori	x8,x22,1145
    4ee0:	001b0a33          	add	x20,x22,x1
    4ee4:	0035cc33          	xor	x24,x11,x3
    4ee8:	07df7613          	andi	x12,x30,125
    4eec:	88ba0893          	addi	x17,x20,-1909
    4ef0:	b1418413          	addi	x8,x3,-1260
    4ef4:	1a780013          	addi	x0,x16,423
    4ef8:	405e0933          	sub	x18,x28,x5
    4efc:	16dde013          	ori	x0,x27,365
    4f00:	419c8d33          	sub	x26,x25,x25
    4f04:	8074f993          	andi	x19,x9,-2041
    4f08:	b5cf0113          	addi	x2,x30,-1188
    4f0c:	2befef13          	ori	x30,x31,702
    4f10:	01bb0cb3          	add	x25,x22,x27
    4f14:	4e4cc013          	xori	x0,x25,1252
    4f18:	34446e13          	ori	x28,x8,836
    4f1c:	015980b3          	add	x1,x19,x21
    4f20:	23f0ca93          	xori	x21,x1,575
    4f24:	937dc313          	xori	x6,x27,-1737
    4f28:	013a8fbb          	addw	x31,x21,x19
    4f2c:	0e106213          	ori	x4,x0,225
    4f30:	01410eb3          	add	x29,x2,x20
    4f34:	40ca86bb          	subw	x13,x21,x12
    4f38:	016484b3          	add	x9,x9,x22
    4f3c:	016381b3          	add	x3,x7,x22
    4f40:	9321c393          	xori	x7,x3,-1742
    4f44:	01eac633          	xor	x12,x21,x30
    4f48:	d0c54193          	xori	x3,x10,-756
    4f4c:	8e0b0713          	addi	x14,x22,-1824
    4f50:	e12af713          	andi	x14,x21,-494
    4f54:	01c2fe33          	and	x28,x5,x28
    4f58:	45ea4e93          	xori	x29,x20,1118
    4f5c:	50a30f13          	addi	x30,x6,1290
    4f60:	00216e33          	or	x28,x2,x2
    4f64:	41d5803b          	subw	x0,x11,x29
    4f68:	58b30d9b          	addiw	x27,x6,1419
    4f6c:	408880b3          	sub	x1,x17,x8
    4f70:	01f00f33          	add	x30,x0,x31
    4f74:	01537933          	and	x18,x6,x21
    4f78:	40638cbb          	subw	x25,x7,x6
    4f7c:	013f8a33          	add	x20,x31,x19
    4f80:	81ec4b93          	xori	x23,x24,-2018
    4f84:	00994cb3          	xor	x25,x18,x9
    4f88:	0c70f313          	andi	x6,x1,199
    4f8c:	7a344913          	xori	x18,x8,1955
    4f90:	b22c6a93          	ori	x21,x24,-1246
    4f94:	00424433          	xor	x8,x4,x4
    4f98:	00dc0a33          	add	x20,x24,x13
    4f9c:	01fcff33          	and	x30,x25,x31
    4fa0:	40064313          	xori	x6,x12,1024
    4fa4:	010162b3          	or	x5,x2,x16
    4fa8:	ce45059b          	addiw	x11,x10,-796
    4fac:	9036f393          	andi	x7,x13,-1789
    4fb0:	46a8e993          	ori	x19,x17,1130
    4fb4:	0b260e1b          	addiw	x28,x12,178
    4fb8:	ba4b7813          	andi	x16,x22,-1116
    4fbc:	e5d20793          	addi	x15,x4,-419 # fffffffffffffe5d <_binary_lab1_test_bin_end+0xfffffffffffefe55>
    4fc0:	f5858693          	addi	x13,x11,-168
    4fc4:	01efe033          	or	x0,x31,x30
    4fc8:	006d64b3          	or	x9,x26,x6
    4fcc:	00ed6f33          	or	x30,x26,x14
    4fd0:	20ea829b          	addiw	x5,x21,526
    4fd4:	002f7eb3          	and	x29,x30,x2
    4fd8:	010a8e33          	add	x28,x21,x16
    4fdc:	00e476b3          	and	x13,x8,x14
    4fe0:	01c9c5b3          	xor	x11,x19,x28
    4fe4:	00758fb3          	add	x31,x11,x7
    4fe8:	843d8493          	addi	x9,x27,-1981
    4fec:	07fe6693          	ori	x13,x28,127
    4ff0:	4018893b          	subw	x18,x17,x1
    4ff4:	00d54d33          	xor	x26,x10,x13
    4ff8:	408d8933          	sub	x18,x27,x8
    4ffc:	000d0fbb          	addw	x31,x26,x0
    5000:	e0070f13          	addi	x30,x14,-512
    5004:	01b6c3b3          	xor	x7,x13,x27
    5008:	018bcc33          	xor	x24,x23,x24
    500c:	b745071b          	addiw	x14,x10,-1164
    5010:	6aa7fd93          	andi	x27,x15,1706
    5014:	01f04333          	xor	x6,x0,x31
    5018:	01e44133          	xor	x2,x8,x30
    501c:	40a38f33          	sub	x30,x7,x10
    5020:	00dccc33          	xor	x24,x25,x13
    5024:	024c0e9b          	addiw	x29,x24,36
    5028:	40978613          	addi	x12,x15,1033
    502c:	cfb84e93          	xori	x29,x16,-773
    5030:	b8eb8f1b          	addiw	x30,x23,-1138
    5034:	01288933          	add	x18,x17,x18
    5038:	0199e7b3          	or	x15,x19,x25
    503c:	01b34a33          	xor	x20,x6,x27
    5040:	014008b3          	add	x17,x0,x20
    5044:	01540e33          	add	x28,x8,x21
    5048:	003ee733          	or	x14,x29,x3
    504c:	01808833          	add	x16,x1,x24
    5050:	40688eb3          	sub	x29,x17,x6
    5054:	00c18633          	add	x12,x3,x12
    5058:	00916633          	or	x12,x2,x9
    505c:	00950ebb          	addw	x29,x10,x9
    5060:	c038ef93          	ori	x31,x17,-1021
    5064:	39d26a93          	ori	x21,x4,925
    5068:	1cc6fb93          	andi	x23,x13,460
    506c:	69590b13          	addi	x22,x18,1685
    5070:	0055c033          	xor	x0,x11,x5
    5074:	622d6693          	ori	x13,x26,1570
    5078:	5defcd13          	xori	x26,x31,1502
    507c:	959af493          	andi	x9,x21,-1703
    5080:	004c6533          	or	x10,x24,x4
    5084:	001bf3b3          	and	x7,x23,x1
    5088:	00c84433          	xor	x8,x16,x12
    508c:	01cb01bb          	addw	x3,x22,x28
    5090:	00a4883b          	addw	x16,x9,x10
    5094:	004a6733          	or	x14,x20,x4
    5098:	0053e9b3          	or	x19,x7,x5
    509c:	03806e93          	ori	x29,x0,56
    50a0:	013c4d33          	xor	x26,x24,x19
    50a4:	42efea93          	ori	x21,x31,1070
    50a8:	00ca77b3          	and	x15,x20,x12
    50ac:	00d8883b          	addw	x16,x17,x13
    50b0:	a361059b          	addiw	x11,x2,-1482
    50b4:	014001bb          	addw	x3,x0,x20
    50b8:	00c560b3          	or	x1,x10,x12
    50bc:	013f6033          	or	x0,x30,x19
    50c0:	42a7fc13          	andi	x24,x15,1066
    50c4:	013b76b3          	and	x13,x22,x19
    50c8:	87990b9b          	addiw	x23,x18,-1927
    50cc:	1ec1c713          	xori	x14,x3,492
    50d0:	ce9b8a1b          	addiw	x20,x23,-791
    50d4:	9f898b1b          	addiw	x22,x19,-1544
    50d8:	28c34993          	xori	x19,x6,652
    50dc:	e0227b93          	andi	x23,x4,-510
    50e0:	36bd4f93          	xori	x31,x26,875
    50e4:	41200ab3          	neg	x21,x18
    50e8:	aeca869b          	addiw	x13,x21,-1300
    50ec:	42b54a13          	xori	x20,x10,1067
    50f0:	10190a13          	addi	x20,x18,257
    50f4:	b22f7113          	andi	x2,x30,-1246
    50f8:	3144899b          	addiw	x19,x9,788
    50fc:	40a68433          	sub	x8,x13,x10
    5100:	f257ce13          	xori	x28,x15,-219
    5104:	0113c1b3          	xor	x3,x7,x17
    5108:	411e84bb          	subw	x9,x29,x17
    510c:	015e4333          	xor	x6,x28,x21
    5110:	0025cbb3          	xor	x23,x11,x2
    5114:	00faf733          	and	x14,x21,x15
    5118:	015384bb          	addw	x9,x7,x21
    511c:	01696c33          	or	x24,x18,x22
    5120:	b188f293          	andi	x5,x17,-1256
    5124:	ad1d0a93          	addi	x21,x26,-1327
    5128:	11aa7b93          	andi	x23,x20,282
    512c:	00dcca33          	xor	x20,x25,x13
    5130:	de83e613          	ori	x12,x7,-536
    5134:	401d0e3b          	subw	x28,x26,x1
    5138:	01fb8ab3          	add	x21,x23,x31
    513c:	3aa74813          	xori	x16,x14,938
    5140:	40650d33          	sub	x26,x10,x6
    5144:	00d86c33          	or	x24,x16,x13
    5148:	01f17233          	and	x4,x2,x31
    514c:	00fd44b3          	xor	x9,x26,x15
    5150:	23adcb93          	xori	x23,x27,570
    5154:	355f031b          	addiw	x6,x30,853
    5158:	3fa96b93          	ori	x23,x18,1018
    515c:	01880633          	add	x12,x16,x24
    5160:	c3d26c13          	ori	x24,x4,-963
    5164:	402b8ebb          	subw	x29,x23,x2
    5168:	0026073b          	addw	x14,x12,x2
    516c:	fb428c93          	addi	x25,x5,-76
    5170:	dff5c013          	xori	x0,x11,-513
    5174:	41158d33          	sub	x26,x11,x17
    5178:	41d305b3          	sub	x11,x6,x29
    517c:	010647b3          	xor	x15,x12,x16
    5180:	40b8013b          	subw	x2,x16,x11
    5184:	40058e13          	addi	x28,x11,1024
    5188:	41d582bb          	subw	x5,x11,x29
    518c:	45cdea13          	ori	x20,x27,1116
    5190:	003e0cbb          	addw	x25,x28,x3
    5194:	01af083b          	addw	x16,x30,x26
    5198:	40d380b3          	sub	x1,x7,x13
    519c:	a7e70893          	addi	x17,x14,-1410
    51a0:	01f084b3          	add	x9,x1,x31
    51a4:	40f08a33          	sub	x20,x1,x15
    51a8:	39da7613          	andi	x12,x20,925
    51ac:	40cc0533          	sub	x10,x24,x12
    51b0:	00296ab3          	or	x21,x18,x2
    51b4:	4000033b          	negw	x6,x0
    51b8:	6ff0019b          	addiw	x3,x0,1791
    51bc:	403082bb          	subw	x5,x1,x3
    51c0:	005f8eb3          	add	x29,x31,x5
    51c4:	000dec33          	or	x24,x27,x0
    51c8:	d7184d93          	xori	x27,x16,-655
    51cc:	85746293          	ori	x5,x8,-1961
    51d0:	8ba18e9b          	addiw	x29,x3,-1862
    51d4:	01c283bb          	addw	x7,x5,x28
    51d8:	35596613          	ori	x12,x18,853
    51dc:	01b977b3          	and	x15,x18,x27
    51e0:	5c7a7d93          	andi	x27,x20,1479
    51e4:	01de8b3b          	addw	x22,x29,x29
    51e8:	001887bb          	addw	x15,x17,x1
    51ec:	438f7193          	andi	x3,x30,1080
    51f0:	9289fb93          	andi	x23,x19,-1752
    51f4:	fd1b041b          	addiw	x8,x22,-47
    51f8:	6d72c593          	xori	x11,x5,1751
    51fc:	01b0c633          	xor	x12,x1,x27
    5200:	40e602bb          	subw	x5,x12,x14
    5204:	016cf9b3          	and	x19,x25,x22
    5208:	017ec733          	xor	x14,x29,x23
    520c:	b8aa0413          	addi	x8,x20,-1142
    5210:	b387f593          	andi	x11,x15,-1224
    5214:	003fc733          	xor	x14,x31,x3
    5218:	40020db3          	sub	x27,x4,x0
    521c:	419280b3          	sub	x1,x5,x25
    5220:	fb76e313          	ori	x6,x13,-73
    5224:	41898633          	sub	x12,x19,x24
    5228:	c1f80793          	addi	x15,x16,-993
    522c:	6a027a13          	andi	x20,x4,1696
    5230:	17960913          	addi	x18,x12,377
    5234:	cacc8b1b          	addiw	x22,x25,-852
    5238:	6a98801b          	addiw	x0,x17,1705
    523c:	00258033          	add	x0,x11,x2
    5240:	41f006b3          	neg	x13,x31
    5244:	4e33861b          	addiw	x12,x7,1251
    5248:	0048fd33          	and	x26,x17,x4
    524c:	41ae8d3b          	subw	x26,x29,x26
    5250:	90627593          	andi	x11,x4,-1786
    5254:	41a00cbb          	negw	x25,x26
    5258:	01d28433          	add	x8,x5,x29
    525c:	0195033b          	addw	x6,x10,x25
    5260:	0187eab3          	or	x21,x15,x24
    5264:	dc9a7193          	andi	x3,x20,-567
    5268:	f934e893          	ori	x17,x9,-109
    526c:	07438293          	addi	x5,x7,116
    5270:	00a2f633          	and	x12,x5,x10
    5274:	2d53f893          	andi	x17,x7,725
    5278:	73794493          	xori	x9,x18,1847
    527c:	416f87b3          	sub	x15,x31,x22
    5280:	85ed881b          	addiw	x16,x27,-1954
    5284:	70f1c393          	xori	x7,x3,1807
    5288:	0150f933          	and	x18,x1,x21
    528c:	41a087bb          	subw	x15,x1,x26
    5290:	b9980d93          	addi	x27,x16,-1127
    5294:	00110a3b          	addw	x20,x2,x1
    5298:	50ea7b13          	andi	x22,x20,1294
    529c:	d6034e13          	xori	x28,x6,-672
    52a0:	08ad7e13          	andi	x28,x26,138
    52a4:	000f89b3          	add	x19,x31,x0
    52a8:	41ca0f33          	sub	x30,x20,x28
    52ac:	b81c7713          	andi	x14,x24,-1151
    52b0:	a6ea8813          	addi	x16,x21,-1426
    52b4:	018b063b          	addw	x12,x22,x24
    52b8:	d7af0c13          	addi	x24,x30,-646
    52bc:	400e853b          	subw	x10,x29,x0
    52c0:	c0628a1b          	addiw	x20,x5,-1018
    52c4:	01c30e3b          	addw	x28,x6,x28
    52c8:	00fc073b          	addw	x14,x24,x15
    52cc:	002cfcb3          	and	x25,x25,x2
    52d0:	fea27993          	andi	x19,x4,-22
    52d4:	cdf47f13          	andi	x30,x8,-801
    52d8:	4ca4c493          	xori	x9,x9,1226
    52dc:	0a134313          	xori	x6,x6,161
    52e0:	007245b3          	xor	x11,x4,x7
    52e4:	01f30433          	add	x8,x6,x31
    52e8:	1f63c013          	xori	x0,x7,502
    52ec:	400d8733          	sub	x14,x27,x0
    52f0:	d3698a1b          	addiw	x20,x19,-714
    52f4:	aa944f93          	xori	x31,x8,-1367
    52f8:	a808891b          	addiw	x18,x17,-1408
    52fc:	40260d33          	sub	x26,x12,x2
    5300:	000b7ab3          	and	x21,x22,x0
    5304:	402f0e3b          	subw	x28,x30,x2
    5308:	006b7ab3          	and	x21,x22,x6
    530c:	412c843b          	subw	x8,x25,x18
    5310:	17b30f93          	addi	x31,x6,379
    5314:	01c689bb          	addw	x19,x13,x28
    5318:	9f4e8193          	addi	x3,x29,-1548
    531c:	2a6c0013          	addi	x0,x24,678
    5320:	0088cfb3          	xor	x31,x17,x8
    5324:	4041823b          	subw	x4,x3,x4
    5328:	01e2f2b3          	and	x5,x5,x30
    532c:	9808f613          	andi	x12,x17,-1664
    5330:	2f726913          	ori	x18,x4,759
    5334:	e3617013          	andi	x0,x2,-458
    5338:	d3b27613          	andi	x12,x4,-709
    533c:	c2ff0613          	addi	x12,x30,-977
    5340:	5e2a4713          	xori	x14,x20,1506
    5344:	49edc213          	xori	x4,x27,1182
    5348:	00e787b3          	add	x15,x15,x14
    534c:	017d64b3          	or	x9,x26,x23
    5350:	a7676913          	ori	x18,x14,-1418
    5354:	4124853b          	subw	x10,x9,x18
    5358:	89f0f993          	andi	x19,x1,-1889
    535c:	41de0833          	sub	x16,x28,x29
    5360:	016b8abb          	addw	x21,x23,x22
    5364:	007e053b          	addw	x10,x28,x7
    5368:	01534333          	xor	x6,x6,x21
    536c:	2e354e13          	xori	x28,x10,739
    5370:	018d01b3          	add	x3,x26,x24
    5374:	71b2e393          	ori	x7,x5,1819
    5378:	70697613          	andi	x12,x18,1798
    537c:	01fc0533          	add	x10,x24,x31
    5380:	006d83bb          	addw	x7,x27,x6
    5384:	4007e613          	ori	x12,x15,1024
    5388:	00476133          	or	x2,x14,x4
    538c:	053e6413          	ori	x8,x28,83
    5390:	b3f9f393          	andi	x7,x19,-1217
    5394:	41db8ab3          	sub	x21,x23,x29
    5398:	00d2f933          	and	x18,x5,x13
    539c:	03da7913          	andi	x18,x20,61
    53a0:	c778e793          	ori	x15,x17,-905
    53a4:	001ff1b3          	and	x3,x31,x1
    53a8:	00f08ebb          	addw	x29,x1,x15
    53ac:	00c38133          	add	x2,x7,x12
    53b0:	419c80bb          	subw	x1,x25,x25
    53b4:	40570e3b          	subw	x28,x14,x5
    53b8:	e77ec093          	xori	x1,x29,-393
    53bc:	0077ed33          	or	x26,x15,x7
    53c0:	2e13f613          	andi	x12,x7,737
    53c4:	00a4c933          	xor	x18,x9,x10
    53c8:	0d858a13          	addi	x20,x11,216
    53cc:	ea260c1b          	addiw	x24,x12,-350
    53d0:	003fe1b3          	or	x3,x31,x3
    53d4:	01d688bb          	addw	x17,x13,x29
    53d8:	801d4693          	xori	x13,x26,-2047
    53dc:	00a00cbb          	addw	x25,x0,x10
    53e0:	0142cd33          	xor	x26,x5,x20
    53e4:	03f78893          	addi	x17,x15,63
    53e8:	1c2f4793          	xori	x15,x30,450
    53ec:	45c28393          	addi	x7,x5,1116
    53f0:	00244c33          	xor	x24,x8,x2
    53f4:	f917e413          	ori	x8,x15,-111
    53f8:	65518d9b          	addiw	x27,x3,1621
    53fc:	01914133          	xor	x2,x2,x25
    5400:	4020863b          	subw	x12,x1,x2
    5404:	8d37fc93          	andi	x25,x15,-1837
    5408:	001bcc33          	xor	x24,x23,x1
    540c:	01017d33          	and	x26,x2,x16
    5410:	001c78b3          	and	x17,x24,x1
    5414:	002f79b3          	and	x19,x30,x2
    5418:	79bc8413          	addi	x8,x25,1947
    541c:	62988093          	addi	x1,x17,1577
    5420:	92328493          	addi	x9,x5,-1757
    5424:	dfe78e13          	addi	x28,x15,-514
    5428:	019c82bb          	addw	x5,x25,x25
    542c:	c7446713          	ori	x14,x8,-908
    5430:	0088f533          	and	x10,x17,x8
    5434:	6ed2811b          	addiw	x2,x5,1773
    5438:	000cca33          	xor	x20,x25,x0
    543c:	45d5eb13          	ori	x22,x11,1117
    5440:	076c6093          	ori	x1,x24,118
    5444:	20f1c793          	xori	x15,x3,527
    5448:	01054933          	xor	x18,x10,x16
    544c:	383c059b          	addiw	x11,x24,899
    5450:	00874f33          	xor	x30,x14,x8
    5454:	7cec0b13          	addi	x22,x24,1998
    5458:	54c54013          	xori	x0,x10,1356
    545c:	b7bcf093          	andi	x1,x25,-1157
    5460:	ce80fa13          	andi	x20,x1,-792
    5464:	74600d9b          	addiw	x27,x0,1862
    5468:	6a698b9b          	addiw	x23,x19,1702
    546c:	417401bb          	subw	x3,x8,x23
    5470:	008e48b3          	xor	x17,x28,x8
    5474:	415403b3          	sub	x7,x8,x21
    5478:	07d36e13          	ori	x28,x6,125
    547c:	000ce9b3          	or	x19,x25,x0
    5480:	0042e933          	or	x18,x5,x4
    5484:	d6518f1b          	addiw	x30,x3,-667
    5488:	b68fc213          	xori	x4,x31,-1176
    548c:	01b37bb3          	and	x23,x6,x27
    5490:	3f78e013          	ori	x0,x17,1015
    5494:	40fb0b3b          	subw	x22,x22,x15
    5498:	01a37633          	and	x12,x6,x26
    549c:	578b6693          	ori	x13,x22,1400
    54a0:	4189833b          	subw	x6,x19,x24
    54a4:	ef576b93          	ori	x23,x14,-267
    54a8:	00320c3b          	addw	x24,x4,x3
    54ac:	003575b3          	and	x11,x10,x3
    54b0:	8c498493          	addi	x9,x19,-1852
    54b4:	d4778d93          	addi	x27,x15,-697
    54b8:	01650cbb          	addw	x25,x10,x22
    54bc:	01af0f33          	add	x30,x30,x26
    54c0:	73d88093          	addi	x1,x17,1853
    54c4:	00bde2b3          	or	x5,x27,x11
    54c8:	01de0333          	add	x6,x28,x29
    54cc:	018905b3          	add	x11,x18,x24
    54d0:	41b584b3          	sub	x9,x11,x27
    54d4:	00bf0433          	add	x8,x30,x11
    54d8:	b6f38513          	addi	x10,x7,-1169
    54dc:	40268e33          	sub	x28,x13,x2
    54e0:	8d8d6713          	ori	x14,x26,-1832
    54e4:	4acb6213          	ori	x4,x22,1196
    54e8:	01c3833b          	addw	x6,x7,x28
    54ec:	0170033b          	addw	x6,x0,x23
    54f0:	01d6c533          	xor	x10,x13,x29
    54f4:	6062c313          	xori	x6,x5,1542
    54f8:	ce818013          	addi	x0,x3,-792
    54fc:	a0ab0b9b          	addiw	x23,x22,-1526
    5500:	45096e13          	ori	x28,x18,1104
    5504:	6cfdf593          	andi	x11,x27,1743
    5508:	11406293          	ori	x5,x0,276
    550c:	40c68abb          	subw	x21,x13,x12
    5510:	5e44cc93          	xori	x25,x9,1508
    5514:	007d0933          	add	x18,x26,x7
    5518:	00a50533          	add	x10,x10,x10
    551c:	0046e133          	or	x2,x13,x4
    5520:	0090c033          	xor	x0,x1,x9
    5524:	000703bb          	addw	x7,x14,x0
    5528:	01e8ecb3          	or	x25,x17,x30
    552c:	274b4e13          	xori	x28,x22,628
    5530:	e83e0c1b          	addiw	x24,x28,-381
    5534:	5bf0e993          	ori	x19,x1,1471
    5538:	408e0e33          	sub	x28,x28,x8
    553c:	0008ce33          	xor	x28,x17,x0
    5540:	41bb0ebb          	subw	x29,x22,x27
    5544:	007c4db3          	xor	x27,x24,x7
    5548:	c15d0d93          	addi	x27,x26,-1003
    554c:	010079b3          	and	x19,x0,x16
    5550:	01e384b3          	add	x9,x7,x30
    5554:	e0400b9b          	addiw	x23,x0,-508
    5558:	407a0dbb          	subw	x27,x20,x7
    555c:	f37f0e9b          	addiw	x29,x30,-201
    5560:	0102033b          	addw	x6,x4,x16
    5564:	410f82b3          	sub	x5,x31,x16
    5568:	c22a6f93          	ori	x31,x20,-990
    556c:	f00bf693          	andi	x13,x23,-256
    5570:	a6fe6e13          	ori	x28,x28,-1425
    5574:	0006013b          	addw	x2,x12,x0
    5578:	417b8ebb          	subw	x29,x23,x23
    557c:	007d6933          	or	x18,x26,x7
    5580:	00a401b3          	add	x3,x8,x10
    5584:	2824851b          	addiw	x10,x9,642
    5588:	57f60193          	addi	x3,x12,1407
    558c:	009a7fb3          	and	x31,x20,x9
    5590:	01f38433          	add	x8,x7,x31
    5594:	00b54b33          	xor	x22,x10,x11
    5598:	0038e333          	or	x6,x17,x3
    559c:	006365b3          	or	x11,x6,x6
    55a0:	0125ca33          	xor	x20,x11,x18
    55a4:	019486bb          	addw	x13,x9,x25
    55a8:	3f736193          	ori	x3,x6,1015
    55ac:	0193c133          	xor	x2,x7,x25
    55b0:	0090eab3          	or	x21,x1,x9
    55b4:	01d509b3          	add	x19,x10,x29
    55b8:	c5b18393          	addi	x7,x3,-933
    55bc:	00010f33          	add	x30,x2,x0
    55c0:	0111853b          	addw	x10,x3,x17
    55c4:	417a8913          	addi	x18,x21,1047
    55c8:	01366433          	or	x8,x12,x19
    55cc:	40e505bb          	subw	x11,x10,x14
    55d0:	618e8613          	addi	x12,x29,1560
    55d4:	238f6693          	ori	x13,x30,568
    55d8:	b76df193          	andi	x3,x27,-1162
    55dc:	00fa4133          	xor	x2,x20,x15
    55e0:	403b873b          	subw	x14,x23,x3
    55e4:	00f089bb          	addw	x19,x1,x15
    55e8:	79838693          	addi	x13,x7,1944
    55ec:	583c6093          	ori	x1,x24,1411
    55f0:	0065f033          	and	x0,x11,x6
    55f4:	00e646b3          	xor	x13,x12,x14
    55f8:	ce988293          	addi	x5,x17,-791
    55fc:	a795899b          	addiw	x19,x11,-1415
    5600:	40dc0533          	sub	x10,x24,x13
    5604:	91e36093          	ori	x1,x6,-1762
    5608:	411d8333          	sub	x6,x27,x17
    560c:	003ec433          	xor	x8,x29,x3
    5610:	b3097f93          	andi	x31,x18,-1232
    5614:	40d708b3          	sub	x17,x14,x13
    5618:	9fcf0693          	addi	x13,x30,-1540
    561c:	b7cdf613          	andi	x12,x27,-1156
    5620:	00db08b3          	add	x17,x22,x13
    5624:	2f5d0b93          	addi	x23,x26,757
    5628:	4635811b          	addiw	x2,x11,1123
    562c:	c4efff93          	andi	x31,x31,-946
    5630:	00be4fb3          	xor	x31,x28,x11
    5634:	e5a3041b          	addiw	x8,x6,-422
    5638:	00e78033          	add	x0,x15,x14
    563c:	50d6869b          	addiw	x13,x13,1293
    5640:	91e16313          	ori	x6,x2,-1762
    5644:	01fdf7b3          	and	x15,x27,x31
    5648:	91418c1b          	addiw	x24,x3,-1772
    564c:	95ea6613          	ori	x12,x20,-1698
    5650:	78cb8513          	addi	x10,x23,1932
